(lp1
((lp2
(I0
I0
tp3
a(I0
I-1
tp4
a(I-1
I-1
tp5
a(I-1
I-2
tp6
a(I0
I-2
tp7
a(I1
I-2
tp8
a(I2
I-2
tp9
a(I2
I-3
tp10
a(I1
I-3
tp11
a(I1
I-4
tp12
a(I1
I-5
tp13
a(I2
I-5
tp14
a(I3
I-5
tp15
a(I3
I-4
tp16
a(I3
I-3
tp17
a(I4
I-3
tp18
a(I4
I-2
tp19
a(I4
I-1
tp20
a(I4
I0
tp21
a(I4
I1
tp22
a(I4
I2
tp23
a(I3
I2
tp24
a(I3
I1
tp25
a(I3
I0
tp26
aI0
tp27
a((lp28
g3
a(I0
I-1
tp29
a(I0
I-2
tp30
a(I0
I-3
tp31
a(I1
I-3
tp32
a(I1
I-2
tp33
a(I2
I-2
tp34
a(I2
I-3
tp35
a(I2
I-4
tp36
a(I3
I-4
tp37
a(I3
I-3
tp38
a(I3
I-2
tp39
a(I3
I-1
tp40
a(I2
I-1
tp41
a(I2
I0
tp42
a(I3
I0
tp43
a(I3
I1
tp44
a(I4
I1
tp45
a(I5
I1
tp46
a(I5
I0
tp47
a(I5
I-1
tp48
a(I4
I-1
tp49
a(I4
I-2
tp50
a(I5
I-2
tp51
aI0
tp52
a((lp53
g3
a(I-1
I0
tp54
a(I-2
I0
tp55
a(I-2
I-1
tp56
a(I-1
I-1
tp57
a(I0
I-1
tp58
a(I1
I-1
tp59
a(I1
I-2
tp60
a(I0
I-2
tp61
a(I0
I-3
tp62
a(I-1
I-3
tp63
a(I-2
I-3
tp64
a(I-2
I-2
tp65
a(I-3
I-2
tp66
a(I-3
I-3
tp67
a(I-4
I-3
tp68
a(I-4
I-2
tp69
a(I-4
I-1
tp70
a(I-4
I0
tp71
a(I-3
I0
tp72
a(I-3
I1
tp73
a(I-4
I1
tp74
a(I-4
I2
tp75
a(I-5
I2
tp76
aI0
tp77
a((lp78
g3
a(I-1
I0
tp79
a(I-1
I-1
tp80
a(I-1
I-2
tp81
a(I-1
I-3
tp82
a(I-2
I-3
tp83
a(I-2
I-2
tp84
a(I-2
I-1
tp85
a(I-2
I0
tp86
a(I-2
I1
tp87
a(I-3
I1
tp88
a(I-3
I0
tp89
a(I-3
I-1
tp90
a(I-3
I-2
tp91
a(I-4
I-2
tp92
a(I-5
I-2
tp93
a(I-5
I-3
tp94
a(I-4
I-3
tp95
a(I-4
I-4
tp96
a(I-4
I-5
tp97
a(I-3
I-5
tp98
a(I-3
I-4
tp99
a(I-2
I-4
tp100
a(I-2
I-5
tp101
aI0
tp102
a((lp103
g3
a(I0
I-1
tp104
a(I-1
I-1
tp105
a(I-1
I-2
tp106
a(I-1
I-3
tp107
a(I-2
I-3
tp108
a(I-2
I-4
tp109
a(I-1
I-4
tp110
a(I0
I-4
tp111
a(I1
I-4
tp112
a(I1
I-5
tp113
a(I0
I-5
tp114
a(I0
I-6
tp115
a(I-1
I-6
tp116
a(I-1
I-5
tp117
a(I-2
I-5
tp118
a(I-2
I-6
tp119
a(I-3
I-6
tp120
a(I-3
I-7
tp121
a(I-2
I-7
tp122
a(I-2
I-8
tp123
a(I-3
I-8
tp124
a(I-3
I-9
tp125
a(I-4
I-9
tp126
aI0
tp127
a((lp128
g3
a(I0
I1
tp129
a(I-1
I1
tp130
a(I-1
I0
tp131
a(I-1
I-1
tp132
a(I-2
I-1
tp133
a(I-2
I0
tp134
a(I-2
I1
tp135
a(I-3
I1
tp136
a(I-3
I2
tp137
a(I-4
I2
tp138
a(I-4
I3
tp139
a(I-4
I4
tp140
a(I-4
I5
tp141
a(I-4
I6
tp142
a(I-5
I6
tp143
a(I-5
I5
tp144
a(I-6
I5
tp145
a(I-6
I4
tp146
a(I-6
I3
tp147
a(I-7
I3
tp148
a(I-7
I2
tp149
a(I-7
I1
tp150
a(I-7
I0
tp151
aI0
tp152
a((lp153
g3
a(I1
I0
tp154
a(I1
I1
tp155
a(I2
I1
tp156
a(I2
I0
tp157
a(I2
I-1
tp158
a(I1
I-1
tp159
a(I1
I-2
tp160
a(I0
I-2
tp161
a(I0
I-3
tp162
a(I1
I-3
tp163
a(I2
I-3
tp164
a(I3
I-3
tp165
a(I4
I-3
tp166
a(I4
I-2
tp167
a(I3
I-2
tp168
a(I3
I-1
tp169
a(I4
I-1
tp170
a(I4
I0
tp171
a(I5
I0
tp172
a(I5
I-1
tp173
a(I5
I-2
tp174
a(I5
I-3
tp175
a(I6
I-3
tp176
aI0
tp177
a((lp178
g3
a(I1
I0
tp179
a(I1
I-1
tp180
a(I0
I-1
tp181
a(I-1
I-1
tp182
a(I-1
I-2
tp183
a(I-2
I-2
tp184
a(I-2
I-3
tp185
a(I-2
I-4
tp186
a(I-1
I-4
tp187
a(I-1
I-3
tp188
a(I0
I-3
tp189
a(I0
I-2
tp190
a(I1
I-2
tp191
a(I1
I-3
tp192
a(I1
I-4
tp193
a(I0
I-4
tp194
a(I0
I-5
tp195
a(I0
I-6
tp196
a(I0
I-7
tp197
a(I0
I-8
tp198
a(I-1
I-8
tp199
a(I-1
I-9
tp200
a(I0
I-9
tp201
aI0
tp202
a((lp203
g3
a(I0
I-1
tp204
a(I1
I-1
tp205
a(I2
I-1
tp206
a(I2
I-2
tp207
a(I2
I-3
tp208
a(I1
I-3
tp209
a(I0
I-3
tp210
a(I0
I-4
tp211
a(I1
I-4
tp212
a(I2
I-4
tp213
a(I3
I-4
tp214
a(I3
I-3
tp215
a(I3
I-2
tp216
a(I3
I-1
tp217
a(I3
I0
tp218
a(I3
I1
tp219
a(I2
I1
tp220
a(I2
I0
tp221
a(I1
I0
tp222
a(I1
I1
tp223
a(I0
I1
tp224
a(I-1
I1
tp225
a(I-1
I0
tp226
aI0
tp227
a((lp228
g3
a(I0
I1
tp229
a(I1
I1
tp230
a(I2
I1
tp231
a(I3
I1
tp232
a(I3
I0
tp233
a(I2
I0
tp234
a(I1
I0
tp235
a(I1
I-1
tp236
a(I0
I-1
tp237
a(I0
I-2
tp238
a(I1
I-2
tp239
a(I2
I-2
tp240
a(I2
I-1
tp241
a(I3
I-1
tp242
a(I3
I-2
tp243
a(I3
I-3
tp244
a(I2
I-3
tp245
a(I1
I-3
tp246
a(I0
I-3
tp247
a(I-1
I-3
tp248
a(I-2
I-3
tp249
a(I-2
I-4
tp250
a(I-1
I-4
tp251
aI0
tp252
a((lp253
g3
a(I-1
I0
tp254
a(I-1
I-1
tp255
a(I-2
I-1
tp256
a(I-2
I0
tp257
a(I-2
I1
tp258
a(I-3
I1
tp259
a(I-3
I2
tp260
a(I-2
I2
tp261
a(I-1
I2
tp262
a(I0
I2
tp263
a(I0
I1
tp264
a(I1
I1
tp265
a(I1
I2
tp266
a(I1
I3
tp267
a(I2
I3
tp268
a(I3
I3
tp269
a(I3
I4
tp270
a(I4
I4
tp271
a(I4
I5
tp272
a(I5
I5
tp273
a(I5
I4
tp274
a(I6
I4
tp275
a(I6
I3
tp276
aI0
tp277
a((lp278
g3
a(I1
I0
tp279
a(I1
I1
tp280
a(I2
I1
tp281
a(I3
I1
tp282
a(I4
I1
tp283
a(I4
I0
tp284
a(I4
I-1
tp285
a(I5
I-1
tp286
a(I6
I-1
tp287
a(I7
I-1
tp288
a(I8
I-1
tp289
a(I8
I-2
tp290
a(I7
I-2
tp291
a(I6
I-2
tp292
a(I6
I-3
tp293
a(I5
I-3
tp294
a(I5
I-4
tp295
a(I5
I-5
tp296
a(I5
I-6
tp297
a(I4
I-6
tp298
a(I4
I-5
tp299
a(I3
I-5
tp300
a(I3
I-4
tp301
aI0
tp302
a((lp303
g3
a(I-1
I0
tp304
a(I-1
I-1
tp305
a(I-1
I-2
tp306
a(I0
I-2
tp307
a(I0
I-3
tp308
a(I-1
I-3
tp309
a(I-2
I-3
tp310
a(I-3
I-3
tp311
a(I-3
I-4
tp312
a(I-3
I-5
tp313
a(I-3
I-6
tp314
a(I-2
I-6
tp315
a(I-2
I-7
tp316
a(I-3
I-7
tp317
a(I-4
I-7
tp318
a(I-4
I-8
tp319
a(I-4
I-9
tp320
a(I-3
I-9
tp321
a(I-3
I-8
tp322
a(I-2
I-8
tp323
a(I-2
I-9
tp324
a(I-2
I-10
tp325
a(I-2
I-11
tp326
aI0
tp327
a((lp328
g3
a(I-1
I0
tp329
a(I-2
I0
tp330
a(I-2
I1
tp331
a(I-1
I1
tp332
a(I0
I1
tp333
a(I1
I1
tp334
a(I2
I1
tp335
a(I2
I0
tp336
a(I1
I0
tp337
a(I1
I-1
tp338
a(I2
I-1
tp339
a(I2
I-2
tp340
a(I1
I-2
tp341
a(I0
I-2
tp342
a(I0
I-3
tp343
a(I-1
I-3
tp344
a(I-2
I-3
tp345
a(I-3
I-3
tp346
a(I-4
I-3
tp347
a(I-4
I-2
tp348
a(I-3
I-2
tp349
a(I-3
I-1
tp350
a(I-2
I-1
tp351
aI0
tp352
a((lp353
g3
a(I1
I0
tp354
a(I2
I0
tp355
a(I2
I1
tp356
a(I3
I1
tp357
a(I3
I2
tp358
a(I3
I3
tp359
a(I4
I3
tp360
a(I4
I2
tp361
a(I4
I1
tp362
a(I4
I0
tp363
a(I4
I-1
tp364
a(I5
I-1
tp365
a(I5
I0
tp366
a(I5
I1
tp367
a(I5
I2
tp368
a(I6
I2
tp369
a(I6
I3
tp370
a(I6
I4
tp371
a(I6
I5
tp372
a(I7
I5
tp373
a(I7
I4
tp374
a(I7
I3
tp375
a(I8
I3
tp376
aI0
tp377
a((lp378
g3
a(I0
I-1
tp379
a(I1
I-1
tp380
a(I1
I0
tp381
a(I2
I0
tp382
a(I2
I1
tp383
a(I2
I2
tp384
a(I1
I2
tp385
a(I0
I2
tp386
a(I-1
I2
tp387
a(I-1
I1
tp388
a(I-2
I1
tp389
a(I-2
I0
tp390
a(I-2
I-1
tp391
a(I-3
I-1
tp392
a(I-3
I-2
tp393
a(I-2
I-2
tp394
a(I-1
I-2
tp395
a(I-1
I-3
tp396
a(I-1
I-4
tp397
a(I0
I-4
tp398
a(I0
I-5
tp399
a(I1
I-5
tp400
a(I1
I-6
tp401
aI0
tp402
a((lp403
g3
a(I-1
I0
tp404
a(I-1
I-1
tp405
a(I0
I-1
tp406
a(I1
I-1
tp407
a(I2
I-1
tp408
a(I2
I0
tp409
a(I1
I0
tp410
a(I1
I1
tp411
a(I0
I1
tp412
a(I0
I2
tp413
a(I1
I2
tp414
a(I1
I3
tp415
a(I1
I4
tp416
a(I1
I5
tp417
a(I1
I6
tp418
a(I2
I6
tp419
a(I2
I7
tp420
a(I3
I7
tp421
a(I3
I8
tp422
a(I4
I8
tp423
a(I4
I9
tp424
a(I5
I9
tp425
a(I5
I10
tp426
aI0
tp427
a((lp428
g3
a(I0
I-1
tp429
a(I0
I-2
tp430
a(I0
I-3
tp431
a(I0
I-4
tp432
a(I0
I-5
tp433
a(I-1
I-5
tp434
a(I-1
I-4
tp435
a(I-2
I-4
tp436
a(I-2
I-5
tp437
a(I-3
I-5
tp438
a(I-3
I-6
tp439
a(I-4
I-6
tp440
a(I-4
I-5
tp441
a(I-4
I-4
tp442
a(I-3
I-4
tp443
a(I-3
I-3
tp444
a(I-2
I-3
tp445
a(I-1
I-3
tp446
a(I-1
I-2
tp447
a(I-2
I-2
tp448
a(I-2
I-1
tp449
a(I-3
I-1
tp450
a(I-3
I0
tp451
aI0
tp452
a((lp453
g3
a(I0
I1
tp454
a(I1
I1
tp455
a(I1
I2
tp456
a(I2
I2
tp457
a(I2
I3
tp458
a(I3
I3
tp459
a(I3
I4
tp460
a(I4
I4
tp461
a(I4
I3
tp462
a(I4
I2
tp463
a(I5
I2
tp464
a(I6
I2
tp465
a(I6
I3
tp466
a(I5
I3
tp467
a(I5
I4
tp468
a(I6
I4
tp469
a(I7
I4
tp470
a(I8
I4
tp471
a(I8
I5
tp472
a(I9
I5
tp473
a(I9
I6
tp474
a(I10
I6
tp475
a(I10
I7
tp476
aI0
tp477
a((lp478
g3
a(I1
I0
tp479
a(I2
I0
tp480
a(I2
I1
tp481
a(I2
I2
tp482
a(I1
I2
tp483
a(I0
I2
tp484
a(I-1
I2
tp485
a(I-2
I2
tp486
a(I-2
I3
tp487
a(I-2
I4
tp488
a(I-2
I5
tp489
a(I-1
I5
tp490
a(I0
I5
tp491
a(I0
I6
tp492
a(I0
I7
tp493
a(I0
I8
tp494
a(I0
I9
tp495
a(I0
I10
tp496
a(I1
I10
tp497
a(I1
I9
tp498
a(I1
I8
tp499
a(I2
I8
tp500
a(I2
I7
tp501
aI0
tp502
a((lp503
g3
a(I1
I0
tp504
a(I2
I0
tp505
a(I2
I1
tp506
a(I1
I1
tp507
a(I1
I2
tp508
a(I0
I2
tp509
a(I0
I3
tp510
a(I1
I3
tp511
a(I2
I3
tp512
a(I3
I3
tp513
a(I4
I3
tp514
a(I5
I3
tp515
a(I6
I3
tp516
a(I7
I3
tp517
a(I8
I3
tp518
a(I9
I3
tp519
a(I10
I3
tp520
a(I10
I2
tp521
a(I10
I1
tp522
a(I11
I1
tp523
a(I11
I2
tp524
a(I11
I3
tp525
a(I11
I4
tp526
aI0
tp527
a((lp528
g3
a(I-1
I0
tp529
a(I-2
I0
tp530
a(I-2
I1
tp531
a(I-2
I2
tp532
a(I-3
I2
tp533
a(I-4
I2
tp534
a(I-4
I1
tp535
a(I-3
I1
tp536
a(I-3
I0
tp537
a(I-3
I-1
tp538
a(I-4
I-1
tp539
a(I-5
I-1
tp540
a(I-5
I-2
tp541
a(I-6
I-2
tp542
a(I-7
I-2
tp543
a(I-8
I-2
tp544
a(I-8
I-1
tp545
a(I-8
I0
tp546
a(I-8
I1
tp547
a(I-8
I2
tp548
a(I-8
I3
tp549
a(I-7
I3
tp550
a(I-7
I4
tp551
aI0
tp552
a((lp553
g3
a(I0
I1
tp554
a(I0
I2
tp555
a(I0
I3
tp556
a(I0
I4
tp557
a(I1
I4
tp558
a(I1
I3
tp559
a(I2
I3
tp560
a(I2
I4
tp561
a(I2
I5
tp562
a(I3
I5
tp563
a(I3
I6
tp564
a(I2
I6
tp565
a(I1
I6
tp566
a(I0
I6
tp567
a(I0
I5
tp568
a(I-1
I5
tp569
a(I-2
I5
tp570
a(I-2
I4
tp571
a(I-3
I4
tp572
a(I-4
I4
tp573
a(I-5
I4
tp574
a(I-5
I3
tp575
a(I-4
I3
tp576
aI0
tp577
a((lp578
g3
a(I1
I0
tp579
a(I1
I1
tp580
a(I0
I1
tp581
a(I0
I2
tp582
a(I-1
I2
tp583
a(I-1
I3
tp584
a(I-1
I4
tp585
a(I0
I4
tp586
a(I0
I3
tp587
a(I1
I3
tp588
a(I1
I4
tp589
a(I2
I4
tp590
a(I3
I4
tp591
a(I3
I3
tp592
a(I3
I2
tp593
a(I4
I2
tp594
a(I4
I1
tp595
a(I3
I1
tp596
a(I3
I0
tp597
a(I4
I0
tp598
a(I5
I0
tp599
a(I5
I1
tp600
a(I5
I2
tp601
aI0
tp602
a((lp603
g3
a(I1
I0
tp604
a(I2
I0
tp605
a(I3
I0
tp606
a(I3
I1
tp607
a(I2
I1
tp608
a(I1
I1
tp609
a(I1
I2
tp610
a(I0
I2
tp611
a(I0
I1
tp612
a(I-1
I1
tp613
a(I-1
I2
tp614
a(I-1
I3
tp615
a(I0
I3
tp616
a(I0
I4
tp617
a(I-1
I4
tp618
a(I-2
I4
tp619
a(I-2
I5
tp620
a(I-1
I5
tp621
a(I0
I5
tp622
a(I1
I5
tp623
a(I2
I5
tp624
a(I2
I6
tp625
a(I2
I7
tp626
aI0
tp627
a((lp628
g3
a(I1
I0
tp629
a(I1
I1
tp630
a(I1
I2
tp631
a(I2
I2
tp632
a(I2
I1
tp633
a(I2
I0
tp634
a(I2
I-1
tp635
a(I1
I-1
tp636
a(I1
I-2
tp637
a(I2
I-2
tp638
a(I3
I-2
tp639
a(I4
I-2
tp640
a(I4
I-1
tp641
a(I4
I0
tp642
a(I4
I1
tp643
a(I4
I2
tp644
a(I5
I2
tp645
a(I6
I2
tp646
a(I7
I2
tp647
a(I7
I3
tp648
a(I7
I4
tp649
a(I8
I4
tp650
a(I8
I5
tp651
aI0
tp652
a((lp653
g3
a(I-1
I0
tp654
a(I-2
I0
tp655
a(I-3
I0
tp656
a(I-4
I0
tp657
a(I-4
I-1
tp658
a(I-5
I-1
tp659
a(I-5
I0
tp660
a(I-5
I1
tp661
a(I-5
I2
tp662
a(I-4
I2
tp663
a(I-3
I2
tp664
a(I-3
I1
tp665
a(I-2
I1
tp666
a(I-2
I2
tp667
a(I-2
I3
tp668
a(I-3
I3
tp669
a(I-3
I4
tp670
a(I-2
I4
tp671
a(I-1
I4
tp672
a(I-1
I5
tp673
a(I0
I5
tp674
a(I0
I4
tp675
a(I1
I4
tp676
aI0
tp677
a((lp678
g3
a(I0
I-1
tp679
a(I0
I-2
tp680
a(I0
I-3
tp681
a(I0
I-4
tp682
a(I0
I-5
tp683
a(I1
I-5
tp684
a(I1
I-6
tp685
a(I2
I-6
tp686
a(I3
I-6
tp687
a(I3
I-5
tp688
a(I3
I-4
tp689
a(I2
I-4
tp690
a(I1
I-4
tp691
a(I1
I-3
tp692
a(I1
I-2
tp693
a(I1
I-1
tp694
a(I1
I0
tp695
a(I2
I0
tp696
a(I2
I1
tp697
a(I1
I1
tp698
a(I1
I2
tp699
a(I2
I2
tp700
a(I3
I2
tp701
aI0
tp702
a((lp703
g3
a(I0
I1
tp704
a(I0
I2
tp705
a(I0
I3
tp706
a(I-1
I3
tp707
a(I-2
I3
tp708
a(I-2
I2
tp709
a(I-1
I2
tp710
a(I-1
I1
tp711
a(I-1
I0
tp712
a(I-2
I0
tp713
a(I-2
I1
tp714
a(I-3
I1
tp715
a(I-4
I1
tp716
a(I-4
I0
tp717
a(I-3
I0
tp718
a(I-3
I-1
tp719
a(I-4
I-1
tp720
a(I-4
I-2
tp721
a(I-5
I-2
tp722
a(I-5
I-3
tp723
a(I-4
I-3
tp724
a(I-4
I-4
tp725
a(I-4
I-5
tp726
aI0
tp727
a((lp728
g3
a(I-1
I0
tp729
a(I-1
I-1
tp730
a(I0
I-1
tp731
a(I0
I-2
tp732
a(I1
I-2
tp733
a(I1
I-1
tp734
a(I2
I-1
tp735
a(I2
I-2
tp736
a(I2
I-3
tp737
a(I2
I-4
tp738
a(I2
I-5
tp739
a(I2
I-6
tp740
a(I3
I-6
tp741
a(I4
I-6
tp742
a(I4
I-5
tp743
a(I3
I-5
tp744
a(I3
I-4
tp745
a(I4
I-4
tp746
a(I5
I-4
tp747
a(I6
I-4
tp748
a(I7
I-4
tp749
a(I7
I-5
tp750
a(I8
I-5
tp751
aI0
tp752
a((lp753
g3
a(I1
I0
tp754
a(I2
I0
tp755
a(I2
I-1
tp756
a(I1
I-1
tp757
a(I1
I-2
tp758
a(I1
I-3
tp759
a(I2
I-3
tp760
a(I2
I-4
tp761
a(I3
I-4
tp762
a(I3
I-5
tp763
a(I3
I-6
tp764
a(I4
I-6
tp765
a(I4
I-5
tp766
a(I5
I-5
tp767
a(I6
I-5
tp768
a(I6
I-4
tp769
a(I6
I-3
tp770
a(I7
I-3
tp771
a(I7
I-2
tp772
a(I6
I-2
tp773
a(I5
I-2
tp774
a(I4
I-2
tp775
a(I4
I-1
tp776
aI0
tp777
a((lp778
g3
a(I0
I1
tp779
a(I0
I2
tp780
a(I1
I2
tp781
a(I2
I2
tp782
a(I2
I1
tp783
a(I1
I1
tp784
a(I1
I0
tp785
a(I1
I-1
tp786
a(I1
I-2
tp787
a(I0
I-2
tp788
a(I0
I-1
tp789
a(I-1
I-1
tp790
a(I-2
I-1
tp791
a(I-3
I-1
tp792
a(I-4
I-1
tp793
a(I-5
I-1
tp794
a(I-5
I-2
tp795
a(I-5
I-3
tp796
a(I-4
I-3
tp797
a(I-4
I-2
tp798
a(I-3
I-2
tp799
a(I-3
I-3
tp800
a(I-3
I-4
tp801
aI0
tp802
a((lp803
g3
a(I0
I1
tp804
a(I1
I1
tp805
a(I1
I2
tp806
a(I1
I3
tp807
a(I0
I3
tp808
a(I-1
I3
tp809
a(I-1
I2
tp810
a(I-1
I1
tp811
a(I-2
I1
tp812
a(I-3
I1
tp813
a(I-4
I1
tp814
a(I-5
I1
tp815
a(I-5
I0
tp816
a(I-6
I0
tp817
a(I-7
I0
tp818
a(I-7
I1
tp819
a(I-8
I1
tp820
a(I-8
I0
tp821
a(I-9
I0
tp822
a(I-10
I0
tp823
a(I-11
I0
tp824
a(I-12
I0
tp825
a(I-12
I1
tp826
aI0
tp827
a((lp828
g3
a(I-1
I0
tp829
a(I-1
I1
tp830
a(I-1
I2
tp831
a(I-2
I2
tp832
a(I-2
I3
tp833
a(I-1
I3
tp834
a(I0
I3
tp835
a(I0
I2
tp836
a(I1
I2
tp837
a(I1
I1
tp838
a(I1
I0
tp839
a(I1
I-1
tp840
a(I1
I-2
tp841
a(I1
I-3
tp842
a(I1
I-4
tp843
a(I1
I-5
tp844
a(I0
I-5
tp845
a(I0
I-4
tp846
a(I0
I-3
tp847
a(I0
I-2
tp848
a(I0
I-1
tp849
a(I-1
I-1
tp850
a(I-1
I-2
tp851
aI0
tp852
a((lp853
g3
a(I-1
I0
tp854
a(I-2
I0
tp855
a(I-3
I0
tp856
a(I-3
I-1
tp857
a(I-4
I-1
tp858
a(I-5
I-1
tp859
a(I-5
I0
tp860
a(I-6
I0
tp861
a(I-6
I1
tp862
a(I-7
I1
tp863
a(I-7
I0
tp864
a(I-8
I0
tp865
a(I-8
I1
tp866
a(I-9
I1
tp867
a(I-9
I0
tp868
a(I-10
I0
tp869
a(I-10
I1
tp870
a(I-10
I2
tp871
a(I-10
I3
tp872
a(I-9
I3
tp873
a(I-8
I3
tp874
a(I-8
I4
tp875
a(I-8
I5
tp876
aI0
tp877
a((lp878
g3
a(I0
I-1
tp879
a(I1
I-1
tp880
a(I1
I0
tp881
a(I2
I0
tp882
a(I2
I1
tp883
a(I3
I1
tp884
a(I4
I1
tp885
a(I5
I1
tp886
a(I5
I0
tp887
a(I4
I0
tp888
a(I4
I-1
tp889
a(I4
I-2
tp890
a(I4
I-3
tp891
a(I4
I-4
tp892
a(I5
I-4
tp893
a(I6
I-4
tp894
a(I6
I-3
tp895
a(I5
I-3
tp896
a(I5
I-2
tp897
a(I5
I-1
tp898
a(I6
I-1
tp899
a(I7
I-1
tp900
a(I7
I-2
tp901
aI0
tp902
a((lp903
g3
a(I-1
I0
tp904
a(I-2
I0
tp905
a(I-2
I-1
tp906
a(I-2
I-2
tp907
a(I-3
I-2
tp908
a(I-3
I-3
tp909
a(I-4
I-3
tp910
a(I-5
I-3
tp911
a(I-6
I-3
tp912
a(I-6
I-4
tp913
a(I-6
I-5
tp914
a(I-5
I-5
tp915
a(I-5
I-6
tp916
a(I-5
I-7
tp917
a(I-6
I-7
tp918
a(I-6
I-8
tp919
a(I-5
I-8
tp920
a(I-4
I-8
tp921
a(I-4
I-9
tp922
a(I-3
I-9
tp923
a(I-3
I-10
tp924
a(I-4
I-10
tp925
a(I-5
I-10
tp926
aI0
tp927
a((lp928
g3
a(I0
I1
tp929
a(I-1
I1
tp930
a(I-1
I0
tp931
a(I-1
I-1
tp932
a(I0
I-1
tp933
a(I0
I-2
tp934
a(I-1
I-2
tp935
a(I-2
I-2
tp936
a(I-3
I-2
tp937
a(I-4
I-2
tp938
a(I-4
I-1
tp939
a(I-3
I-1
tp940
a(I-2
I-1
tp941
a(I-2
I0
tp942
a(I-3
I0
tp943
a(I-3
I1
tp944
a(I-4
I1
tp945
a(I-5
I1
tp946
a(I-6
I1
tp947
a(I-6
I0
tp948
a(I-7
I0
tp949
a(I-8
I0
tp950
a(I-9
I0
tp951
aI0
tp952
a((lp953
g3
a(I0
I-1
tp954
a(I-1
I-1
tp955
a(I-2
I-1
tp956
a(I-3
I-1
tp957
a(I-4
I-1
tp958
a(I-4
I0
tp959
a(I-5
I0
tp960
a(I-5
I-1
tp961
a(I-5
I-2
tp962
a(I-5
I-3
tp963
a(I-5
I-4
tp964
a(I-5
I-5
tp965
a(I-4
I-5
tp966
a(I-4
I-6
tp967
a(I-5
I-6
tp968
a(I-6
I-6
tp969
a(I-6
I-7
tp970
a(I-5
I-7
tp971
a(I-4
I-7
tp972
a(I-3
I-7
tp973
a(I-3
I-6
tp974
a(I-2
I-6
tp975
a(I-2
I-5
tp976
aI0
tp977
a((lp978
g3
a(I0
I-1
tp979
a(I0
I-2
tp980
a(I-1
I-2
tp981
a(I-2
I-2
tp982
a(I-2
I-1
tp983
a(I-1
I-1
tp984
a(I-1
I0
tp985
a(I-2
I0
tp986
a(I-3
I0
tp987
a(I-3
I-1
tp988
a(I-4
I-1
tp989
a(I-5
I-1
tp990
a(I-5
I-2
tp991
a(I-6
I-2
tp992
a(I-6
I-1
tp993
a(I-6
I0
tp994
a(I-6
I1
tp995
a(I-5
I1
tp996
a(I-5
I2
tp997
a(I-5
I3
tp998
a(I-5
I4
tp999
a(I-4
I4
tp1000
a(I-3
I4
tp1001
aI0
tp1002
a((lp1003
g3
a(I1
I0
tp1004
a(I2
I0
tp1005
a(I2
I1
tp1006
a(I3
I1
tp1007
a(I3
I2
tp1008
a(I4
I2
tp1009
a(I4
I1
tp1010
a(I4
I0
tp1011
a(I4
I-1
tp1012
a(I3
I-1
tp1013
a(I2
I-1
tp1014
a(I1
I-1
tp1015
a(I0
I-1
tp1016
a(I-1
I-1
tp1017
a(I-1
I0
tp1018
a(I-1
I1
tp1019
a(I-1
I2
tp1020
a(I0
I2
tp1021
a(I0
I1
tp1022
a(I1
I1
tp1023
a(I1
I2
tp1024
a(I2
I2
tp1025
a(I2
I3
tp1026
aI0
tp1027
a((lp1028
g3
a(I0
I-1
tp1029
a(I0
I-2
tp1030
a(I-1
I-2
tp1031
a(I-1
I-1
tp1032
a(I-2
I-1
tp1033
a(I-2
I-2
tp1034
a(I-2
I-3
tp1035
a(I-2
I-4
tp1036
a(I-2
I-5
tp1037
a(I-1
I-5
tp1038
a(I-1
I-4
tp1039
a(I0
I-4
tp1040
a(I0
I-3
tp1041
a(I1
I-3
tp1042
a(I2
I-3
tp1043
a(I2
I-4
tp1044
a(I1
I-4
tp1045
a(I1
I-5
tp1046
a(I0
I-5
tp1047
a(I0
I-6
tp1048
a(I-1
I-6
tp1049
a(I-2
I-6
tp1050
a(I-2
I-7
tp1051
aI0
tp1052
a((lp1053
g3
a(I0
I-1
tp1054
a(I1
I-1
tp1055
a(I1
I-2
tp1056
a(I1
I-3
tp1057
a(I2
I-3
tp1058
a(I3
I-3
tp1059
a(I3
I-4
tp1060
a(I3
I-5
tp1061
a(I4
I-5
tp1062
a(I4
I-6
tp1063
a(I5
I-6
tp1064
a(I6
I-6
tp1065
a(I6
I-7
tp1066
a(I5
I-7
tp1067
a(I4
I-7
tp1068
a(I3
I-7
tp1069
a(I2
I-7
tp1070
a(I1
I-7
tp1071
a(I1
I-6
tp1072
a(I2
I-6
tp1073
a(I2
I-5
tp1074
a(I1
I-5
tp1075
a(I1
I-4
tp1076
aI0
tp1077
a((lp1078
g3
a(I-1
I0
tp1079
a(I-2
I0
tp1080
a(I-2
I-1
tp1081
a(I-1
I-1
tp1082
a(I-1
I-2
tp1083
a(I-1
I-3
tp1084
a(I-1
I-4
tp1085
a(I-2
I-4
tp1086
a(I-2
I-5
tp1087
a(I-3
I-5
tp1088
a(I-3
I-4
tp1089
a(I-4
I-4
tp1090
a(I-5
I-4
tp1091
a(I-5
I-5
tp1092
a(I-4
I-5
tp1093
a(I-4
I-6
tp1094
a(I-3
I-6
tp1095
a(I-3
I-7
tp1096
a(I-3
I-8
tp1097
a(I-4
I-8
tp1098
a(I-4
I-9
tp1099
a(I-5
I-9
tp1100
a(I-5
I-8
tp1101
aI0
tp1102
a((lp1103
g3
a(I1
I0
tp1104
a(I1
I1
tp1105
a(I1
I2
tp1106
a(I2
I2
tp1107
a(I2
I1
tp1108
a(I3
I1
tp1109
a(I3
I2
tp1110
a(I4
I2
tp1111
a(I5
I2
tp1112
a(I5
I1
tp1113
a(I4
I1
tp1114
a(I4
I0
tp1115
a(I3
I0
tp1116
a(I2
I0
tp1117
a(I2
I-1
tp1118
a(I3
I-1
tp1119
a(I4
I-1
tp1120
a(I5
I-1
tp1121
a(I6
I-1
tp1122
a(I6
I-2
tp1123
a(I6
I-3
tp1124
a(I5
I-3
tp1125
a(I4
I-3
tp1126
aI0
tp1127
a((lp1128
g3
a(I0
I1
tp1129
a(I-1
I1
tp1130
a(I-1
I2
tp1131
a(I-2
I2
tp1132
a(I-2
I3
tp1133
a(I-2
I4
tp1134
a(I-1
I4
tp1135
a(I0
I4
tp1136
a(I0
I5
tp1137
a(I1
I5
tp1138
a(I2
I5
tp1139
a(I2
I6
tp1140
a(I3
I6
tp1141
a(I4
I6
tp1142
a(I4
I7
tp1143
a(I3
I7
tp1144
a(I3
I8
tp1145
a(I2
I8
tp1146
a(I2
I9
tp1147
a(I3
I9
tp1148
a(I4
I9
tp1149
a(I4
I8
tp1150
a(I5
I8
tp1151
aI0
tp1152
a((lp1153
g3
a(I-1
I0
tp1154
a(I-1
I1
tp1155
a(I-1
I2
tp1156
a(I0
I2
tp1157
a(I0
I1
tp1158
a(I1
I1
tp1159
a(I1
I2
tp1160
a(I1
I3
tp1161
a(I2
I3
tp1162
a(I2
I4
tp1163
a(I2
I5
tp1164
a(I2
I6
tp1165
a(I3
I6
tp1166
a(I4
I6
tp1167
a(I5
I6
tp1168
a(I5
I7
tp1169
a(I5
I8
tp1170
a(I6
I8
tp1171
a(I6
I9
tp1172
a(I7
I9
tp1173
a(I8
I9
tp1174
a(I8
I10
tp1175
a(I7
I10
tp1176
aI0
tp1177
a((lp1178
g3
a(I-1
I0
tp1179
a(I-1
I1
tp1180
a(I0
I1
tp1181
a(I0
I2
tp1182
a(I0
I3
tp1183
a(I0
I4
tp1184
a(I0
I5
tp1185
a(I1
I5
tp1186
a(I1
I4
tp1187
a(I1
I3
tp1188
a(I1
I2
tp1189
a(I2
I2
tp1190
a(I2
I3
tp1191
a(I2
I4
tp1192
a(I2
I5
tp1193
a(I2
I6
tp1194
a(I1
I6
tp1195
a(I1
I7
tp1196
a(I0
I7
tp1197
a(I0
I8
tp1198
a(I0
I9
tp1199
a(I0
I10
tp1200
a(I-1
I10
tp1201
aI0
tp1202
a((lp1203
g3
a(I-1
I0
tp1204
a(I-1
I-1
tp1205
a(I0
I-1
tp1206
a(I0
I-2
tp1207
a(I0
I-3
tp1208
a(I1
I-3
tp1209
a(I2
I-3
tp1210
a(I3
I-3
tp1211
a(I3
I-4
tp1212
a(I4
I-4
tp1213
a(I4
I-5
tp1214
a(I4
I-6
tp1215
a(I4
I-7
tp1216
a(I4
I-8
tp1217
a(I4
I-9
tp1218
a(I4
I-10
tp1219
a(I3
I-10
tp1220
a(I2
I-10
tp1221
a(I2
I-11
tp1222
a(I2
I-12
tp1223
a(I3
I-12
tp1224
a(I3
I-11
tp1225
a(I4
I-11
tp1226
aI0
tp1227
a((lp1228
g3
a(I0
I1
tp1229
a(I-1
I1
tp1230
a(I-2
I1
tp1231
a(I-2
I2
tp1232
a(I-1
I2
tp1233
a(I-1
I3
tp1234
a(I0
I3
tp1235
a(I1
I3
tp1236
a(I1
I4
tp1237
a(I2
I4
tp1238
a(I3
I4
tp1239
a(I4
I4
tp1240
a(I4
I5
tp1241
a(I4
I6
tp1242
a(I4
I7
tp1243
a(I5
I7
tp1244
a(I5
I6
tp1245
a(I6
I6
tp1246
a(I6
I7
tp1247
a(I6
I8
tp1248
a(I6
I9
tp1249
a(I7
I9
tp1250
a(I7
I8
tp1251
aI0
tp1252
a((lp1253
g3
a(I0
I-1
tp1254
a(I1
I-1
tp1255
a(I1
I-2
tp1256
a(I2
I-2
tp1257
a(I3
I-2
tp1258
a(I3
I-3
tp1259
a(I2
I-3
tp1260
a(I2
I-4
tp1261
a(I1
I-4
tp1262
a(I0
I-4
tp1263
a(I0
I-3
tp1264
a(I-1
I-3
tp1265
a(I-1
I-4
tp1266
a(I-2
I-4
tp1267
a(I-3
I-4
tp1268
a(I-3
I-5
tp1269
a(I-2
I-5
tp1270
a(I-1
I-5
tp1271
a(I0
I-5
tp1272
a(I0
I-6
tp1273
a(I1
I-6
tp1274
a(I2
I-6
tp1275
a(I3
I-6
tp1276
aI0
tp1277
a((lp1278
g3
a(I0
I1
tp1279
a(I-1
I1
tp1280
a(I-1
I2
tp1281
a(I-2
I2
tp1282
a(I-3
I2
tp1283
a(I-3
I3
tp1284
a(I-3
I4
tp1285
a(I-2
I4
tp1286
a(I-2
I3
tp1287
a(I-1
I3
tp1288
a(I-1
I4
tp1289
a(I0
I4
tp1290
a(I0
I5
tp1291
a(I1
I5
tp1292
a(I1
I6
tp1293
a(I1
I7
tp1294
a(I2
I7
tp1295
a(I2
I6
tp1296
a(I3
I6
tp1297
a(I3
I5
tp1298
a(I3
I4
tp1299
a(I2
I4
tp1300
a(I1
I4
tp1301
aI0
tp1302
a((lp1303
g3
a(I0
I1
tp1304
a(I0
I2
tp1305
a(I-1
I2
tp1306
a(I-2
I2
tp1307
a(I-2
I1
tp1308
a(I-2
I0
tp1309
a(I-1
I0
tp1310
a(I-1
I-1
tp1311
a(I-1
I-2
tp1312
a(I0
I-2
tp1313
a(I0
I-1
tp1314
a(I1
I-1
tp1315
a(I1
I0
tp1316
a(I2
I0
tp1317
a(I3
I0
tp1318
a(I3
I-1
tp1319
a(I2
I-1
tp1320
a(I2
I-2
tp1321
a(I2
I-3
tp1322
a(I2
I-4
tp1323
a(I1
I-4
tp1324
a(I1
I-5
tp1325
a(I2
I-5
tp1326
aI0
tp1327
a((lp1328
g3
a(I0
I1
tp1329
a(I-1
I1
tp1330
a(I-1
I2
tp1331
a(I0
I2
tp1332
a(I0
I3
tp1333
a(I0
I4
tp1334
a(I0
I5
tp1335
a(I1
I5
tp1336
a(I1
I6
tp1337
a(I2
I6
tp1338
a(I3
I6
tp1339
a(I3
I5
tp1340
a(I4
I5
tp1341
a(I4
I6
tp1342
a(I4
I7
tp1343
a(I4
I8
tp1344
a(I3
I8
tp1345
a(I3
I9
tp1346
a(I2
I9
tp1347
a(I2
I8
tp1348
a(I1
I8
tp1349
a(I1
I7
tp1350
a(I2
I7
tp1351
aI0
tp1352
a((lp1353
g3
a(I0
I-1
tp1354
a(I0
I-2
tp1355
a(I0
I-3
tp1356
a(I1
I-3
tp1357
a(I1
I-4
tp1358
a(I1
I-5
tp1359
a(I0
I-5
tp1360
a(I0
I-6
tp1361
a(I0
I-7
tp1362
a(I-1
I-7
tp1363
a(I-1
I-6
tp1364
a(I-1
I-5
tp1365
a(I-2
I-5
tp1366
a(I-2
I-6
tp1367
a(I-3
I-6
tp1368
a(I-4
I-6
tp1369
a(I-5
I-6
tp1370
a(I-5
I-5
tp1371
a(I-4
I-5
tp1372
a(I-4
I-4
tp1373
a(I-5
I-4
tp1374
a(I-5
I-3
tp1375
a(I-5
I-2
tp1376
aI0
tp1377
a((lp1378
g3
a(I0
I-1
tp1379
a(I-1
I-1
tp1380
a(I-1
I-2
tp1381
a(I-2
I-2
tp1382
a(I-2
I-3
tp1383
a(I-3
I-3
tp1384
a(I-4
I-3
tp1385
a(I-5
I-3
tp1386
a(I-5
I-4
tp1387
a(I-6
I-4
tp1388
a(I-6
I-5
tp1389
a(I-5
I-5
tp1390
a(I-5
I-6
tp1391
a(I-6
I-6
tp1392
a(I-7
I-6
tp1393
a(I-8
I-6
tp1394
a(I-9
I-6
tp1395
a(I-9
I-7
tp1396
a(I-10
I-7
tp1397
a(I-11
I-7
tp1398
a(I-12
I-7
tp1399
a(I-12
I-8
tp1400
a(I-13
I-8
tp1401
aI0
tp1402
a((lp1403
g3
a(I1
I0
tp1404
a(I2
I0
tp1405
a(I2
I-1
tp1406
a(I1
I-1
tp1407
a(I1
I-2
tp1408
a(I2
I-2
tp1409
a(I3
I-2
tp1410
a(I3
I-3
tp1411
a(I2
I-3
tp1412
a(I2
I-4
tp1413
a(I2
I-5
tp1414
a(I2
I-6
tp1415
a(I2
I-7
tp1416
a(I1
I-7
tp1417
a(I1
I-8
tp1418
a(I0
I-8
tp1419
a(I-1
I-8
tp1420
a(I-2
I-8
tp1421
a(I-2
I-7
tp1422
a(I-1
I-7
tp1423
a(I-1
I-6
tp1424
a(I-2
I-6
tp1425
a(I-3
I-6
tp1426
aI0
tp1427
a((lp1428
g3
a(I0
I-1
tp1429
a(I-1
I-1
tp1430
a(I-2
I-1
tp1431
a(I-3
I-1
tp1432
a(I-4
I-1
tp1433
a(I-4
I0
tp1434
a(I-5
I0
tp1435
a(I-6
I0
tp1436
a(I-6
I1
tp1437
a(I-5
I1
tp1438
a(I-5
I2
tp1439
a(I-5
I3
tp1440
a(I-4
I3
tp1441
a(I-4
I4
tp1442
a(I-4
I5
tp1443
a(I-4
I6
tp1444
a(I-4
I7
tp1445
a(I-5
I7
tp1446
a(I-6
I7
tp1447
a(I-6
I6
tp1448
a(I-5
I6
tp1449
a(I-5
I5
tp1450
a(I-5
I4
tp1451
aI0
tp1452
a((lp1453
g3
a(I0
I-1
tp1454
a(I1
I-1
tp1455
a(I1
I-2
tp1456
a(I1
I-3
tp1457
a(I1
I-4
tp1458
a(I0
I-4
tp1459
a(I-1
I-4
tp1460
a(I-1
I-3
tp1461
a(I-2
I-3
tp1462
a(I-2
I-4
tp1463
a(I-2
I-5
tp1464
a(I-3
I-5
tp1465
a(I-4
I-5
tp1466
a(I-5
I-5
tp1467
a(I-6
I-5
tp1468
a(I-6
I-4
tp1469
a(I-7
I-4
tp1470
a(I-7
I-3
tp1471
a(I-7
I-2
tp1472
a(I-8
I-2
tp1473
a(I-8
I-3
tp1474
a(I-8
I-4
tp1475
a(I-8
I-5
tp1476
aI0
tp1477
a((lp1478
g3
a(I-1
I0
tp1479
a(I-1
I-1
tp1480
a(I-1
I-2
tp1481
a(I-2
I-2
tp1482
a(I-3
I-2
tp1483
a(I-3
I-1
tp1484
a(I-2
I-1
tp1485
a(I-2
I0
tp1486
a(I-3
I0
tp1487
a(I-4
I0
tp1488
a(I-5
I0
tp1489
a(I-6
I0
tp1490
a(I-6
I1
tp1491
a(I-6
I2
tp1492
a(I-7
I2
tp1493
a(I-7
I3
tp1494
a(I-6
I3
tp1495
a(I-6
I4
tp1496
a(I-5
I4
tp1497
a(I-4
I4
tp1498
a(I-3
I4
tp1499
a(I-3
I5
tp1500
a(I-2
I5
tp1501
aI0
tp1502
a((lp1503
g3
a(I0
I-1
tp1504
a(I1
I-1
tp1505
a(I1
I0
tp1506
a(I1
I1
tp1507
a(I0
I1
tp1508
a(I0
I2
tp1509
a(I0
I3
tp1510
a(I1
I3
tp1511
a(I1
I2
tp1512
a(I2
I2
tp1513
a(I3
I2
tp1514
a(I3
I3
tp1515
a(I4
I3
tp1516
a(I5
I3
tp1517
a(I6
I3
tp1518
a(I7
I3
tp1519
a(I7
I4
tp1520
a(I6
I4
tp1521
a(I6
I5
tp1522
a(I5
I5
tp1523
a(I5
I4
tp1524
a(I4
I4
tp1525
a(I3
I4
tp1526
aI0
tp1527
a((lp1528
g3
a(I0
I1
tp1529
a(I1
I1
tp1530
a(I1
I0
tp1531
a(I1
I-1
tp1532
a(I1
I-2
tp1533
a(I2
I-2
tp1534
a(I2
I-1
tp1535
a(I3
I-1
tp1536
a(I3
I0
tp1537
a(I2
I0
tp1538
a(I2
I1
tp1539
a(I3
I1
tp1540
a(I4
I1
tp1541
a(I5
I1
tp1542
a(I5
I0
tp1543
a(I5
I-1
tp1544
a(I6
I-1
tp1545
a(I6
I0
tp1546
a(I6
I1
tp1547
a(I6
I2
tp1548
a(I6
I3
tp1549
a(I5
I3
tp1550
a(I4
I3
tp1551
aI0
tp1552
a((lp1553
g3
a(I0
I1
tp1554
a(I0
I2
tp1555
a(I1
I2
tp1556
a(I2
I2
tp1557
a(I2
I3
tp1558
a(I1
I3
tp1559
a(I1
I4
tp1560
a(I1
I5
tp1561
a(I1
I6
tp1562
a(I2
I6
tp1563
a(I2
I7
tp1564
a(I1
I7
tp1565
a(I1
I8
tp1566
a(I2
I8
tp1567
a(I2
I9
tp1568
a(I1
I9
tp1569
a(I1
I10
tp1570
a(I2
I10
tp1571
a(I3
I10
tp1572
a(I3
I11
tp1573
a(I4
I11
tp1574
a(I4
I12
tp1575
a(I4
I13
tp1576
aI0
tp1577
a((lp1578
g3
a(I0
I1
tp1579
a(I-1
I1
tp1580
a(I-2
I1
tp1581
a(I-3
I1
tp1582
a(I-3
I2
tp1583
a(I-3
I3
tp1584
a(I-4
I3
tp1585
a(I-4
I4
tp1586
a(I-4
I5
tp1587
a(I-4
I6
tp1588
a(I-4
I7
tp1589
a(I-5
I7
tp1590
a(I-6
I7
tp1591
a(I-6
I6
tp1592
a(I-6
I5
tp1593
a(I-7
I5
tp1594
a(I-7
I6
tp1595
a(I-8
I6
tp1596
a(I-9
I6
tp1597
a(I-9
I5
tp1598
a(I-10
I5
tp1599
a(I-10
I6
tp1600
a(I-11
I6
tp1601
aI0
tp1602
a((lp1603
g3
a(I1
I0
tp1604
a(I2
I0
tp1605
a(I3
I0
tp1606
a(I3
I1
tp1607
a(I2
I1
tp1608
a(I2
I2
tp1609
a(I2
I3
tp1610
a(I3
I3
tp1611
a(I3
I2
tp1612
a(I4
I2
tp1613
a(I4
I3
tp1614
a(I5
I3
tp1615
a(I5
I4
tp1616
a(I5
I5
tp1617
a(I6
I5
tp1618
a(I6
I6
tp1619
a(I6
I7
tp1620
a(I5
I7
tp1621
a(I5
I8
tp1622
a(I4
I8
tp1623
a(I4
I9
tp1624
a(I5
I9
tp1625
a(I5
I10
tp1626
aI0
tp1627
a((lp1628
g3
a(I-1
I0
tp1629
a(I-2
I0
tp1630
a(I-2
I-1
tp1631
a(I-2
I-2
tp1632
a(I-1
I-2
tp1633
a(I-1
I-1
tp1634
a(I0
I-1
tp1635
a(I1
I-1
tp1636
a(I1
I-2
tp1637
a(I2
I-2
tp1638
a(I2
I-3
tp1639
a(I3
I-3
tp1640
a(I3
I-4
tp1641
a(I4
I-4
tp1642
a(I4
I-5
tp1643
a(I4
I-6
tp1644
a(I3
I-6
tp1645
a(I3
I-5
tp1646
a(I2
I-5
tp1647
a(I2
I-6
tp1648
a(I1
I-6
tp1649
a(I0
I-6
tp1650
a(I0
I-7
tp1651
aI0
tp1652
a((lp1653
g3
a(I0
I-1
tp1654
a(I0
I-2
tp1655
a(I-1
I-2
tp1656
a(I-1
I-1
tp1657
a(I-2
I-1
tp1658
a(I-3
I-1
tp1659
a(I-3
I0
tp1660
a(I-4
I0
tp1661
a(I-4
I-1
tp1662
a(I-4
I-2
tp1663
a(I-3
I-2
tp1664
a(I-2
I-2
tp1665
a(I-2
I-3
tp1666
a(I-2
I-4
tp1667
a(I-3
I-4
tp1668
a(I-3
I-5
tp1669
a(I-4
I-5
tp1670
a(I-5
I-5
tp1671
a(I-5
I-6
tp1672
a(I-5
I-7
tp1673
a(I-4
I-7
tp1674
a(I-4
I-6
tp1675
a(I-3
I-6
tp1676
aI0
tp1677
a((lp1678
g3
a(I-1
I0
tp1679
a(I-1
I1
tp1680
a(I-1
I2
tp1681
a(I-2
I2
tp1682
a(I-3
I2
tp1683
a(I-4
I2
tp1684
a(I-5
I2
tp1685
a(I-6
I2
tp1686
a(I-6
I3
tp1687
a(I-6
I4
tp1688
a(I-7
I4
tp1689
a(I-7
I5
tp1690
a(I-7
I6
tp1691
a(I-7
I7
tp1692
a(I-6
I7
tp1693
a(I-6
I8
tp1694
a(I-6
I9
tp1695
a(I-7
I9
tp1696
a(I-7
I8
tp1697
a(I-8
I8
tp1698
a(I-8
I9
tp1699
a(I-9
I9
tp1700
a(I-9
I8
tp1701
aI0
tp1702
a((lp1703
g3
a(I0
I-1
tp1704
a(I0
I-2
tp1705
a(I-1
I-2
tp1706
a(I-2
I-2
tp1707
a(I-2
I-3
tp1708
a(I-3
I-3
tp1709
a(I-3
I-2
tp1710
a(I-3
I-1
tp1711
a(I-3
I0
tp1712
a(I-3
I1
tp1713
a(I-4
I1
tp1714
a(I-5
I1
tp1715
a(I-5
I2
tp1716
a(I-5
I3
tp1717
a(I-6
I3
tp1718
a(I-7
I3
tp1719
a(I-7
I2
tp1720
a(I-6
I2
tp1721
a(I-6
I1
tp1722
a(I-7
I1
tp1723
a(I-7
I0
tp1724
a(I-7
I-1
tp1725
a(I-7
I-2
tp1726
aI0
tp1727
a((lp1728
g3
a(I0
I-1
tp1729
a(I0
I-2
tp1730
a(I1
I-2
tp1731
a(I2
I-2
tp1732
a(I2
I-1
tp1733
a(I3
I-1
tp1734
a(I3
I-2
tp1735
a(I4
I-2
tp1736
a(I4
I-3
tp1737
a(I5
I-3
tp1738
a(I5
I-2
tp1739
a(I6
I-2
tp1740
a(I6
I-1
tp1741
a(I6
I0
tp1742
a(I5
I0
tp1743
a(I4
I0
tp1744
a(I3
I0
tp1745
a(I3
I1
tp1746
a(I2
I1
tp1747
a(I2
I2
tp1748
a(I2
I3
tp1749
a(I2
I4
tp1750
a(I3
I4
tp1751
aI0
tp1752
a((lp1753
g3
a(I-1
I0
tp1754
a(I-1
I1
tp1755
a(I0
I1
tp1756
a(I1
I1
tp1757
a(I1
I0
tp1758
a(I1
I-1
tp1759
a(I1
I-2
tp1760
a(I1
I-3
tp1761
a(I2
I-3
tp1762
a(I2
I-2
tp1763
a(I3
I-2
tp1764
a(I3
I-3
tp1765
a(I4
I-3
tp1766
a(I4
I-2
tp1767
a(I4
I-1
tp1768
a(I5
I-1
tp1769
a(I6
I-1
tp1770
a(I7
I-1
tp1771
a(I8
I-1
tp1772
a(I8
I0
tp1773
a(I9
I0
tp1774
a(I10
I0
tp1775
a(I10
I1
tp1776
aI0
tp1777
a((lp1778
g3
a(I0
I1
tp1779
a(I-1
I1
tp1780
a(I-2
I1
tp1781
a(I-2
I2
tp1782
a(I-3
I2
tp1783
a(I-3
I3
tp1784
a(I-3
I4
tp1785
a(I-2
I4
tp1786
a(I-2
I3
tp1787
a(I-1
I3
tp1788
a(I-1
I2
tp1789
a(I0
I2
tp1790
a(I1
I2
tp1791
a(I2
I2
tp1792
a(I2
I1
tp1793
a(I2
I0
tp1794
a(I2
I-1
tp1795
a(I2
I-2
tp1796
a(I3
I-2
tp1797
a(I4
I-2
tp1798
a(I4
I-3
tp1799
a(I4
I-4
tp1800
a(I4
I-5
tp1801
aI0
tp1802
a((lp1803
g3
a(I0
I1
tp1804
a(I-1
I1
tp1805
a(I-1
I0
tp1806
a(I-1
I-1
tp1807
a(I-2
I-1
tp1808
a(I-3
I-1
tp1809
a(I-4
I-1
tp1810
a(I-4
I-2
tp1811
a(I-4
I-3
tp1812
a(I-5
I-3
tp1813
a(I-5
I-4
tp1814
a(I-6
I-4
tp1815
a(I-6
I-5
tp1816
a(I-5
I-5
tp1817
a(I-5
I-6
tp1818
a(I-5
I-7
tp1819
a(I-5
I-8
tp1820
a(I-4
I-8
tp1821
a(I-4
I-7
tp1822
a(I-4
I-6
tp1823
a(I-3
I-6
tp1824
a(I-3
I-7
tp1825
a(I-2
I-7
tp1826
aI0
tp1827
a((lp1828
g3
a(I0
I1
tp1829
a(I1
I1
tp1830
a(I2
I1
tp1831
a(I2
I2
tp1832
a(I1
I2
tp1833
a(I0
I2
tp1834
a(I-1
I2
tp1835
a(I-1
I1
tp1836
a(I-1
I0
tp1837
a(I-1
I-1
tp1838
a(I-2
I-1
tp1839
a(I-3
I-1
tp1840
a(I-3
I-2
tp1841
a(I-2
I-2
tp1842
a(I-2
I-3
tp1843
a(I-1
I-3
tp1844
a(I0
I-3
tp1845
a(I0
I-2
tp1846
a(I1
I-2
tp1847
a(I1
I-3
tp1848
a(I1
I-4
tp1849
a(I2
I-4
tp1850
a(I2
I-3
tp1851
aI0
tp1852
a((lp1853
g3
a(I0
I1
tp1854
a(I0
I2
tp1855
a(I0
I3
tp1856
a(I1
I3
tp1857
a(I1
I2
tp1858
a(I1
I1
tp1859
a(I2
I1
tp1860
a(I3
I1
tp1861
a(I3
I0
tp1862
a(I4
I0
tp1863
a(I4
I1
tp1864
a(I5
I1
tp1865
a(I5
I0
tp1866
a(I5
I-1
tp1867
a(I6
I-1
tp1868
a(I7
I-1
tp1869
a(I7
I0
tp1870
a(I8
I0
tp1871
a(I8
I1
tp1872
a(I9
I1
tp1873
a(I9
I2
tp1874
a(I8
I2
tp1875
a(I7
I2
tp1876
aI0
tp1877
a((lp1878
g3
a(I0
I-1
tp1879
a(I1
I-1
tp1880
a(I1
I0
tp1881
a(I1
I1
tp1882
a(I2
I1
tp1883
a(I2
I0
tp1884
a(I3
I0
tp1885
a(I4
I0
tp1886
a(I4
I1
tp1887
a(I3
I1
tp1888
a(I3
I2
tp1889
a(I2
I2
tp1890
a(I1
I2
tp1891
a(I1
I3
tp1892
a(I1
I4
tp1893
a(I2
I4
tp1894
a(I3
I4
tp1895
a(I3
I5
tp1896
a(I3
I6
tp1897
a(I3
I7
tp1898
a(I2
I7
tp1899
a(I2
I8
tp1900
a(I1
I8
tp1901
aI0
tp1902
a((lp1903
g3
a(I0
I-1
tp1904
a(I0
I-2
tp1905
a(I1
I-2
tp1906
a(I2
I-2
tp1907
a(I2
I-1
tp1908
a(I3
I-1
tp1909
a(I4
I-1
tp1910
a(I5
I-1
tp1911
a(I6
I-1
tp1912
a(I6
I-2
tp1913
a(I6
I-3
tp1914
a(I6
I-4
tp1915
a(I5
I-4
tp1916
a(I4
I-4
tp1917
a(I4
I-5
tp1918
a(I4
I-6
tp1919
a(I4
I-7
tp1920
a(I3
I-7
tp1921
a(I3
I-6
tp1922
a(I2
I-6
tp1923
a(I2
I-7
tp1924
a(I1
I-7
tp1925
a(I0
I-7
tp1926
aI0
tp1927
a((lp1928
g3
a(I1
I0
tp1929
a(I1
I-1
tp1930
a(I0
I-1
tp1931
a(I0
I-2
tp1932
a(I-1
I-2
tp1933
a(I-2
I-2
tp1934
a(I-3
I-2
tp1935
a(I-3
I-3
tp1936
a(I-2
I-3
tp1937
a(I-1
I-3
tp1938
a(I0
I-3
tp1939
a(I1
I-3
tp1940
a(I1
I-2
tp1941
a(I2
I-2
tp1942
a(I3
I-2
tp1943
a(I4
I-2
tp1944
a(I4
I-3
tp1945
a(I3
I-3
tp1946
a(I2
I-3
tp1947
a(I2
I-4
tp1948
a(I3
I-4
tp1949
a(I3
I-5
tp1950
a(I3
I-6
tp1951
aI0
tp1952
a((lp1953
g3
a(I0
I1
tp1954
a(I1
I1
tp1955
a(I1
I2
tp1956
a(I1
I3
tp1957
a(I0
I3
tp1958
a(I-1
I3
tp1959
a(I-2
I3
tp1960
a(I-2
I2
tp1961
a(I-3
I2
tp1962
a(I-3
I1
tp1963
a(I-2
I1
tp1964
a(I-1
I1
tp1965
a(I-1
I0
tp1966
a(I-2
I0
tp1967
a(I-2
I-1
tp1968
a(I-3
I-1
tp1969
a(I-3
I0
tp1970
a(I-4
I0
tp1971
a(I-4
I1
tp1972
a(I-5
I1
tp1973
a(I-5
I2
tp1974
a(I-5
I3
tp1975
a(I-5
I4
tp1976
aI0
tp1977
a((lp1978
g3
a(I0
I1
tp1979
a(I0
I2
tp1980
a(I0
I3
tp1981
a(I-1
I3
tp1982
a(I-2
I3
tp1983
a(I-3
I3
tp1984
a(I-4
I3
tp1985
a(I-5
I3
tp1986
a(I-6
I3
tp1987
a(I-6
I4
tp1988
a(I-7
I4
tp1989
a(I-7
I3
tp1990
a(I-8
I3
tp1991
a(I-8
I2
tp1992
a(I-7
I2
tp1993
a(I-6
I2
tp1994
a(I-6
I1
tp1995
a(I-5
I1
tp1996
a(I-5
I2
tp1997
a(I-4
I2
tp1998
a(I-3
I2
tp1999
a(I-2
I2
tp2000
a(I-2
I1
tp2001
aI0
tp2002
a((lp2003
g3
a(I0
I1
tp2004
a(I1
I1
tp2005
a(I1
I0
tp2006
a(I2
I0
tp2007
a(I2
I-1
tp2008
a(I1
I-1
tp2009
a(I1
I-2
tp2010
a(I1
I-3
tp2011
a(I0
I-3
tp2012
a(I0
I-4
tp2013
a(I1
I-4
tp2014
a(I2
I-4
tp2015
a(I3
I-4
tp2016
a(I3
I-3
tp2017
a(I2
I-3
tp2018
a(I2
I-2
tp2019
a(I3
I-2
tp2020
a(I3
I-1
tp2021
a(I4
I-1
tp2022
a(I5
I-1
tp2023
a(I6
I-1
tp2024
a(I6
I-2
tp2025
a(I5
I-2
tp2026
aI0
tp2027
a((lp2028
g3
a(I-1
I0
tp2029
a(I-1
I1
tp2030
a(I-1
I2
tp2031
a(I-1
I3
tp2032
a(I0
I3
tp2033
a(I0
I2
tp2034
a(I0
I1
tp2035
a(I1
I1
tp2036
a(I2
I1
tp2037
a(I2
I2
tp2038
a(I3
I2
tp2039
a(I3
I1
tp2040
a(I4
I1
tp2041
a(I4
I0
tp2042
a(I4
I-1
tp2043
a(I5
I-1
tp2044
a(I5
I0
tp2045
a(I6
I0
tp2046
a(I6
I1
tp2047
a(I5
I1
tp2048
a(I5
I2
tp2049
a(I6
I2
tp2050
a(I7
I2
tp2051
aI0
tp2052
a((lp2053
g3
a(I-1
I0
tp2054
a(I-1
I1
tp2055
a(I0
I1
tp2056
a(I0
I2
tp2057
a(I1
I2
tp2058
a(I1
I1
tp2059
a(I1
I0
tp2060
a(I1
I-1
tp2061
a(I0
I-1
tp2062
a(I-1
I-1
tp2063
a(I-2
I-1
tp2064
a(I-3
I-1
tp2065
a(I-3
I-2
tp2066
a(I-2
I-2
tp2067
a(I-2
I-3
tp2068
a(I-1
I-3
tp2069
a(I-1
I-4
tp2070
a(I0
I-4
tp2071
a(I0
I-5
tp2072
a(I1
I-5
tp2073
a(I2
I-5
tp2074
a(I3
I-5
tp2075
a(I3
I-4
tp2076
aI0
tp2077
a((lp2078
g3
a(I0
I-1
tp2079
a(I-1
I-1
tp2080
a(I-1
I-2
tp2081
a(I-1
I-3
tp2082
a(I0
I-3
tp2083
a(I1
I-3
tp2084
a(I1
I-2
tp2085
a(I2
I-2
tp2086
a(I3
I-2
tp2087
a(I3
I-1
tp2088
a(I2
I-1
tp2089
a(I2
I0
tp2090
a(I1
I0
tp2091
a(I1
I1
tp2092
a(I2
I1
tp2093
a(I2
I2
tp2094
a(I1
I2
tp2095
a(I1
I3
tp2096
a(I1
I4
tp2097
a(I1
I5
tp2098
a(I0
I5
tp2099
a(I0
I4
tp2100
a(I-1
I4
tp2101
aI0
tp2102
a((lp2103
g3
a(I-1
I0
tp2104
a(I-1
I1
tp2105
a(I-1
I2
tp2106
a(I0
I2
tp2107
a(I0
I3
tp2108
a(I1
I3
tp2109
a(I1
I2
tp2110
a(I2
I2
tp2111
a(I2
I3
tp2112
a(I3
I3
tp2113
a(I4
I3
tp2114
a(I4
I2
tp2115
a(I5
I2
tp2116
a(I6
I2
tp2117
a(I7
I2
tp2118
a(I7
I1
tp2119
a(I7
I0
tp2120
a(I7
I-1
tp2121
a(I8
I-1
tp2122
a(I8
I-2
tp2123
a(I7
I-2
tp2124
a(I7
I-3
tp2125
a(I8
I-3
tp2126
aI0
tp2127
a((lp2128
g3
a(I-1
I0
tp2129
a(I-1
I-1
tp2130
a(I-1
I-2
tp2131
a(I0
I-2
tp2132
a(I0
I-1
tp2133
a(I1
I-1
tp2134
a(I1
I-2
tp2135
a(I2
I-2
tp2136
a(I2
I-1
tp2137
a(I3
I-1
tp2138
a(I4
I-1
tp2139
a(I4
I0
tp2140
a(I3
I0
tp2141
a(I2
I0
tp2142
a(I1
I0
tp2143
a(I1
I1
tp2144
a(I2
I1
tp2145
a(I3
I1
tp2146
a(I4
I1
tp2147
a(I5
I1
tp2148
a(I5
I0
tp2149
a(I5
I-1
tp2150
a(I6
I-1
tp2151
aI0
tp2152
a((lp2153
g3
a(I0
I1
tp2154
a(I1
I1
tp2155
a(I2
I1
tp2156
a(I2
I0
tp2157
a(I1
I0
tp2158
a(I1
I-1
tp2159
a(I2
I-1
tp2160
a(I3
I-1
tp2161
a(I4
I-1
tp2162
a(I4
I-2
tp2163
a(I5
I-2
tp2164
a(I5
I-3
tp2165
a(I5
I-4
tp2166
a(I6
I-4
tp2167
a(I6
I-3
tp2168
a(I6
I-2
tp2169
a(I7
I-2
tp2170
a(I7
I-1
tp2171
a(I6
I-1
tp2172
a(I5
I-1
tp2173
a(I5
I0
tp2174
a(I6
I0
tp2175
a(I6
I1
tp2176
aI0
tp2177
a((lp2178
g3
a(I1
I0
tp2179
a(I1
I1
tp2180
a(I2
I1
tp2181
a(I3
I1
tp2182
a(I3
I2
tp2183
a(I2
I2
tp2184
a(I2
I3
tp2185
a(I1
I3
tp2186
a(I1
I2
tp2187
a(I0
I2
tp2188
a(I0
I1
tp2189
a(I-1
I1
tp2190
a(I-2
I1
tp2191
a(I-3
I1
tp2192
a(I-4
I1
tp2193
a(I-5
I1
tp2194
a(I-5
I2
tp2195
a(I-5
I3
tp2196
a(I-4
I3
tp2197
a(I-4
I4
tp2198
a(I-5
I4
tp2199
a(I-5
I5
tp2200
a(I-6
I5
tp2201
aI0
tp2202
a((lp2203
g3
a(I-1
I0
tp2204
a(I-1
I1
tp2205
a(I-2
I1
tp2206
a(I-2
I0
tp2207
a(I-3
I0
tp2208
a(I-3
I1
tp2209
a(I-4
I1
tp2210
a(I-5
I1
tp2211
a(I-5
I0
tp2212
a(I-6
I0
tp2213
a(I-6
I-1
tp2214
a(I-5
I-1
tp2215
a(I-4
I-1
tp2216
a(I-4
I-2
tp2217
a(I-4
I-3
tp2218
a(I-3
I-3
tp2219
a(I-2
I-3
tp2220
a(I-1
I-3
tp2221
a(I-1
I-4
tp2222
a(I-2
I-4
tp2223
a(I-3
I-4
tp2224
a(I-3
I-5
tp2225
a(I-2
I-5
tp2226
aI0
tp2227
a((lp2228
g3
a(I1
I0
tp2229
a(I1
I-1
tp2230
a(I1
I-2
tp2231
a(I2
I-2
tp2232
a(I3
I-2
tp2233
a(I3
I-3
tp2234
a(I2
I-3
tp2235
a(I1
I-3
tp2236
a(I1
I-4
tp2237
a(I0
I-4
tp2238
a(I0
I-3
tp2239
a(I0
I-2
tp2240
a(I-1
I-2
tp2241
a(I-1
I-1
tp2242
a(I-2
I-1
tp2243
a(I-2
I-2
tp2244
a(I-3
I-2
tp2245
a(I-3
I-3
tp2246
a(I-2
I-3
tp2247
a(I-1
I-3
tp2248
a(I-1
I-4
tp2249
a(I-2
I-4
tp2250
a(I-2
I-5
tp2251
aI0
tp2252
a((lp2253
g3
a(I-1
I0
tp2254
a(I-1
I1
tp2255
a(I0
I1
tp2256
a(I1
I1
tp2257
a(I1
I2
tp2258
a(I0
I2
tp2259
a(I0
I3
tp2260
a(I0
I4
tp2261
a(I-1
I4
tp2262
a(I-2
I4
tp2263
a(I-2
I3
tp2264
a(I-1
I3
tp2265
a(I-1
I2
tp2266
a(I-2
I2
tp2267
a(I-3
I2
tp2268
a(I-4
I2
tp2269
a(I-5
I2
tp2270
a(I-6
I2
tp2271
a(I-7
I2
tp2272
a(I-7
I3
tp2273
a(I-7
I4
tp2274
a(I-6
I4
tp2275
a(I-6
I5
tp2276
aI0
tp2277
a((lp2278
g3
a(I1
I0
tp2279
a(I1
I-1
tp2280
a(I2
I-1
tp2281
a(I2
I0
tp2282
a(I2
I1
tp2283
a(I3
I1
tp2284
a(I3
I2
tp2285
a(I2
I2
tp2286
a(I1
I2
tp2287
a(I1
I3
tp2288
a(I1
I4
tp2289
a(I0
I4
tp2290
a(I0
I3
tp2291
a(I-1
I3
tp2292
a(I-2
I3
tp2293
a(I-2
I4
tp2294
a(I-2
I5
tp2295
a(I-1
I5
tp2296
a(I0
I5
tp2297
a(I1
I5
tp2298
a(I1
I6
tp2299
a(I2
I6
tp2300
a(I2
I5
tp2301
aI0
tp2302
a((lp2303
g3
a(I0
I1
tp2304
a(I-1
I1
tp2305
a(I-2
I1
tp2306
a(I-2
I0
tp2307
a(I-2
I-1
tp2308
a(I-3
I-1
tp2309
a(I-3
I-2
tp2310
a(I-3
I-3
tp2311
a(I-3
I-4
tp2312
a(I-2
I-4
tp2313
a(I-2
I-5
tp2314
a(I-2
I-6
tp2315
a(I-1
I-6
tp2316
a(I-1
I-7
tp2317
a(I-1
I-8
tp2318
a(I-1
I-9
tp2319
a(I0
I-9
tp2320
a(I1
I-9
tp2321
a(I1
I-10
tp2322
a(I2
I-10
tp2323
a(I2
I-9
tp2324
a(I3
I-9
tp2325
a(I3
I-10
tp2326
aI0
tp2327
a((lp2328
g3
a(I0
I1
tp2329
a(I-1
I1
tp2330
a(I-2
I1
tp2331
a(I-3
I1
tp2332
a(I-4
I1
tp2333
a(I-4
I0
tp2334
a(I-3
I0
tp2335
a(I-3
I-1
tp2336
a(I-4
I-1
tp2337
a(I-4
I-2
tp2338
a(I-4
I-3
tp2339
a(I-4
I-4
tp2340
a(I-5
I-4
tp2341
a(I-5
I-5
tp2342
a(I-4
I-5
tp2343
a(I-3
I-5
tp2344
a(I-3
I-4
tp2345
a(I-3
I-3
tp2346
a(I-3
I-2
tp2347
a(I-2
I-2
tp2348
a(I-2
I-3
tp2349
a(I-2
I-4
tp2350
a(I-1
I-4
tp2351
aI0
tp2352
a((lp2353
g3
a(I-1
I0
tp2354
a(I-2
I0
tp2355
a(I-2
I1
tp2356
a(I-3
I1
tp2357
a(I-4
I1
tp2358
a(I-5
I1
tp2359
a(I-5
I0
tp2360
a(I-6
I0
tp2361
a(I-6
I1
tp2362
a(I-6
I2
tp2363
a(I-7
I2
tp2364
a(I-7
I1
tp2365
a(I-8
I1
tp2366
a(I-8
I0
tp2367
a(I-7
I0
tp2368
a(I-7
I-1
tp2369
a(I-8
I-1
tp2370
a(I-8
I-2
tp2371
a(I-9
I-2
tp2372
a(I-9
I-3
tp2373
a(I-9
I-4
tp2374
a(I-9
I-5
tp2375
a(I-10
I-5
tp2376
aI0
tp2377
a((lp2378
g3
a(I0
I1
tp2379
a(I-1
I1
tp2380
a(I-2
I1
tp2381
a(I-2
I0
tp2382
a(I-3
I0
tp2383
a(I-3
I-1
tp2384
a(I-3
I-2
tp2385
a(I-4
I-2
tp2386
a(I-4
I-3
tp2387
a(I-5
I-3
tp2388
a(I-5
I-4
tp2389
a(I-5
I-5
tp2390
a(I-6
I-5
tp2391
a(I-7
I-5
tp2392
a(I-7
I-6
tp2393
a(I-6
I-6
tp2394
a(I-6
I-7
tp2395
a(I-7
I-7
tp2396
a(I-8
I-7
tp2397
a(I-8
I-8
tp2398
a(I-7
I-8
tp2399
a(I-6
I-8
tp2400
a(I-6
I-9
tp2401
aI0
tp2402
a((lp2403
g3
a(I1
I0
tp2404
a(I1
I-1
tp2405
a(I2
I-1
tp2406
a(I2
I-2
tp2407
a(I3
I-2
tp2408
a(I3
I-1
tp2409
a(I3
I0
tp2410
a(I3
I1
tp2411
a(I4
I1
tp2412
a(I4
I0
tp2413
a(I4
I-1
tp2414
a(I4
I-2
tp2415
a(I4
I-3
tp2416
a(I4
I-4
tp2417
a(I4
I-5
tp2418
a(I4
I-6
tp2419
a(I3
I-6
tp2420
a(I2
I-6
tp2421
a(I2
I-7
tp2422
a(I2
I-8
tp2423
a(I2
I-9
tp2424
a(I1
I-9
tp2425
a(I1
I-10
tp2426
aI0
tp2427
a((lp2428
g3
a(I0
I1
tp2429
a(I-1
I1
tp2430
a(I-1
I2
tp2431
a(I-2
I2
tp2432
a(I-3
I2
tp2433
a(I-3
I1
tp2434
a(I-4
I1
tp2435
a(I-4
I2
tp2436
a(I-4
I3
tp2437
a(I-3
I3
tp2438
a(I-2
I3
tp2439
a(I-2
I4
tp2440
a(I-3
I4
tp2441
a(I-4
I4
tp2442
a(I-5
I4
tp2443
a(I-6
I4
tp2444
a(I-7
I4
tp2445
a(I-8
I4
tp2446
a(I-8
I3
tp2447
a(I-7
I3
tp2448
a(I-6
I3
tp2449
a(I-6
I2
tp2450
a(I-6
I1
tp2451
aI0
tp2452
a((lp2453
g3
a(I1
I0
tp2454
a(I1
I1
tp2455
a(I2
I1
tp2456
a(I2
I2
tp2457
a(I2
I3
tp2458
a(I1
I3
tp2459
a(I1
I2
tp2460
a(I0
I2
tp2461
a(I0
I3
tp2462
a(I0
I4
tp2463
a(I-1
I4
tp2464
a(I-1
I5
tp2465
a(I0
I5
tp2466
a(I1
I5
tp2467
a(I1
I6
tp2468
a(I0
I6
tp2469
a(I-1
I6
tp2470
a(I-1
I7
tp2471
a(I-2
I7
tp2472
a(I-2
I8
tp2473
a(I-1
I8
tp2474
a(I-1
I9
tp2475
a(I-2
I9
tp2476
aI0
tp2477
a((lp2478
g3
a(I0
I1
tp2479
a(I1
I1
tp2480
a(I1
I0
tp2481
a(I1
I-1
tp2482
a(I0
I-1
tp2483
a(I0
I-2
tp2484
a(I-1
I-2
tp2485
a(I-1
I-1
tp2486
a(I-2
I-1
tp2487
a(I-3
I-1
tp2488
a(I-3
I0
tp2489
a(I-2
I0
tp2490
a(I-2
I1
tp2491
a(I-2
I2
tp2492
a(I-3
I2
tp2493
a(I-3
I1
tp2494
a(I-4
I1
tp2495
a(I-5
I1
tp2496
a(I-5
I2
tp2497
a(I-6
I2
tp2498
a(I-6
I1
tp2499
a(I-6
I0
tp2500
a(I-6
I-1
tp2501
aI0
tp2502
a((lp2503
g3
a(I-1
I0
tp2504
a(I-1
I1
tp2505
a(I-2
I1
tp2506
a(I-2
I0
tp2507
a(I-3
I0
tp2508
a(I-3
I-1
tp2509
a(I-2
I-1
tp2510
a(I-1
I-1
tp2511
a(I-1
I-2
tp2512
a(I0
I-2
tp2513
a(I0
I-3
tp2514
a(I-1
I-3
tp2515
a(I-2
I-3
tp2516
a(I-3
I-3
tp2517
a(I-3
I-4
tp2518
a(I-4
I-4
tp2519
a(I-4
I-5
tp2520
a(I-4
I-6
tp2521
a(I-5
I-6
tp2522
a(I-6
I-6
tp2523
a(I-7
I-6
tp2524
a(I-7
I-5
tp2525
a(I-8
I-5
tp2526
aI0
tp2527
a((lp2528
g3
a(I0
I-1
tp2529
a(I0
I-2
tp2530
a(I0
I-3
tp2531
a(I0
I-4
tp2532
a(I0
I-5
tp2533
a(I-1
I-5
tp2534
a(I-1
I-4
tp2535
a(I-1
I-3
tp2536
a(I-2
I-3
tp2537
a(I-3
I-3
tp2538
a(I-3
I-4
tp2539
a(I-4
I-4
tp2540
a(I-4
I-3
tp2541
a(I-5
I-3
tp2542
a(I-5
I-4
tp2543
a(I-5
I-5
tp2544
a(I-6
I-5
tp2545
a(I-6
I-4
tp2546
a(I-7
I-4
tp2547
a(I-7
I-3
tp2548
a(I-8
I-3
tp2549
a(I-9
I-3
tp2550
a(I-10
I-3
tp2551
aI0
tp2552
a((lp2553
g3
a(I0
I-1
tp2554
a(I-1
I-1
tp2555
a(I-1
I-2
tp2556
a(I-2
I-2
tp2557
a(I-3
I-2
tp2558
a(I-3
I-1
tp2559
a(I-4
I-1
tp2560
a(I-4
I-2
tp2561
a(I-5
I-2
tp2562
a(I-6
I-2
tp2563
a(I-7
I-2
tp2564
a(I-8
I-2
tp2565
a(I-9
I-2
tp2566
a(I-9
I-3
tp2567
a(I-8
I-3
tp2568
a(I-8
I-4
tp2569
a(I-8
I-5
tp2570
a(I-9
I-5
tp2571
a(I-9
I-6
tp2572
a(I-10
I-6
tp2573
a(I-10
I-5
tp2574
a(I-10
I-4
tp2575
a(I-10
I-3
tp2576
aI0
tp2577
a((lp2578
g3
a(I0
I1
tp2579
a(I1
I1
tp2580
a(I1
I0
tp2581
a(I2
I0
tp2582
a(I2
I1
tp2583
a(I2
I2
tp2584
a(I2
I3
tp2585
a(I2
I4
tp2586
a(I2
I5
tp2587
a(I3
I5
tp2588
a(I3
I4
tp2589
a(I3
I3
tp2590
a(I3
I2
tp2591
a(I3
I1
tp2592
a(I4
I1
tp2593
a(I5
I1
tp2594
a(I5
I2
tp2595
a(I4
I2
tp2596
a(I4
I3
tp2597
a(I4
I4
tp2598
a(I4
I5
tp2599
a(I4
I6
tp2600
a(I5
I6
tp2601
aI0
tp2602
a((lp2603
g3
a(I0
I1
tp2604
a(I-1
I1
tp2605
a(I-1
I0
tp2606
a(I-2
I0
tp2607
a(I-2
I1
tp2608
a(I-3
I1
tp2609
a(I-4
I1
tp2610
a(I-4
I2
tp2611
a(I-5
I2
tp2612
a(I-6
I2
tp2613
a(I-6
I3
tp2614
a(I-6
I4
tp2615
a(I-5
I4
tp2616
a(I-4
I4
tp2617
a(I-3
I4
tp2618
a(I-3
I5
tp2619
a(I-2
I5
tp2620
a(I-2
I4
tp2621
a(I-2
I3
tp2622
a(I-2
I2
tp2623
a(I-3
I2
tp2624
a(I-3
I3
tp2625
a(I-4
I3
tp2626
aI0
tp2627
a((lp2628
g3
a(I0
I-1
tp2629
a(I1
I-1
tp2630
a(I2
I-1
tp2631
a(I2
I-2
tp2632
a(I1
I-2
tp2633
a(I1
I-3
tp2634
a(I2
I-3
tp2635
a(I2
I-4
tp2636
a(I3
I-4
tp2637
a(I3
I-5
tp2638
a(I4
I-5
tp2639
a(I4
I-6
tp2640
a(I5
I-6
tp2641
a(I5
I-7
tp2642
a(I4
I-7
tp2643
a(I4
I-8
tp2644
a(I3
I-8
tp2645
a(I3
I-7
tp2646
a(I2
I-7
tp2647
a(I1
I-7
tp2648
a(I1
I-6
tp2649
a(I0
I-6
tp2650
a(I0
I-7
tp2651
aI0
tp2652
a((lp2653
g3
a(I0
I-1
tp2654
a(I1
I-1
tp2655
a(I2
I-1
tp2656
a(I2
I0
tp2657
a(I1
I0
tp2658
a(I1
I1
tp2659
a(I0
I1
tp2660
a(I0
I2
tp2661
a(I0
I3
tp2662
a(I1
I3
tp2663
a(I2
I3
tp2664
a(I2
I4
tp2665
a(I2
I5
tp2666
a(I3
I5
tp2667
a(I3
I6
tp2668
a(I2
I6
tp2669
a(I1
I6
tp2670
a(I1
I7
tp2671
a(I0
I7
tp2672
a(I-1
I7
tp2673
a(I-2
I7
tp2674
a(I-2
I8
tp2675
a(I-1
I8
tp2676
aI0
tp2677
a((lp2678
g3
a(I-1
I0
tp2679
a(I-2
I0
tp2680
a(I-2
I-1
tp2681
a(I-1
I-1
tp2682
a(I0
I-1
tp2683
a(I1
I-1
tp2684
a(I1
I-2
tp2685
a(I0
I-2
tp2686
a(I-1
I-2
tp2687
a(I-2
I-2
tp2688
a(I-2
I-3
tp2689
a(I-1
I-3
tp2690
a(I-1
I-4
tp2691
a(I0
I-4
tp2692
a(I1
I-4
tp2693
a(I2
I-4
tp2694
a(I2
I-5
tp2695
a(I2
I-6
tp2696
a(I2
I-7
tp2697
a(I1
I-7
tp2698
a(I1
I-6
tp2699
a(I0
I-6
tp2700
a(I0
I-7
tp2701
aI0
tp2702
a((lp2703
g3
a(I0
I-1
tp2704
a(I1
I-1
tp2705
a(I1
I-2
tp2706
a(I2
I-2
tp2707
a(I2
I-1
tp2708
a(I2
I0
tp2709
a(I1
I0
tp2710
a(I1
I1
tp2711
a(I1
I2
tp2712
a(I2
I2
tp2713
a(I2
I3
tp2714
a(I3
I3
tp2715
a(I3
I2
tp2716
a(I3
I1
tp2717
a(I3
I0
tp2718
a(I4
I0
tp2719
a(I4
I1
tp2720
a(I5
I1
tp2721
a(I5
I0
tp2722
a(I6
I0
tp2723
a(I6
I-1
tp2724
a(I6
I-2
tp2725
a(I5
I-2
tp2726
aI0
tp2727
a((lp2728
g3
a(I0
I-1
tp2729
a(I-1
I-1
tp2730
a(I-1
I0
tp2731
a(I-1
I1
tp2732
a(I-1
I2
tp2733
a(I-2
I2
tp2734
a(I-2
I1
tp2735
a(I-2
I0
tp2736
a(I-2
I-1
tp2737
a(I-2
I-2
tp2738
a(I-2
I-3
tp2739
a(I-2
I-4
tp2740
a(I-2
I-5
tp2741
a(I-2
I-6
tp2742
a(I-3
I-6
tp2743
a(I-3
I-7
tp2744
a(I-3
I-8
tp2745
a(I-4
I-8
tp2746
a(I-5
I-8
tp2747
a(I-5
I-7
tp2748
a(I-4
I-7
tp2749
a(I-4
I-6
tp2750
a(I-5
I-6
tp2751
aI0
tp2752
a((lp2753
g3
a(I0
I-1
tp2754
a(I-1
I-1
tp2755
a(I-1
I-2
tp2756
a(I-2
I-2
tp2757
a(I-2
I-1
tp2758
a(I-3
I-1
tp2759
a(I-3
I0
tp2760
a(I-3
I1
tp2761
a(I-2
I1
tp2762
a(I-2
I2
tp2763
a(I-1
I2
tp2764
a(I0
I2
tp2765
a(I0
I3
tp2766
a(I-1
I3
tp2767
a(I-1
I4
tp2768
a(I-2
I4
tp2769
a(I-3
I4
tp2770
a(I-4
I4
tp2771
a(I-4
I3
tp2772
a(I-4
I2
tp2773
a(I-5
I2
tp2774
a(I-5
I3
tp2775
a(I-5
I4
tp2776
aI0
tp2777
a((lp2778
g3
a(I-1
I0
tp2779
a(I-1
I-1
tp2780
a(I-1
I-2
tp2781
a(I-1
I-3
tp2782
a(I0
I-3
tp2783
a(I0
I-2
tp2784
a(I0
I-1
tp2785
a(I1
I-1
tp2786
a(I2
I-1
tp2787
a(I2
I-2
tp2788
a(I1
I-2
tp2789
a(I1
I-3
tp2790
a(I1
I-4
tp2791
a(I2
I-4
tp2792
a(I2
I-5
tp2793
a(I1
I-5
tp2794
a(I1
I-6
tp2795
a(I1
I-7
tp2796
a(I2
I-7
tp2797
a(I3
I-7
tp2798
a(I3
I-8
tp2799
a(I4
I-8
tp2800
a(I4
I-9
tp2801
aI0
tp2802
a((lp2803
g3
a(I-1
I0
tp2804
a(I-1
I-1
tp2805
a(I-2
I-1
tp2806
a(I-3
I-1
tp2807
a(I-4
I-1
tp2808
a(I-4
I0
tp2809
a(I-3
I0
tp2810
a(I-3
I1
tp2811
a(I-3
I2
tp2812
a(I-4
I2
tp2813
a(I-5
I2
tp2814
a(I-6
I2
tp2815
a(I-6
I3
tp2816
a(I-7
I3
tp2817
a(I-8
I3
tp2818
a(I-8
I4
tp2819
a(I-8
I5
tp2820
a(I-7
I5
tp2821
a(I-6
I5
tp2822
a(I-6
I6
tp2823
a(I-7
I6
tp2824
a(I-8
I6
tp2825
a(I-8
I7
tp2826
aI0
tp2827
a((lp2828
g3
a(I0
I-1
tp2829
a(I-1
I-1
tp2830
a(I-2
I-1
tp2831
a(I-3
I-1
tp2832
a(I-3
I0
tp2833
a(I-3
I1
tp2834
a(I-2
I1
tp2835
a(I-1
I1
tp2836
a(I0
I1
tp2837
a(I1
I1
tp2838
a(I2
I1
tp2839
a(I2
I0
tp2840
a(I2
I-1
tp2841
a(I2
I-2
tp2842
a(I3
I-2
tp2843
a(I3
I-3
tp2844
a(I4
I-3
tp2845
a(I4
I-4
tp2846
a(I3
I-4
tp2847
a(I2
I-4
tp2848
a(I1
I-4
tp2849
a(I1
I-3
tp2850
a(I1
I-2
tp2851
aI0
tp2852
a((lp2853
g3
a(I0
I1
tp2854
a(I-1
I1
tp2855
a(I-2
I1
tp2856
a(I-2
I2
tp2857
a(I-2
I3
tp2858
a(I-1
I3
tp2859
a(I0
I3
tp2860
a(I1
I3
tp2861
a(I1
I4
tp2862
a(I2
I4
tp2863
a(I2
I5
tp2864
a(I1
I5
tp2865
a(I1
I6
tp2866
a(I0
I6
tp2867
a(I0
I5
tp2868
a(I0
I4
tp2869
a(I-1
I4
tp2870
a(I-1
I5
tp2871
a(I-1
I6
tp2872
a(I-1
I7
tp2873
a(I-1
I8
tp2874
a(I-2
I8
tp2875
a(I-2
I9
tp2876
aI0
tp2877
a((lp2878
g3
a(I0
I-1
tp2879
a(I-1
I-1
tp2880
a(I-1
I0
tp2881
a(I-2
I0
tp2882
a(I-2
I1
tp2883
a(I-2
I2
tp2884
a(I-3
I2
tp2885
a(I-3
I3
tp2886
a(I-3
I4
tp2887
a(I-2
I4
tp2888
a(I-2
I5
tp2889
a(I-3
I5
tp2890
a(I-3
I6
tp2891
a(I-4
I6
tp2892
a(I-5
I6
tp2893
a(I-5
I7
tp2894
a(I-4
I7
tp2895
a(I-3
I7
tp2896
a(I-2
I7
tp2897
a(I-2
I6
tp2898
a(I-1
I6
tp2899
a(I0
I6
tp2900
a(I0
I5
tp2901
aI0
tp2902
a((lp2903
g3
a(I0
I-1
tp2904
a(I0
I-2
tp2905
a(I-1
I-2
tp2906
a(I-1
I-1
tp2907
a(I-2
I-1
tp2908
a(I-2
I0
tp2909
a(I-3
I0
tp2910
a(I-4
I0
tp2911
a(I-4
I-1
tp2912
a(I-3
I-1
tp2913
a(I-3
I-2
tp2914
a(I-4
I-2
tp2915
a(I-5
I-2
tp2916
a(I-6
I-2
tp2917
a(I-6
I-3
tp2918
a(I-6
I-4
tp2919
a(I-6
I-5
tp2920
a(I-6
I-6
tp2921
a(I-7
I-6
tp2922
a(I-7
I-5
tp2923
a(I-8
I-5
tp2924
a(I-8
I-6
tp2925
a(I-8
I-7
tp2926
aI0
tp2927
a((lp2928
g3
a(I-1
I0
tp2929
a(I-1
I-1
tp2930
a(I0
I-1
tp2931
a(I1
I-1
tp2932
a(I2
I-1
tp2933
a(I2
I0
tp2934
a(I1
I0
tp2935
a(I1
I1
tp2936
a(I2
I1
tp2937
a(I3
I1
tp2938
a(I4
I1
tp2939
a(I4
I2
tp2940
a(I4
I3
tp2941
a(I4
I4
tp2942
a(I3
I4
tp2943
a(I2
I4
tp2944
a(I2
I5
tp2945
a(I1
I5
tp2946
a(I1
I4
tp2947
a(I1
I3
tp2948
a(I1
I2
tp2949
a(I0
I2
tp2950
a(I0
I3
tp2951
aI0
tp2952
a((lp2953
g3
a(I0
I1
tp2954
a(I1
I1
tp2955
a(I1
I2
tp2956
a(I2
I2
tp2957
a(I3
I2
tp2958
a(I3
I1
tp2959
a(I3
I0
tp2960
a(I3
I-1
tp2961
a(I3
I-2
tp2962
a(I2
I-2
tp2963
a(I2
I-1
tp2964
a(I2
I0
tp2965
a(I1
I0
tp2966
a(I1
I-1
tp2967
a(I0
I-1
tp2968
a(I-1
I-1
tp2969
a(I-1
I-2
tp2970
a(I-1
I-3
tp2971
a(I-1
I-4
tp2972
a(I-1
I-5
tp2973
a(I-1
I-6
tp2974
a(I-1
I-7
tp2975
a(I-2
I-7
tp2976
aI0
tp2977
a((lp2978
g3
a(I-1
I0
tp2979
a(I-2
I0
tp2980
a(I-3
I0
tp2981
a(I-3
I1
tp2982
a(I-3
I2
tp2983
a(I-2
I2
tp2984
a(I-1
I2
tp2985
a(I-1
I1
tp2986
a(I0
I1
tp2987
a(I0
I2
tp2988
a(I0
I3
tp2989
a(I0
I4
tp2990
a(I1
I4
tp2991
a(I2
I4
tp2992
a(I2
I5
tp2993
a(I1
I5
tp2994
a(I1
I6
tp2995
a(I1
I7
tp2996
a(I0
I7
tp2997
a(I0
I8
tp2998
a(I1
I8
tp2999
a(I2
I8
tp3000
a(I2
I7
tp3001
aI0
tp3002
a((lp3003
g3
a(I0
I-1
tp3004
a(I-1
I-1
tp3005
a(I-2
I-1
tp3006
a(I-2
I0
tp3007
a(I-3
I0
tp3008
a(I-3
I1
tp3009
a(I-3
I2
tp3010
a(I-2
I2
tp3011
a(I-2
I1
tp3012
a(I-1
I1
tp3013
a(I0
I1
tp3014
a(I0
I2
tp3015
a(I-1
I2
tp3016
a(I-1
I3
tp3017
a(I0
I3
tp3018
a(I1
I3
tp3019
a(I2
I3
tp3020
a(I2
I2
tp3021
a(I1
I2
tp3022
a(I1
I1
tp3023
a(I2
I1
tp3024
a(I3
I1
tp3025
a(I3
I0
tp3026
aI0
tp3027
a((lp3028
g3
a(I0
I1
tp3029
a(I-1
I1
tp3030
a(I-2
I1
tp3031
a(I-2
I2
tp3032
a(I-3
I2
tp3033
a(I-3
I1
tp3034
a(I-4
I1
tp3035
a(I-4
I0
tp3036
a(I-5
I0
tp3037
a(I-5
I-1
tp3038
a(I-4
I-1
tp3039
a(I-4
I-2
tp3040
a(I-4
I-3
tp3041
a(I-5
I-3
tp3042
a(I-6
I-3
tp3043
a(I-7
I-3
tp3044
a(I-8
I-3
tp3045
a(I-8
I-4
tp3046
a(I-8
I-5
tp3047
a(I-8
I-6
tp3048
a(I-9
I-6
tp3049
a(I-9
I-7
tp3050
a(I-10
I-7
tp3051
aI0
tp3052
a((lp3053
g3
a(I0
I-1
tp3054
a(I-1
I-1
tp3055
a(I-1
I0
tp3056
a(I-1
I1
tp3057
a(I0
I1
tp3058
a(I1
I1
tp3059
a(I2
I1
tp3060
a(I3
I1
tp3061
a(I3
I2
tp3062
a(I2
I2
tp3063
a(I2
I3
tp3064
a(I3
I3
tp3065
a(I3
I4
tp3066
a(I3
I5
tp3067
a(I4
I5
tp3068
a(I4
I4
tp3069
a(I4
I3
tp3070
a(I4
I2
tp3071
a(I4
I1
tp3072
a(I4
I0
tp3073
a(I5
I0
tp3074
a(I6
I0
tp3075
a(I7
I0
tp3076
aI0
tp3077
a((lp3078
g3
a(I-1
I0
tp3079
a(I-1
I-1
tp3080
a(I-1
I-2
tp3081
a(I0
I-2
tp3082
a(I1
I-2
tp3083
a(I1
I-1
tp3084
a(I2
I-1
tp3085
a(I2
I-2
tp3086
a(I3
I-2
tp3087
a(I3
I-3
tp3088
a(I2
I-3
tp3089
a(I1
I-3
tp3090
a(I1
I-4
tp3091
a(I1
I-5
tp3092
a(I2
I-5
tp3093
a(I3
I-5
tp3094
a(I4
I-5
tp3095
a(I4
I-6
tp3096
a(I5
I-6
tp3097
a(I5
I-7
tp3098
a(I5
I-8
tp3099
a(I4
I-8
tp3100
a(I4
I-7
tp3101
aI0
tp3102
a((lp3103
g3
a(I0
I-1
tp3104
a(I0
I-2
tp3105
a(I-1
I-2
tp3106
a(I-1
I-1
tp3107
a(I-1
I0
tp3108
a(I-1
I1
tp3109
a(I-1
I2
tp3110
a(I0
I2
tp3111
a(I0
I3
tp3112
a(I1
I3
tp3113
a(I1
I4
tp3114
a(I1
I5
tp3115
a(I1
I6
tp3116
a(I1
I7
tp3117
a(I0
I7
tp3118
a(I0
I6
tp3119
a(I0
I5
tp3120
a(I-1
I5
tp3121
a(I-1
I6
tp3122
a(I-2
I6
tp3123
a(I-2
I7
tp3124
a(I-3
I7
tp3125
a(I-3
I8
tp3126
aI0
tp3127
a((lp3128
g3
a(I-1
I0
tp3129
a(I-2
I0
tp3130
a(I-3
I0
tp3131
a(I-3
I1
tp3132
a(I-2
I1
tp3133
a(I-2
I2
tp3134
a(I-1
I2
tp3135
a(I-1
I3
tp3136
a(I0
I3
tp3137
a(I1
I3
tp3138
a(I2
I3
tp3139
a(I2
I4
tp3140
a(I2
I5
tp3141
a(I1
I5
tp3142
a(I1
I6
tp3143
a(I2
I6
tp3144
a(I2
I7
tp3145
a(I3
I7
tp3146
a(I3
I6
tp3147
a(I3
I5
tp3148
a(I3
I4
tp3149
a(I3
I3
tp3150
a(I4
I3
tp3151
aI0
tp3152
a((lp3153
g3
a(I1
I0
tp3154
a(I1
I-1
tp3155
a(I1
I-2
tp3156
a(I2
I-2
tp3157
a(I2
I-1
tp3158
a(I3
I-1
tp3159
a(I3
I-2
tp3160
a(I3
I-3
tp3161
a(I2
I-3
tp3162
a(I2
I-4
tp3163
a(I1
I-4
tp3164
a(I1
I-3
tp3165
a(I0
I-3
tp3166
a(I0
I-4
tp3167
a(I0
I-5
tp3168
a(I-1
I-5
tp3169
a(I-1
I-6
tp3170
a(I-1
I-7
tp3171
a(I-1
I-8
tp3172
a(I-2
I-8
tp3173
a(I-3
I-8
tp3174
a(I-3
I-7
tp3175
a(I-4
I-7
tp3176
aI0
tp3177
a((lp3178
g3
a(I0
I-1
tp3179
a(I0
I-2
tp3180
a(I1
I-2
tp3181
a(I1
I-1
tp3182
a(I1
I0
tp3183
a(I2
I0
tp3184
a(I2
I1
tp3185
a(I2
I2
tp3186
a(I1
I2
tp3187
a(I1
I1
tp3188
a(I0
I1
tp3189
a(I-1
I1
tp3190
a(I-1
I0
tp3191
a(I-1
I-1
tp3192
a(I-1
I-2
tp3193
a(I-2
I-2
tp3194
a(I-2
I-1
tp3195
a(I-2
I0
tp3196
a(I-2
I1
tp3197
a(I-2
I2
tp3198
a(I-3
I2
tp3199
a(I-3
I1
tp3200
a(I-4
I1
tp3201
aI0
tp3202
a((lp3203
g3
a(I0
I1
tp3204
a(I-1
I1
tp3205
a(I-2
I1
tp3206
a(I-3
I1
tp3207
a(I-3
I2
tp3208
a(I-3
I3
tp3209
a(I-4
I3
tp3210
a(I-4
I2
tp3211
a(I-4
I1
tp3212
a(I-4
I0
tp3213
a(I-3
I0
tp3214
a(I-3
I-1
tp3215
a(I-3
I-2
tp3216
a(I-3
I-3
tp3217
a(I-4
I-3
tp3218
a(I-4
I-2
tp3219
a(I-4
I-1
tp3220
a(I-5
I-1
tp3221
a(I-5
I-2
tp3222
a(I-6
I-2
tp3223
a(I-7
I-2
tp3224
a(I-7
I-3
tp3225
a(I-6
I-3
tp3226
aI0
tp3227
a((lp3228
g3
a(I1
I0
tp3229
a(I2
I0
tp3230
a(I2
I1
tp3231
a(I1
I1
tp3232
a(I0
I1
tp3233
a(I-1
I1
tp3234
a(I-1
I0
tp3235
a(I-2
I0
tp3236
a(I-3
I0
tp3237
a(I-3
I1
tp3238
a(I-2
I1
tp3239
a(I-2
I2
tp3240
a(I-3
I2
tp3241
a(I-4
I2
tp3242
a(I-4
I1
tp3243
a(I-4
I0
tp3244
a(I-4
I-1
tp3245
a(I-5
I-1
tp3246
a(I-5
I0
tp3247
a(I-5
I1
tp3248
a(I-6
I1
tp3249
a(I-6
I2
tp3250
a(I-5
I2
tp3251
aI0
tp3252
a((lp3253
g3
a(I-1
I0
tp3254
a(I-1
I-1
tp3255
a(I-1
I-2
tp3256
a(I0
I-2
tp3257
a(I0
I-3
tp3258
a(I0
I-4
tp3259
a(I1
I-4
tp3260
a(I1
I-5
tp3261
a(I0
I-5
tp3262
a(I-1
I-5
tp3263
a(I-1
I-6
tp3264
a(I0
I-6
tp3265
a(I0
I-7
tp3266
a(I1
I-7
tp3267
a(I1
I-6
tp3268
a(I2
I-6
tp3269
a(I3
I-6
tp3270
a(I3
I-5
tp3271
a(I4
I-5
tp3272
a(I5
I-5
tp3273
a(I6
I-5
tp3274
a(I6
I-6
tp3275
a(I5
I-6
tp3276
aI0
tp3277
a((lp3278
g3
a(I0
I1
tp3279
a(I-1
I1
tp3280
a(I-1
I2
tp3281
a(I-1
I3
tp3282
a(I-1
I4
tp3283
a(I-1
I5
tp3284
a(I-2
I5
tp3285
a(I-2
I6
tp3286
a(I-3
I6
tp3287
a(I-3
I7
tp3288
a(I-4
I7
tp3289
a(I-5
I7
tp3290
a(I-6
I7
tp3291
a(I-6
I6
tp3292
a(I-6
I5
tp3293
a(I-5
I5
tp3294
a(I-4
I5
tp3295
a(I-4
I4
tp3296
a(I-4
I3
tp3297
a(I-3
I3
tp3298
a(I-3
I4
tp3299
a(I-2
I4
tp3300
a(I-2
I3
tp3301
aI0
tp3302
a((lp3303
g3
a(I-1
I0
tp3304
a(I-2
I0
tp3305
a(I-2
I-1
tp3306
a(I-2
I-2
tp3307
a(I-2
I-3
tp3308
a(I-2
I-4
tp3309
a(I-3
I-4
tp3310
a(I-3
I-3
tp3311
a(I-4
I-3
tp3312
a(I-4
I-4
tp3313
a(I-4
I-5
tp3314
a(I-4
I-6
tp3315
a(I-4
I-7
tp3316
a(I-3
I-7
tp3317
a(I-3
I-6
tp3318
a(I-2
I-6
tp3319
a(I-1
I-6
tp3320
a(I-1
I-5
tp3321
a(I0
I-5
tp3322
a(I0
I-4
tp3323
a(I1
I-4
tp3324
a(I1
I-3
tp3325
a(I0
I-3
tp3326
aI0
tp3327
a((lp3328
g3
a(I0
I-1
tp3329
a(I0
I-2
tp3330
a(I-1
I-2
tp3331
a(I-1
I-1
tp3332
a(I-2
I-1
tp3333
a(I-3
I-1
tp3334
a(I-4
I-1
tp3335
a(I-4
I0
tp3336
a(I-5
I0
tp3337
a(I-6
I0
tp3338
a(I-7
I0
tp3339
a(I-8
I0
tp3340
a(I-9
I0
tp3341
a(I-9
I-1
tp3342
a(I-9
I-2
tp3343
a(I-9
I-3
tp3344
a(I-9
I-4
tp3345
a(I-10
I-4
tp3346
a(I-10
I-3
tp3347
a(I-11
I-3
tp3348
a(I-11
I-4
tp3349
a(I-11
I-5
tp3350
a(I-11
I-6
tp3351
aI0
tp3352
a((lp3353
g3
a(I0
I-1
tp3354
a(I1
I-1
tp3355
a(I1
I-2
tp3356
a(I2
I-2
tp3357
a(I3
I-2
tp3358
a(I4
I-2
tp3359
a(I4
I-3
tp3360
a(I3
I-3
tp3361
a(I3
I-4
tp3362
a(I4
I-4
tp3363
a(I5
I-4
tp3364
a(I5
I-3
tp3365
a(I6
I-3
tp3366
a(I6
I-4
tp3367
a(I7
I-4
tp3368
a(I8
I-4
tp3369
a(I8
I-5
tp3370
a(I7
I-5
tp3371
a(I7
I-6
tp3372
a(I8
I-6
tp3373
a(I9
I-6
tp3374
a(I9
I-5
tp3375
a(I10
I-5
tp3376
aI0
tp3377
a((lp3378
g3
a(I1
I0
tp3379
a(I1
I-1
tp3380
a(I2
I-1
tp3381
a(I2
I0
tp3382
a(I2
I1
tp3383
a(I3
I1
tp3384
a(I3
I2
tp3385
a(I2
I2
tp3386
a(I2
I3
tp3387
a(I3
I3
tp3388
a(I4
I3
tp3389
a(I4
I2
tp3390
a(I5
I2
tp3391
a(I5
I3
tp3392
a(I5
I4
tp3393
a(I6
I4
tp3394
a(I6
I5
tp3395
a(I7
I5
tp3396
a(I7
I4
tp3397
a(I8
I4
tp3398
a(I8
I3
tp3399
a(I7
I3
tp3400
a(I6
I3
tp3401
aI0
tp3402
a((lp3403
g3
a(I1
I0
tp3404
a(I1
I-1
tp3405
a(I0
I-1
tp3406
a(I-1
I-1
tp3407
a(I-1
I-2
tp3408
a(I-1
I-3
tp3409
a(I-2
I-3
tp3410
a(I-2
I-4
tp3411
a(I-3
I-4
tp3412
a(I-3
I-3
tp3413
a(I-4
I-3
tp3414
a(I-4
I-4
tp3415
a(I-5
I-4
tp3416
a(I-6
I-4
tp3417
a(I-7
I-4
tp3418
a(I-8
I-4
tp3419
a(I-9
I-4
tp3420
a(I-9
I-5
tp3421
a(I-9
I-6
tp3422
a(I-10
I-6
tp3423
a(I-10
I-7
tp3424
a(I-11
I-7
tp3425
a(I-12
I-7
tp3426
aI0
tp3427
a((lp3428
g3
a(I-1
I0
tp3429
a(I-2
I0
tp3430
a(I-2
I-1
tp3431
a(I-2
I-2
tp3432
a(I-2
I-3
tp3433
a(I-2
I-4
tp3434
a(I-3
I-4
tp3435
a(I-3
I-5
tp3436
a(I-3
I-6
tp3437
a(I-3
I-7
tp3438
a(I-4
I-7
tp3439
a(I-4
I-8
tp3440
a(I-5
I-8
tp3441
a(I-5
I-9
tp3442
a(I-5
I-10
tp3443
a(I-6
I-10
tp3444
a(I-7
I-10
tp3445
a(I-7
I-11
tp3446
a(I-8
I-11
tp3447
a(I-8
I-12
tp3448
a(I-7
I-12
tp3449
a(I-7
I-13
tp3450
a(I-8
I-13
tp3451
aI0
tp3452
a((lp3453
g3
a(I0
I-1
tp3454
a(I1
I-1
tp3455
a(I1
I-2
tp3456
a(I0
I-2
tp3457
a(I-1
I-2
tp3458
a(I-1
I-3
tp3459
a(I-1
I-4
tp3460
a(I-2
I-4
tp3461
a(I-2
I-5
tp3462
a(I-3
I-5
tp3463
a(I-4
I-5
tp3464
a(I-4
I-6
tp3465
a(I-4
I-7
tp3466
a(I-5
I-7
tp3467
a(I-6
I-7
tp3468
a(I-7
I-7
tp3469
a(I-7
I-8
tp3470
a(I-6
I-8
tp3471
a(I-5
I-8
tp3472
a(I-4
I-8
tp3473
a(I-3
I-8
tp3474
a(I-3
I-9
tp3475
a(I-3
I-10
tp3476
aI0
tp3477
a((lp3478
g3
a(I-1
I0
tp3479
a(I-1
I1
tp3480
a(I-2
I1
tp3481
a(I-2
I0
tp3482
a(I-3
I0
tp3483
a(I-3
I1
tp3484
a(I-4
I1
tp3485
a(I-4
I0
tp3486
a(I-5
I0
tp3487
a(I-6
I0
tp3488
a(I-7
I0
tp3489
a(I-8
I0
tp3490
a(I-8
I1
tp3491
a(I-7
I1
tp3492
a(I-6
I1
tp3493
a(I-5
I1
tp3494
a(I-5
I2
tp3495
a(I-4
I2
tp3496
a(I-3
I2
tp3497
a(I-3
I3
tp3498
a(I-3
I4
tp3499
a(I-3
I5
tp3500
a(I-4
I5
tp3501
aI0
tp3502
a((lp3503
g3
a(I0
I1
tp3504
a(I1
I1
tp3505
a(I1
I0
tp3506
a(I1
I-1
tp3507
a(I0
I-1
tp3508
a(I0
I-2
tp3509
a(I0
I-3
tp3510
a(I-1
I-3
tp3511
a(I-2
I-3
tp3512
a(I-2
I-2
tp3513
a(I-3
I-2
tp3514
a(I-4
I-2
tp3515
a(I-4
I-3
tp3516
a(I-4
I-4
tp3517
a(I-3
I-4
tp3518
a(I-3
I-5
tp3519
a(I-3
I-6
tp3520
a(I-3
I-7
tp3521
a(I-2
I-7
tp3522
a(I-2
I-8
tp3523
a(I-1
I-8
tp3524
a(I-1
I-7
tp3525
a(I0
I-7
tp3526
aI0
tp3527
a((lp3528
g3
a(I0
I-1
tp3529
a(I0
I-2
tp3530
a(I0
I-3
tp3531
a(I1
I-3
tp3532
a(I2
I-3
tp3533
a(I3
I-3
tp3534
a(I3
I-2
tp3535
a(I2
I-2
tp3536
a(I1
I-2
tp3537
a(I1
I-1
tp3538
a(I1
I0
tp3539
a(I2
I0
tp3540
a(I2
I-1
tp3541
a(I3
I-1
tp3542
a(I3
I0
tp3543
a(I4
I0
tp3544
a(I4
I1
tp3545
a(I5
I1
tp3546
a(I5
I2
tp3547
a(I4
I2
tp3548
a(I3
I2
tp3549
a(I3
I1
tp3550
a(I2
I1
tp3551
aI0
tp3552
a((lp3553
g3
a(I0
I1
tp3554
a(I-1
I1
tp3555
a(I-1
I2
tp3556
a(I-1
I3
tp3557
a(I-2
I3
tp3558
a(I-2
I4
tp3559
a(I-3
I4
tp3560
a(I-3
I3
tp3561
a(I-4
I3
tp3562
a(I-4
I2
tp3563
a(I-4
I1
tp3564
a(I-4
I0
tp3565
a(I-3
I0
tp3566
a(I-2
I0
tp3567
a(I-1
I0
tp3568
a(I-1
I-1
tp3569
a(I-1
I-2
tp3570
a(I-2
I-2
tp3571
a(I-2
I-3
tp3572
a(I-3
I-3
tp3573
a(I-3
I-2
tp3574
a(I-4
I-2
tp3575
a(I-4
I-1
tp3576
aI0
tp3577
a((lp3578
g3
a(I-1
I0
tp3579
a(I-2
I0
tp3580
a(I-3
I0
tp3581
a(I-4
I0
tp3582
a(I-4
I-1
tp3583
a(I-3
I-1
tp3584
a(I-3
I-2
tp3585
a(I-4
I-2
tp3586
a(I-5
I-2
tp3587
a(I-6
I-2
tp3588
a(I-6
I-1
tp3589
a(I-7
I-1
tp3590
a(I-7
I0
tp3591
a(I-6
I0
tp3592
a(I-5
I0
tp3593
a(I-5
I1
tp3594
a(I-5
I2
tp3595
a(I-4
I2
tp3596
a(I-3
I2
tp3597
a(I-3
I3
tp3598
a(I-4
I3
tp3599
a(I-5
I3
tp3600
a(I-6
I3
tp3601
aI0
tp3602
a((lp3603
g3
a(I0
I-1
tp3604
a(I1
I-1
tp3605
a(I1
I0
tp3606
a(I2
I0
tp3607
a(I2
I-1
tp3608
a(I2
I-2
tp3609
a(I2
I-3
tp3610
a(I3
I-3
tp3611
a(I3
I-4
tp3612
a(I4
I-4
tp3613
a(I4
I-3
tp3614
a(I4
I-2
tp3615
a(I3
I-2
tp3616
a(I3
I-1
tp3617
a(I3
I0
tp3618
a(I4
I0
tp3619
a(I4
I1
tp3620
a(I4
I2
tp3621
a(I4
I3
tp3622
a(I4
I4
tp3623
a(I3
I4
tp3624
a(I3
I5
tp3625
a(I4
I5
tp3626
aI0
tp3627
a((lp3628
g3
a(I-1
I0
tp3629
a(I-2
I0
tp3630
a(I-2
I-1
tp3631
a(I-2
I-2
tp3632
a(I-3
I-2
tp3633
a(I-3
I-1
tp3634
a(I-3
I0
tp3635
a(I-3
I1
tp3636
a(I-4
I1
tp3637
a(I-5
I1
tp3638
a(I-5
I2
tp3639
a(I-4
I2
tp3640
a(I-4
I3
tp3641
a(I-3
I3
tp3642
a(I-2
I3
tp3643
a(I-1
I3
tp3644
a(I-1
I4
tp3645
a(I-1
I5
tp3646
a(I-2
I5
tp3647
a(I-3
I5
tp3648
a(I-3
I4
tp3649
a(I-4
I4
tp3650
a(I-5
I4
tp3651
aI0
tp3652
a((lp3653
g3
a(I0
I1
tp3654
a(I1
I1
tp3655
a(I1
I0
tp3656
a(I2
I0
tp3657
a(I2
I1
tp3658
a(I3
I1
tp3659
a(I3
I2
tp3660
a(I3
I3
tp3661
a(I3
I4
tp3662
a(I3
I5
tp3663
a(I3
I6
tp3664
a(I2
I6
tp3665
a(I2
I5
tp3666
a(I1
I5
tp3667
a(I1
I6
tp3668
a(I0
I6
tp3669
a(I-1
I6
tp3670
a(I-1
I5
tp3671
a(I0
I5
tp3672
a(I0
I4
tp3673
a(I0
I3
tp3674
a(I0
I2
tp3675
a(I1
I2
tp3676
aI0
tp3677
a((lp3678
g3
a(I1
I0
tp3679
a(I1
I1
tp3680
a(I2
I1
tp3681
a(I2
I2
tp3682
a(I3
I2
tp3683
a(I3
I3
tp3684
a(I2
I3
tp3685
a(I1
I3
tp3686
a(I1
I4
tp3687
a(I1
I5
tp3688
a(I0
I5
tp3689
a(I0
I6
tp3690
a(I-1
I6
tp3691
a(I-2
I6
tp3692
a(I-2
I5
tp3693
a(I-1
I5
tp3694
a(I-1
I4
tp3695
a(I-2
I4
tp3696
a(I-3
I4
tp3697
a(I-4
I4
tp3698
a(I-4
I3
tp3699
a(I-4
I2
tp3700
a(I-5
I2
tp3701
aI0
tp3702
a((lp3703
g3
a(I-1
I0
tp3704
a(I-1
I1
tp3705
a(I-2
I1
tp3706
a(I-2
I2
tp3707
a(I-2
I3
tp3708
a(I-1
I3
tp3709
a(I-1
I2
tp3710
a(I0
I2
tp3711
a(I1
I2
tp3712
a(I1
I1
tp3713
a(I1
I0
tp3714
a(I2
I0
tp3715
a(I3
I0
tp3716
a(I3
I1
tp3717
a(I3
I2
tp3718
a(I3
I3
tp3719
a(I3
I4
tp3720
a(I3
I5
tp3721
a(I2
I5
tp3722
a(I1
I5
tp3723
a(I0
I5
tp3724
a(I0
I4
tp3725
a(I-1
I4
tp3726
aI0
tp3727
a((lp3728
g3
a(I0
I1
tp3729
a(I1
I1
tp3730
a(I2
I1
tp3731
a(I2
I0
tp3732
a(I1
I0
tp3733
a(I1
I-1
tp3734
a(I0
I-1
tp3735
a(I-1
I-1
tp3736
a(I-1
I0
tp3737
a(I-1
I1
tp3738
a(I-2
I1
tp3739
a(I-2
I0
tp3740
a(I-2
I-1
tp3741
a(I-2
I-2
tp3742
a(I-1
I-2
tp3743
a(I-1
I-3
tp3744
a(I-1
I-4
tp3745
a(I-1
I-5
tp3746
a(I-2
I-5
tp3747
a(I-3
I-5
tp3748
a(I-4
I-5
tp3749
a(I-5
I-5
tp3750
a(I-5
I-4
tp3751
aI0
tp3752
a((lp3753
g3
a(I0
I-1
tp3754
a(I1
I-1
tp3755
a(I1
I-2
tp3756
a(I0
I-2
tp3757
a(I-1
I-2
tp3758
a(I-1
I-3
tp3759
a(I0
I-3
tp3760
a(I1
I-3
tp3761
a(I2
I-3
tp3762
a(I2
I-2
tp3763
a(I3
I-2
tp3764
a(I3
I-3
tp3765
a(I4
I-3
tp3766
a(I5
I-3
tp3767
a(I6
I-3
tp3768
a(I6
I-2
tp3769
a(I7
I-2
tp3770
a(I7
I-3
tp3771
a(I7
I-4
tp3772
a(I6
I-4
tp3773
a(I6
I-5
tp3774
a(I6
I-6
tp3775
a(I7
I-6
tp3776
aI0
tp3777
a((lp3778
g3
a(I0
I-1
tp3779
a(I0
I-2
tp3780
a(I1
I-2
tp3781
a(I1
I-1
tp3782
a(I2
I-1
tp3783
a(I2
I0
tp3784
a(I3
I0
tp3785
a(I3
I1
tp3786
a(I2
I1
tp3787
a(I1
I1
tp3788
a(I1
I2
tp3789
a(I0
I2
tp3790
a(I0
I3
tp3791
a(I-1
I3
tp3792
a(I-1
I2
tp3793
a(I-2
I2
tp3794
a(I-3
I2
tp3795
a(I-3
I3
tp3796
a(I-3
I4
tp3797
a(I-4
I4
tp3798
a(I-4
I3
tp3799
a(I-5
I3
tp3800
a(I-5
I2
tp3801
aI0
tp3802
a((lp3803
g3
a(I0
I1
tp3804
a(I1
I1
tp3805
a(I1
I0
tp3806
a(I1
I-1
tp3807
a(I0
I-1
tp3808
a(I0
I-2
tp3809
a(I0
I-3
tp3810
a(I1
I-3
tp3811
a(I2
I-3
tp3812
a(I3
I-3
tp3813
a(I4
I-3
tp3814
a(I4
I-4
tp3815
a(I3
I-4
tp3816
a(I2
I-4
tp3817
a(I1
I-4
tp3818
a(I1
I-5
tp3819
a(I2
I-5
tp3820
a(I3
I-5
tp3821
a(I3
I-6
tp3822
a(I2
I-6
tp3823
a(I1
I-6
tp3824
a(I1
I-7
tp3825
a(I1
I-8
tp3826
aI0
tp3827
a((lp3828
g3
a(I0
I-1
tp3829
a(I0
I-2
tp3830
a(I-1
I-2
tp3831
a(I-1
I-3
tp3832
a(I-2
I-3
tp3833
a(I-2
I-2
tp3834
a(I-2
I-1
tp3835
a(I-3
I-1
tp3836
a(I-3
I0
tp3837
a(I-2
I0
tp3838
a(I-1
I0
tp3839
a(I-1
I1
tp3840
a(I-2
I1
tp3841
a(I-2
I2
tp3842
a(I-2
I3
tp3843
a(I-1
I3
tp3844
a(I-1
I4
tp3845
a(I0
I4
tp3846
a(I0
I3
tp3847
a(I0
I2
tp3848
a(I0
I1
tp3849
a(I1
I1
tp3850
a(I1
I2
tp3851
aI0
tp3852
a((lp3853
g3
a(I0
I-1
tp3854
a(I-1
I-1
tp3855
a(I-1
I-2
tp3856
a(I0
I-2
tp3857
a(I0
I-3
tp3858
a(I0
I-4
tp3859
a(I-1
I-4
tp3860
a(I-1
I-5
tp3861
a(I-1
I-6
tp3862
a(I-2
I-6
tp3863
a(I-2
I-7
tp3864
a(I-1
I-7
tp3865
a(I-1
I-8
tp3866
a(I0
I-8
tp3867
a(I1
I-8
tp3868
a(I2
I-8
tp3869
a(I2
I-9
tp3870
a(I3
I-9
tp3871
a(I3
I-8
tp3872
a(I3
I-7
tp3873
a(I2
I-7
tp3874
a(I1
I-7
tp3875
a(I1
I-6
tp3876
aI0
tp3877
a((lp3878
g3
a(I1
I0
tp3879
a(I1
I1
tp3880
a(I2
I1
tp3881
a(I3
I1
tp3882
a(I4
I1
tp3883
a(I4
I2
tp3884
a(I4
I3
tp3885
a(I4
I4
tp3886
a(I3
I4
tp3887
a(I3
I3
tp3888
a(I3
I2
tp3889
a(I2
I2
tp3890
a(I1
I2
tp3891
a(I0
I2
tp3892
a(I0
I3
tp3893
a(I-1
I3
tp3894
a(I-2
I3
tp3895
a(I-2
I2
tp3896
a(I-3
I2
tp3897
a(I-3
I1
tp3898
a(I-3
I0
tp3899
a(I-3
I-1
tp3900
a(I-4
I-1
tp3901
aI0
tp3902
a((lp3903
g3
a(I1
I0
tp3904
a(I2
I0
tp3905
a(I3
I0
tp3906
a(I3
I-1
tp3907
a(I3
I-2
tp3908
a(I2
I-2
tp3909
a(I1
I-2
tp3910
a(I1
I-3
tp3911
a(I0
I-3
tp3912
a(I0
I-4
tp3913
a(I0
I-5
tp3914
a(I0
I-6
tp3915
a(I0
I-7
tp3916
a(I-1
I-7
tp3917
a(I-2
I-7
tp3918
a(I-2
I-6
tp3919
a(I-2
I-5
tp3920
a(I-3
I-5
tp3921
a(I-4
I-5
tp3922
a(I-5
I-5
tp3923
a(I-6
I-5
tp3924
a(I-7
I-5
tp3925
a(I-8
I-5
tp3926
aI0
tp3927
a((lp3928
g3
a(I-1
I0
tp3929
a(I-2
I0
tp3930
a(I-3
I0
tp3931
a(I-3
I1
tp3932
a(I-3
I2
tp3933
a(I-3
I3
tp3934
a(I-2
I3
tp3935
a(I-2
I2
tp3936
a(I-1
I2
tp3937
a(I0
I2
tp3938
a(I1
I2
tp3939
a(I2
I2
tp3940
a(I2
I3
tp3941
a(I1
I3
tp3942
a(I0
I3
tp3943
a(I-1
I3
tp3944
a(I-1
I4
tp3945
a(I-2
I4
tp3946
a(I-2
I5
tp3947
a(I-3
I5
tp3948
a(I-3
I6
tp3949
a(I-3
I7
tp3950
a(I-2
I7
tp3951
aI0
tp3952
a((lp3953
g3
a(I0
I1
tp3954
a(I-1
I1
tp3955
a(I-1
I2
tp3956
a(I0
I2
tp3957
a(I1
I2
tp3958
a(I1
I3
tp3959
a(I2
I3
tp3960
a(I2
I2
tp3961
a(I3
I2
tp3962
a(I3
I1
tp3963
a(I2
I1
tp3964
a(I2
I0
tp3965
a(I2
I-1
tp3966
a(I2
I-2
tp3967
a(I3
I-2
tp3968
a(I3
I-3
tp3969
a(I3
I-4
tp3970
a(I4
I-4
tp3971
a(I4
I-3
tp3972
a(I5
I-3
tp3973
a(I5
I-2
tp3974
a(I4
I-2
tp3975
a(I4
I-1
tp3976
aI0
tp3977
a((lp3978
g3
a(I0
I-1
tp3979
a(I1
I-1
tp3980
a(I2
I-1
tp3981
a(I2
I-2
tp3982
a(I3
I-2
tp3983
a(I3
I-3
tp3984
a(I2
I-3
tp3985
a(I1
I-3
tp3986
a(I0
I-3
tp3987
a(I0
I-4
tp3988
a(I-1
I-4
tp3989
a(I-1
I-5
tp3990
a(I-1
I-6
tp3991
a(I-1
I-7
tp3992
a(I-1
I-8
tp3993
a(I-2
I-8
tp3994
a(I-3
I-8
tp3995
a(I-3
I-9
tp3996
a(I-3
I-10
tp3997
a(I-3
I-11
tp3998
a(I-3
I-12
tp3999
a(I-4
I-12
tp4000
a(I-4
I-11
tp4001
aI0
tp4002
a((lp4003
g3
a(I0
I1
tp4004
a(I-1
I1
tp4005
a(I-2
I1
tp4006
a(I-3
I1
tp4007
a(I-4
I1
tp4008
a(I-5
I1
tp4009
a(I-5
I2
tp4010
a(I-5
I3
tp4011
a(I-4
I3
tp4012
a(I-3
I3
tp4013
a(I-3
I2
tp4014
a(I-2
I2
tp4015
a(I-1
I2
tp4016
a(I0
I2
tp4017
a(I0
I3
tp4018
a(I-1
I3
tp4019
a(I-2
I3
tp4020
a(I-2
I4
tp4021
a(I-3
I4
tp4022
a(I-3
I5
tp4023
a(I-2
I5
tp4024
a(I-1
I5
tp4025
a(I0
I5
tp4026
aI0
tp4027
a((lp4028
g3
a(I0
I1
tp4029
a(I-1
I1
tp4030
a(I-1
I0
tp4031
a(I-2
I0
tp4032
a(I-2
I1
tp4033
a(I-3
I1
tp4034
a(I-3
I0
tp4035
a(I-4
I0
tp4036
a(I-5
I0
tp4037
a(I-5
I-1
tp4038
a(I-6
I-1
tp4039
a(I-6
I0
tp4040
a(I-7
I0
tp4041
a(I-7
I-1
tp4042
a(I-8
I-1
tp4043
a(I-9
I-1
tp4044
a(I-9
I-2
tp4045
a(I-10
I-2
tp4046
a(I-10
I-1
tp4047
a(I-11
I-1
tp4048
a(I-11
I-2
tp4049
a(I-11
I-3
tp4050
a(I-10
I-3
tp4051
aI0
tp4052
a((lp4053
g3
a(I1
I0
tp4054
a(I2
I0
tp4055
a(I2
I-1
tp4056
a(I2
I-2
tp4057
a(I3
I-2
tp4058
a(I3
I-1
tp4059
a(I4
I-1
tp4060
a(I4
I0
tp4061
a(I4
I1
tp4062
a(I3
I1
tp4063
a(I3
I2
tp4064
a(I4
I2
tp4065
a(I5
I2
tp4066
a(I5
I1
tp4067
a(I5
I0
tp4068
a(I6
I0
tp4069
a(I6
I1
tp4070
a(I7
I1
tp4071
a(I7
I2
tp4072
a(I7
I3
tp4073
a(I7
I4
tp4074
a(I8
I4
tp4075
a(I8
I5
tp4076
aI0
tp4077
a((lp4078
g3
a(I0
I-1
tp4079
a(I0
I-2
tp4080
a(I1
I-2
tp4081
a(I1
I-3
tp4082
a(I0
I-3
tp4083
a(I0
I-4
tp4084
a(I1
I-4
tp4085
a(I1
I-5
tp4086
a(I2
I-5
tp4087
a(I3
I-5
tp4088
a(I4
I-5
tp4089
a(I4
I-6
tp4090
a(I4
I-7
tp4091
a(I5
I-7
tp4092
a(I5
I-8
tp4093
a(I5
I-9
tp4094
a(I6
I-9
tp4095
a(I7
I-9
tp4096
a(I7
I-8
tp4097
a(I7
I-7
tp4098
a(I7
I-6
tp4099
a(I6
I-6
tp4100
a(I6
I-7
tp4101
aI0
tp4102
a((lp4103
g3
a(I0
I-1
tp4104
a(I-1
I-1
tp4105
a(I-1
I-2
tp4106
a(I0
I-2
tp4107
a(I0
I-3
tp4108
a(I0
I-4
tp4109
a(I1
I-4
tp4110
a(I1
I-5
tp4111
a(I1
I-6
tp4112
a(I2
I-6
tp4113
a(I3
I-6
tp4114
a(I3
I-5
tp4115
a(I4
I-5
tp4116
a(I4
I-4
tp4117
a(I3
I-4
tp4118
a(I2
I-4
tp4119
a(I2
I-3
tp4120
a(I3
I-3
tp4121
a(I4
I-3
tp4122
a(I4
I-2
tp4123
a(I3
I-2
tp4124
a(I3
I-1
tp4125
a(I4
I-1
tp4126
aI0
tp4127
a((lp4128
g3
a(I0
I-1
tp4129
a(I1
I-1
tp4130
a(I2
I-1
tp4131
a(I2
I-2
tp4132
a(I3
I-2
tp4133
a(I4
I-2
tp4134
a(I4
I-3
tp4135
a(I4
I-4
tp4136
a(I3
I-4
tp4137
a(I3
I-5
tp4138
a(I4
I-5
tp4139
a(I4
I-6
tp4140
a(I5
I-6
tp4141
a(I6
I-6
tp4142
a(I6
I-5
tp4143
a(I6
I-4
tp4144
a(I5
I-4
tp4145
a(I5
I-3
tp4146
a(I6
I-3
tp4147
a(I6
I-2
tp4148
a(I6
I-1
tp4149
a(I5
I-1
tp4150
a(I5
I0
tp4151
aI0
tp4152
a((lp4153
g3
a(I0
I1
tp4154
a(I0
I2
tp4155
a(I-1
I2
tp4156
a(I-1
I3
tp4157
a(I-1
I4
tp4158
a(I0
I4
tp4159
a(I0
I5
tp4160
a(I0
I6
tp4161
a(I1
I6
tp4162
a(I1
I5
tp4163
a(I2
I5
tp4164
a(I2
I6
tp4165
a(I2
I7
tp4166
a(I3
I7
tp4167
a(I4
I7
tp4168
a(I4
I8
tp4169
a(I4
I9
tp4170
a(I3
I9
tp4171
a(I3
I10
tp4172
a(I4
I10
tp4173
a(I4
I11
tp4174
a(I5
I11
tp4175
a(I5
I12
tp4176
aI0
tp4177
a((lp4178
g3
a(I0
I1
tp4179
a(I1
I1
tp4180
a(I1
I2
tp4181
a(I2
I2
tp4182
a(I2
I1
tp4183
a(I3
I1
tp4184
a(I4
I1
tp4185
a(I4
I0
tp4186
a(I5
I0
tp4187
a(I5
I-1
tp4188
a(I4
I-1
tp4189
a(I4
I-2
tp4190
a(I4
I-3
tp4191
a(I5
I-3
tp4192
a(I6
I-3
tp4193
a(I6
I-4
tp4194
a(I6
I-5
tp4195
a(I5
I-5
tp4196
a(I5
I-6
tp4197
a(I5
I-7
tp4198
a(I4
I-7
tp4199
a(I4
I-8
tp4200
a(I4
I-9
tp4201
aI0
tp4202
a((lp4203
g3
a(I0
I-1
tp4204
a(I1
I-1
tp4205
a(I1
I0
tp4206
a(I2
I0
tp4207
a(I3
I0
tp4208
a(I3
I-1
tp4209
a(I3
I-2
tp4210
a(I2
I-2
tp4211
a(I2
I-3
tp4212
a(I3
I-3
tp4213
a(I3
I-4
tp4214
a(I3
I-5
tp4215
a(I4
I-5
tp4216
a(I5
I-5
tp4217
a(I6
I-5
tp4218
a(I6
I-6
tp4219
a(I5
I-6
tp4220
a(I4
I-6
tp4221
a(I4
I-7
tp4222
a(I5
I-7
tp4223
a(I5
I-8
tp4224
a(I5
I-9
tp4225
a(I4
I-9
tp4226
aI0
tp4227
a((lp4228
g3
a(I0
I-1
tp4229
a(I1
I-1
tp4230
a(I1
I0
tp4231
a(I1
I1
tp4232
a(I2
I1
tp4233
a(I3
I1
tp4234
a(I4
I1
tp4235
a(I4
I0
tp4236
a(I3
I0
tp4237
a(I2
I0
tp4238
a(I2
I-1
tp4239
a(I3
I-1
tp4240
a(I4
I-1
tp4241
a(I5
I-1
tp4242
a(I6
I-1
tp4243
a(I6
I0
tp4244
a(I7
I0
tp4245
a(I7
I1
tp4246
a(I6
I1
tp4247
a(I5
I1
tp4248
a(I5
I2
tp4249
a(I5
I3
tp4250
a(I5
I4
tp4251
aI0
tp4252
a((lp4253
g3
a(I0
I1
tp4254
a(I-1
I1
tp4255
a(I-1
I0
tp4256
a(I-1
I-1
tp4257
a(I-2
I-1
tp4258
a(I-2
I-2
tp4259
a(I-3
I-2
tp4260
a(I-3
I-3
tp4261
a(I-3
I-4
tp4262
a(I-2
I-4
tp4263
a(I-1
I-4
tp4264
a(I0
I-4
tp4265
a(I0
I-5
tp4266
a(I0
I-6
tp4267
a(I0
I-7
tp4268
a(I1
I-7
tp4269
a(I1
I-6
tp4270
a(I1
I-5
tp4271
a(I1
I-4
tp4272
a(I2
I-4
tp4273
a(I3
I-4
tp4274
a(I3
I-5
tp4275
a(I3
I-6
tp4276
aI0
tp4277
a((lp4278
g3
a(I0
I-1
tp4279
a(I1
I-1
tp4280
a(I1
I-2
tp4281
a(I1
I-3
tp4282
a(I2
I-3
tp4283
a(I2
I-4
tp4284
a(I3
I-4
tp4285
a(I4
I-4
tp4286
a(I4
I-5
tp4287
a(I3
I-5
tp4288
a(I2
I-5
tp4289
a(I1
I-5
tp4290
a(I1
I-4
tp4291
a(I0
I-4
tp4292
a(I0
I-3
tp4293
a(I0
I-2
tp4294
a(I-1
I-2
tp4295
a(I-1
I-3
tp4296
a(I-2
I-3
tp4297
a(I-3
I-3
tp4298
a(I-4
I-3
tp4299
a(I-5
I-3
tp4300
a(I-5
I-4
tp4301
aI0
tp4302
a((lp4303
g3
a(I-1
I0
tp4304
a(I-2
I0
tp4305
a(I-3
I0
tp4306
a(I-3
I1
tp4307
a(I-4
I1
tp4308
a(I-4
I2
tp4309
a(I-5
I2
tp4310
a(I-6
I2
tp4311
a(I-6
I1
tp4312
a(I-6
I0
tp4313
a(I-6
I-1
tp4314
a(I-6
I-2
tp4315
a(I-6
I-3
tp4316
a(I-5
I-3
tp4317
a(I-5
I-4
tp4318
a(I-4
I-4
tp4319
a(I-3
I-4
tp4320
a(I-2
I-4
tp4321
a(I-1
I-4
tp4322
a(I-1
I-3
tp4323
a(I-2
I-3
tp4324
a(I-2
I-2
tp4325
a(I-1
I-2
tp4326
aI0
tp4327
a((lp4328
g3
a(I-1
I0
tp4329
a(I-2
I0
tp4330
a(I-2
I-1
tp4331
a(I-3
I-1
tp4332
a(I-4
I-1
tp4333
a(I-5
I-1
tp4334
a(I-6
I-1
tp4335
a(I-6
I0
tp4336
a(I-6
I1
tp4337
a(I-6
I2
tp4338
a(I-6
I3
tp4339
a(I-6
I4
tp4340
a(I-6
I5
tp4341
a(I-6
I6
tp4342
a(I-5
I6
tp4343
a(I-5
I7
tp4344
a(I-5
I8
tp4345
a(I-6
I8
tp4346
a(I-6
I7
tp4347
a(I-7
I7
tp4348
a(I-8
I7
tp4349
a(I-9
I7
tp4350
a(I-9
I8
tp4351
aI0
tp4352
a((lp4353
g3
a(I1
I0
tp4354
a(I1
I-1
tp4355
a(I1
I-2
tp4356
a(I1
I-3
tp4357
a(I0
I-3
tp4358
a(I0
I-2
tp4359
a(I-1
I-2
tp4360
a(I-1
I-1
tp4361
a(I-1
I0
tp4362
a(I-2
I0
tp4363
a(I-2
I1
tp4364
a(I-3
I1
tp4365
a(I-3
I0
tp4366
a(I-4
I0
tp4367
a(I-4
I1
tp4368
a(I-4
I2
tp4369
a(I-5
I2
tp4370
a(I-6
I2
tp4371
a(I-6
I3
tp4372
a(I-7
I3
tp4373
a(I-7
I4
tp4374
a(I-6
I4
tp4375
a(I-6
I5
tp4376
aI0
tp4377
a((lp4378
g3
a(I0
I1
tp4379
a(I1
I1
tp4380
a(I2
I1
tp4381
a(I2
I0
tp4382
a(I3
I0
tp4383
a(I3
I-1
tp4384
a(I4
I-1
tp4385
a(I5
I-1
tp4386
a(I5
I-2
tp4387
a(I4
I-2
tp4388
a(I3
I-2
tp4389
a(I2
I-2
tp4390
a(I1
I-2
tp4391
a(I0
I-2
tp4392
a(I0
I-1
tp4393
a(I-1
I-1
tp4394
a(I-2
I-1
tp4395
a(I-3
I-1
tp4396
a(I-4
I-1
tp4397
a(I-4
I0
tp4398
a(I-4
I1
tp4399
a(I-5
I1
tp4400
a(I-5
I0
tp4401
aI0
tp4402
a((lp4403
g3
a(I0
I1
tp4404
a(I0
I2
tp4405
a(I1
I2
tp4406
a(I1
I1
tp4407
a(I2
I1
tp4408
a(I2
I2
tp4409
a(I2
I3
tp4410
a(I3
I3
tp4411
a(I3
I2
tp4412
a(I3
I1
tp4413
a(I4
I1
tp4414
a(I5
I1
tp4415
a(I5
I2
tp4416
a(I4
I2
tp4417
a(I4
I3
tp4418
a(I4
I4
tp4419
a(I5
I4
tp4420
a(I5
I5
tp4421
a(I5
I6
tp4422
a(I6
I6
tp4423
a(I6
I5
tp4424
a(I7
I5
tp4425
a(I7
I4
tp4426
aI0
tp4427
a((lp4428
g3
a(I-1
I0
tp4429
a(I-2
I0
tp4430
a(I-2
I-1
tp4431
a(I-2
I-2
tp4432
a(I-1
I-2
tp4433
a(I-1
I-1
tp4434
a(I0
I-1
tp4435
a(I0
I-2
tp4436
a(I0
I-3
tp4437
a(I-1
I-3
tp4438
a(I-1
I-4
tp4439
a(I-2
I-4
tp4440
a(I-2
I-3
tp4441
a(I-3
I-3
tp4442
a(I-4
I-3
tp4443
a(I-5
I-3
tp4444
a(I-5
I-4
tp4445
a(I-4
I-4
tp4446
a(I-4
I-5
tp4447
a(I-4
I-6
tp4448
a(I-3
I-6
tp4449
a(I-3
I-5
tp4450
a(I-2
I-5
tp4451
aI0
tp4452
a((lp4453
g3
a(I0
I1
tp4454
a(I-1
I1
tp4455
a(I-2
I1
tp4456
a(I-2
I0
tp4457
a(I-1
I0
tp4458
a(I-1
I-1
tp4459
a(I-1
I-2
tp4460
a(I-1
I-3
tp4461
a(I0
I-3
tp4462
a(I0
I-4
tp4463
a(I0
I-5
tp4464
a(I-1
I-5
tp4465
a(I-2
I-5
tp4466
a(I-2
I-6
tp4467
a(I-2
I-7
tp4468
a(I-2
I-8
tp4469
a(I-1
I-8
tp4470
a(I0
I-8
tp4471
a(I0
I-7
tp4472
a(I0
I-6
tp4473
a(I1
I-6
tp4474
a(I2
I-6
tp4475
a(I3
I-6
tp4476
aI0
tp4477
a((lp4478
g3
a(I0
I1
tp4479
a(I0
I2
tp4480
a(I-1
I2
tp4481
a(I-1
I1
tp4482
a(I-1
I0
tp4483
a(I-1
I-1
tp4484
a(I-2
I-1
tp4485
a(I-2
I-2
tp4486
a(I-3
I-2
tp4487
a(I-4
I-2
tp4488
a(I-4
I-3
tp4489
a(I-4
I-4
tp4490
a(I-4
I-5
tp4491
a(I-4
I-6
tp4492
a(I-3
I-6
tp4493
a(I-3
I-7
tp4494
a(I-2
I-7
tp4495
a(I-1
I-7
tp4496
a(I-1
I-8
tp4497
a(I0
I-8
tp4498
a(I1
I-8
tp4499
a(I2
I-8
tp4500
a(I2
I-9
tp4501
aI0
tp4502
a((lp4503
g3
a(I0
I1
tp4504
a(I0
I2
tp4505
a(I0
I3
tp4506
a(I1
I3
tp4507
a(I1
I4
tp4508
a(I0
I4
tp4509
a(I0
I5
tp4510
a(I0
I6
tp4511
a(I0
I7
tp4512
a(I0
I8
tp4513
a(I1
I8
tp4514
a(I1
I7
tp4515
a(I1
I6
tp4516
a(I2
I6
tp4517
a(I3
I6
tp4518
a(I3
I5
tp4519
a(I3
I4
tp4520
a(I3
I3
tp4521
a(I4
I3
tp4522
a(I5
I3
tp4523
a(I5
I4
tp4524
a(I6
I4
tp4525
a(I6
I3
tp4526
aI0
tp4527
a((lp4528
g3
a(I-1
I0
tp4529
a(I-2
I0
tp4530
a(I-3
I0
tp4531
a(I-3
I1
tp4532
a(I-4
I1
tp4533
a(I-4
I0
tp4534
a(I-4
I-1
tp4535
a(I-5
I-1
tp4536
a(I-5
I-2
tp4537
a(I-5
I-3
tp4538
a(I-4
I-3
tp4539
a(I-4
I-4
tp4540
a(I-3
I-4
tp4541
a(I-3
I-3
tp4542
a(I-2
I-3
tp4543
a(I-2
I-4
tp4544
a(I-1
I-4
tp4545
a(I-1
I-3
tp4546
a(I0
I-3
tp4547
a(I0
I-4
tp4548
a(I0
I-5
tp4549
a(I1
I-5
tp4550
a(I2
I-5
tp4551
aI0
tp4552
a((lp4553
g3
a(I0
I-1
tp4554
a(I-1
I-1
tp4555
a(I-2
I-1
tp4556
a(I-2
I0
tp4557
a(I-3
I0
tp4558
a(I-3
I-1
tp4559
a(I-3
I-2
tp4560
a(I-2
I-2
tp4561
a(I-2
I-3
tp4562
a(I-1
I-3
tp4563
a(I-1
I-4
tp4564
a(I0
I-4
tp4565
a(I1
I-4
tp4566
a(I1
I-3
tp4567
a(I2
I-3
tp4568
a(I2
I-2
tp4569
a(I3
I-2
tp4570
a(I3
I-3
tp4571
a(I4
I-3
tp4572
a(I4
I-4
tp4573
a(I3
I-4
tp4574
a(I2
I-4
tp4575
a(I2
I-5
tp4576
aI0
tp4577
a((lp4578
g3
a(I0
I-1
tp4579
a(I-1
I-1
tp4580
a(I-2
I-1
tp4581
a(I-3
I-1
tp4582
a(I-4
I-1
tp4583
a(I-5
I-1
tp4584
a(I-6
I-1
tp4585
a(I-7
I-1
tp4586
a(I-7
I0
tp4587
a(I-7
I1
tp4588
a(I-6
I1
tp4589
a(I-6
I0
tp4590
a(I-5
I0
tp4591
a(I-4
I0
tp4592
a(I-3
I0
tp4593
a(I-2
I0
tp4594
a(I-2
I1
tp4595
a(I-1
I1
tp4596
a(I0
I1
tp4597
a(I0
I2
tp4598
a(I0
I3
tp4599
a(I-1
I3
tp4600
a(I-2
I3
tp4601
aI0
tp4602
a((lp4603
g3
a(I0
I1
tp4604
a(I0
I2
tp4605
a(I1
I2
tp4606
a(I1
I1
tp4607
a(I1
I0
tp4608
a(I1
I-1
tp4609
a(I0
I-1
tp4610
a(I-1
I-1
tp4611
a(I-1
I-2
tp4612
a(I0
I-2
tp4613
a(I0
I-3
tp4614
a(I0
I-4
tp4615
a(I1
I-4
tp4616
a(I1
I-3
tp4617
a(I2
I-3
tp4618
a(I2
I-2
tp4619
a(I2
I-1
tp4620
a(I2
I0
tp4621
a(I2
I1
tp4622
a(I2
I2
tp4623
a(I3
I2
tp4624
a(I3
I3
tp4625
a(I4
I3
tp4626
aI0
tp4627
a((lp4628
g3
a(I1
I0
tp4629
a(I1
I-1
tp4630
a(I2
I-1
tp4631
a(I2
I0
tp4632
a(I2
I1
tp4633
a(I2
I2
tp4634
a(I3
I2
tp4635
a(I3
I3
tp4636
a(I3
I4
tp4637
a(I4
I4
tp4638
a(I5
I4
tp4639
a(I5
I3
tp4640
a(I5
I2
tp4641
a(I6
I2
tp4642
a(I7
I2
tp4643
a(I7
I1
tp4644
a(I6
I1
tp4645
a(I6
I0
tp4646
a(I7
I0
tp4647
a(I8
I0
tp4648
a(I8
I1
tp4649
a(I8
I2
tp4650
a(I8
I3
tp4651
aI0
tp4652
a((lp4653
g3
a(I1
I0
tp4654
a(I1
I1
tp4655
a(I2
I1
tp4656
a(I2
I2
tp4657
a(I2
I3
tp4658
a(I3
I3
tp4659
a(I3
I2
tp4660
a(I4
I2
tp4661
a(I5
I2
tp4662
a(I5
I1
tp4663
a(I5
I0
tp4664
a(I4
I0
tp4665
a(I4
I-1
tp4666
a(I4
I-2
tp4667
a(I3
I-2
tp4668
a(I3
I-3
tp4669
a(I4
I-3
tp4670
a(I5
I-3
tp4671
a(I5
I-2
tp4672
a(I5
I-1
tp4673
a(I6
I-1
tp4674
a(I6
I-2
tp4675
a(I6
I-3
tp4676
aI0
tp4677
a((lp4678
g3
a(I0
I1
tp4679
a(I0
I2
tp4680
a(I1
I2
tp4681
a(I1
I3
tp4682
a(I0
I3
tp4683
a(I-1
I3
tp4684
a(I-1
I4
tp4685
a(I0
I4
tp4686
a(I1
I4
tp4687
a(I2
I4
tp4688
a(I2
I3
tp4689
a(I2
I2
tp4690
a(I3
I2
tp4691
a(I4
I2
tp4692
a(I4
I3
tp4693
a(I4
I4
tp4694
a(I4
I5
tp4695
a(I3
I5
tp4696
a(I2
I5
tp4697
a(I2
I6
tp4698
a(I1
I6
tp4699
a(I1
I5
tp4700
a(I0
I5
tp4701
aI0
tp4702
a((lp4703
g3
a(I1
I0
tp4704
a(I1
I1
tp4705
a(I2
I1
tp4706
a(I2
I2
tp4707
a(I1
I2
tp4708
a(I1
I3
tp4709
a(I0
I3
tp4710
a(I0
I2
tp4711
a(I-1
I2
tp4712
a(I-1
I3
tp4713
a(I-2
I3
tp4714
a(I-2
I2
tp4715
a(I-3
I2
tp4716
a(I-3
I1
tp4717
a(I-2
I1
tp4718
a(I-1
I1
tp4719
a(I-1
I0
tp4720
a(I-1
I-1
tp4721
a(I-1
I-2
tp4722
a(I0
I-2
tp4723
a(I0
I-1
tp4724
a(I1
I-1
tp4725
a(I1
I-2
tp4726
aI0
tp4727
a((lp4728
g3
a(I1
I0
tp4729
a(I1
I-1
tp4730
a(I2
I-1
tp4731
a(I2
I-2
tp4732
a(I3
I-2
tp4733
a(I3
I-1
tp4734
a(I3
I0
tp4735
a(I2
I0
tp4736
a(I2
I1
tp4737
a(I2
I2
tp4738
a(I1
I2
tp4739
a(I1
I1
tp4740
a(I0
I1
tp4741
a(I-1
I1
tp4742
a(I-1
I2
tp4743
a(I-1
I3
tp4744
a(I-1
I4
tp4745
a(I-1
I5
tp4746
a(I-2
I5
tp4747
a(I-2
I4
tp4748
a(I-2
I3
tp4749
a(I-2
I2
tp4750
a(I-3
I2
tp4751
aI0
tp4752
a((lp4753
g3
a(I1
I0
tp4754
a(I1
I-1
tp4755
a(I1
I-2
tp4756
a(I2
I-2
tp4757
a(I2
I-3
tp4758
a(I1
I-3
tp4759
a(I1
I-4
tp4760
a(I1
I-5
tp4761
a(I2
I-5
tp4762
a(I3
I-5
tp4763
a(I3
I-4
tp4764
a(I4
I-4
tp4765
a(I4
I-3
tp4766
a(I4
I-2
tp4767
a(I5
I-2
tp4768
a(I6
I-2
tp4769
a(I6
I-3
tp4770
a(I6
I-4
tp4771
a(I5
I-4
tp4772
a(I5
I-5
tp4773
a(I4
I-5
tp4774
a(I4
I-6
tp4775
a(I4
I-7
tp4776
aI0
tp4777
a((lp4778
g3
a(I-1
I0
tp4779
a(I-2
I0
tp4780
a(I-2
I1
tp4781
a(I-2
I2
tp4782
a(I-2
I3
tp4783
a(I-3
I3
tp4784
a(I-4
I3
tp4785
a(I-4
I2
tp4786
a(I-3
I2
tp4787
a(I-3
I1
tp4788
a(I-4
I1
tp4789
a(I-5
I1
tp4790
a(I-5
I2
tp4791
a(I-6
I2
tp4792
a(I-6
I1
tp4793
a(I-7
I1
tp4794
a(I-7
I0
tp4795
a(I-6
I0
tp4796
a(I-6
I-1
tp4797
a(I-5
I-1
tp4798
a(I-4
I-1
tp4799
a(I-4
I-2
tp4800
a(I-3
I-2
tp4801
aI0
tp4802
a((lp4803
g3
a(I0
I-1
tp4804
a(I1
I-1
tp4805
a(I1
I0
tp4806
a(I1
I1
tp4807
a(I1
I2
tp4808
a(I0
I2
tp4809
a(I0
I1
tp4810
a(I-1
I1
tp4811
a(I-1
I2
tp4812
a(I-1
I3
tp4813
a(I-2
I3
tp4814
a(I-2
I4
tp4815
a(I-2
I5
tp4816
a(I-3
I5
tp4817
a(I-3
I4
tp4818
a(I-3
I3
tp4819
a(I-4
I3
tp4820
a(I-5
I3
tp4821
a(I-5
I4
tp4822
a(I-6
I4
tp4823
a(I-6
I5
tp4824
a(I-6
I6
tp4825
a(I-7
I6
tp4826
aI0
tp4827
a((lp4828
g3
a(I0
I1
tp4829
a(I0
I2
tp4830
a(I-1
I2
tp4831
a(I-1
I3
tp4832
a(I-2
I3
tp4833
a(I-2
I4
tp4834
a(I-3
I4
tp4835
a(I-3
I3
tp4836
a(I-3
I2
tp4837
a(I-2
I2
tp4838
a(I-2
I1
tp4839
a(I-2
I0
tp4840
a(I-1
I0
tp4841
a(I-1
I-1
tp4842
a(I0
I-1
tp4843
a(I1
I-1
tp4844
a(I2
I-1
tp4845
a(I3
I-1
tp4846
a(I3
I0
tp4847
a(I4
I0
tp4848
a(I5
I0
tp4849
a(I5
I1
tp4850
a(I4
I1
tp4851
aI0
tp4852
a((lp4853
g3
a(I-1
I0
tp4854
a(I-1
I-1
tp4855
a(I-2
I-1
tp4856
a(I-2
I-2
tp4857
a(I-2
I-3
tp4858
a(I-1
I-3
tp4859
a(I0
I-3
tp4860
a(I0
I-4
tp4861
a(I1
I-4
tp4862
a(I2
I-4
tp4863
a(I2
I-3
tp4864
a(I3
I-3
tp4865
a(I3
I-2
tp4866
a(I4
I-2
tp4867
a(I5
I-2
tp4868
a(I5
I-1
tp4869
a(I4
I-1
tp4870
a(I4
I0
tp4871
a(I4
I1
tp4872
a(I4
I2
tp4873
a(I5
I2
tp4874
a(I5
I3
tp4875
a(I4
I3
tp4876
aI0
tp4877
a((lp4878
g3
a(I0
I1
tp4879
a(I1
I1
tp4880
a(I2
I1
tp4881
a(I2
I0
tp4882
a(I2
I-1
tp4883
a(I2
I-2
tp4884
a(I3
I-2
tp4885
a(I4
I-2
tp4886
a(I4
I-1
tp4887
a(I5
I-1
tp4888
a(I6
I-1
tp4889
a(I6
I0
tp4890
a(I6
I1
tp4891
a(I7
I1
tp4892
a(I7
I2
tp4893
a(I7
I3
tp4894
a(I8
I3
tp4895
a(I8
I2
tp4896
a(I9
I2
tp4897
a(I9
I1
tp4898
a(I8
I1
tp4899
a(I8
I0
tp4900
a(I7
I0
tp4901
aI0
tp4902
a((lp4903
g3
a(I0
I-1
tp4904
a(I1
I-1
tp4905
a(I2
I-1
tp4906
a(I2
I-2
tp4907
a(I3
I-2
tp4908
a(I3
I-3
tp4909
a(I4
I-3
tp4910
a(I4
I-2
tp4911
a(I4
I-1
tp4912
a(I5
I-1
tp4913
a(I6
I-1
tp4914
a(I6
I-2
tp4915
a(I5
I-2
tp4916
a(I5
I-3
tp4917
a(I5
I-4
tp4918
a(I5
I-5
tp4919
a(I6
I-5
tp4920
a(I7
I-5
tp4921
a(I8
I-5
tp4922
a(I8
I-6
tp4923
a(I8
I-7
tp4924
a(I7
I-7
tp4925
a(I7
I-8
tp4926
aI0
tp4927
a((lp4928
g3
a(I0
I1
tp4929
a(I1
I1
tp4930
a(I1
I0
tp4931
a(I1
I-1
tp4932
a(I1
I-2
tp4933
a(I2
I-2
tp4934
a(I2
I-1
tp4935
a(I3
I-1
tp4936
a(I3
I0
tp4937
a(I4
I0
tp4938
a(I4
I-1
tp4939
a(I4
I-2
tp4940
a(I4
I-3
tp4941
a(I5
I-3
tp4942
a(I5
I-2
tp4943
a(I6
I-2
tp4944
a(I7
I-2
tp4945
a(I8
I-2
tp4946
a(I8
I-3
tp4947
a(I9
I-3
tp4948
a(I10
I-3
tp4949
a(I10
I-2
tp4950
a(I9
I-2
tp4951
aI0
tp4952
a((lp4953
g3
a(I1
I0
tp4954
a(I1
I-1
tp4955
a(I1
I-2
tp4956
a(I2
I-2
tp4957
a(I3
I-2
tp4958
a(I4
I-2
tp4959
a(I5
I-2
tp4960
a(I5
I-3
tp4961
a(I5
I-4
tp4962
a(I6
I-4
tp4963
a(I6
I-3
tp4964
a(I6
I-2
tp4965
a(I6
I-1
tp4966
a(I7
I-1
tp4967
a(I7
I0
tp4968
a(I6
I0
tp4969
a(I6
I1
tp4970
a(I5
I1
tp4971
a(I5
I2
tp4972
a(I4
I2
tp4973
a(I3
I2
tp4974
a(I3
I1
tp4975
a(I4
I1
tp4976
aI0
tp4977
a((lp4978
g3
a(I1
I0
tp4979
a(I1
I1
tp4980
a(I1
I2
tp4981
a(I2
I2
tp4982
a(I2
I1
tp4983
a(I2
I0
tp4984
a(I3
I0
tp4985
a(I4
I0
tp4986
a(I4
I-1
tp4987
a(I4
I-2
tp4988
a(I4
I-3
tp4989
a(I4
I-4
tp4990
a(I3
I-4
tp4991
a(I3
I-5
tp4992
a(I3
I-6
tp4993
a(I2
I-6
tp4994
a(I2
I-7
tp4995
a(I2
I-8
tp4996
a(I1
I-8
tp4997
a(I1
I-9
tp4998
a(I0
I-9
tp4999
a(I0
I-10
tp5000
a(I1
I-10
tp5001
aI0
tp5002
a.