(lp1
((lp2
(I0
I0
tp3
a(I0
I1
tp4
a(I1
I1
tp5
a(I1
I2
tp6
a(I0
I2
tp7
a(I0
I3
tp8
a(I1
I3
tp9
a(I2
I3
tp10
a(I2
I2
tp11
a(I3
I2
tp12
a(I3
I1
tp13
a(I3
I0
tp14
a(I3
I-1
tp15
a(I2
I-1
tp16
a(I2
I-2
tp17
a(I2
I-3
tp18
a(I2
I-4
tp19
a(I2
I-5
tp20
a(I2
I-6
tp21
a(I1
I-6
tp22
aI0
tp23
a((lp24
g3
a(I0
I-1
tp25
a(I1
I-1
tp26
a(I2
I-1
tp27
a(I2
I-2
tp28
a(I1
I-2
tp29
a(I1
I-3
tp30
a(I0
I-3
tp31
a(I-1
I-3
tp32
a(I-1
I-4
tp33
a(I-2
I-4
tp34
a(I-3
I-4
tp35
a(I-4
I-4
tp36
a(I-4
I-3
tp37
a(I-5
I-3
tp38
a(I-5
I-2
tp39
a(I-5
I-1
tp40
a(I-6
I-1
tp41
a(I-6
I0
tp42
a(I-6
I1
tp43
aI0
tp44
a((lp45
g3
a(I-1
I0
tp46
a(I-1
I-1
tp47
a(I-1
I-2
tp48
a(I0
I-2
tp49
a(I0
I-1
tp50
a(I1
I-1
tp51
a(I1
I-2
tp52
a(I2
I-2
tp53
a(I3
I-2
tp54
a(I3
I-1
tp55
a(I2
I-1
tp56
a(I2
I0
tp57
a(I2
I1
tp58
a(I1
I1
tp59
a(I0
I1
tp60
a(I-1
I1
tp61
a(I-2
I1
tp62
a(I-3
I1
tp63
a(I-3
I0
tp64
aI0
tp65
a((lp66
g3
a(I-1
I0
tp67
a(I-2
I0
tp68
a(I-2
I1
tp69
a(I-3
I1
tp70
a(I-3
I0
tp71
a(I-4
I0
tp72
a(I-4
I1
tp73
a(I-5
I1
tp74
a(I-5
I0
tp75
a(I-6
I0
tp76
a(I-7
I0
tp77
a(I-7
I-1
tp78
a(I-7
I-2
tp79
a(I-6
I-2
tp80
a(I-6
I-3
tp81
a(I-5
I-3
tp82
a(I-5
I-4
tp83
a(I-6
I-4
tp84
a(I-6
I-5
tp85
aI0
tp86
a((lp87
g3
a(I1
I0
tp88
a(I1
I-1
tp89
a(I1
I-2
tp90
a(I1
I-3
tp91
a(I0
I-3
tp92
a(I0
I-2
tp93
a(I-1
I-2
tp94
a(I-1
I-1
tp95
a(I-1
I0
tp96
a(I-2
I0
tp97
a(I-2
I-1
tp98
a(I-2
I-2
tp99
a(I-3
I-2
tp100
a(I-4
I-2
tp101
a(I-5
I-2
tp102
a(I-5
I-1
tp103
a(I-5
I0
tp104
a(I-6
I0
tp105
a(I-6
I1
tp106
aI0
tp107
a((lp108
g3
a(I0
I-1
tp109
a(I0
I-2
tp110
a(I0
I-3
tp111
a(I0
I-4
tp112
a(I1
I-4
tp113
a(I1
I-3
tp114
a(I1
I-2
tp115
a(I2
I-2
tp116
a(I3
I-2
tp117
a(I3
I-1
tp118
a(I2
I-1
tp119
a(I2
I0
tp120
a(I1
I0
tp121
a(I1
I1
tp122
a(I0
I1
tp123
a(I-1
I1
tp124
a(I-1
I0
tp125
a(I-1
I-1
tp126
a(I-2
I-1
tp127
aI0
tp128
a((lp129
g3
a(I0
I1
tp130
a(I1
I1
tp131
a(I2
I1
tp132
a(I3
I1
tp133
a(I3
I2
tp134
a(I4
I2
tp135
a(I5
I2
tp136
a(I5
I3
tp137
a(I6
I3
tp138
a(I7
I3
tp139
a(I8
I3
tp140
a(I8
I2
tp141
a(I9
I2
tp142
a(I9
I1
tp143
a(I9
I0
tp144
a(I9
I-1
tp145
a(I10
I-1
tp146
a(I10
I-2
tp147
a(I9
I-2
tp148
aI0
tp149
a((lp150
g3
a(I0
I-1
tp151
a(I-1
I-1
tp152
a(I-2
I-1
tp153
a(I-2
I-2
tp154
a(I-3
I-2
tp155
a(I-3
I-3
tp156
a(I-2
I-3
tp157
a(I-1
I-3
tp158
a(I-1
I-4
tp159
a(I0
I-4
tp160
a(I0
I-5
tp161
a(I0
I-6
tp162
a(I-1
I-6
tp163
a(I-1
I-7
tp164
a(I-1
I-8
tp165
a(I0
I-8
tp166
a(I0
I-7
tp167
a(I1
I-7
tp168
a(I1
I-8
tp169
aI0
tp170
a((lp171
g3
a(I-1
I0
tp172
a(I-2
I0
tp173
a(I-2
I-1
tp174
a(I-1
I-1
tp175
a(I-1
I-2
tp176
a(I-1
I-3
tp177
a(I0
I-3
tp178
a(I0
I-2
tp179
a(I1
I-2
tp180
a(I2
I-2
tp181
a(I3
I-2
tp182
a(I3
I-3
tp183
a(I2
I-3
tp184
a(I2
I-4
tp185
a(I2
I-5
tp186
a(I3
I-5
tp187
a(I4
I-5
tp188
a(I5
I-5
tp189
a(I5
I-6
tp190
aI0
tp191
a((lp192
g3
a(I0
I-1
tp193
a(I0
I-2
tp194
a(I1
I-2
tp195
a(I1
I-3
tp196
a(I0
I-3
tp197
a(I0
I-4
tp198
a(I1
I-4
tp199
a(I2
I-4
tp200
a(I3
I-4
tp201
a(I3
I-5
tp202
a(I2
I-5
tp203
a(I1
I-5
tp204
a(I1
I-6
tp205
a(I0
I-6
tp206
a(I0
I-7
tp207
a(I-1
I-7
tp208
a(I-2
I-7
tp209
a(I-3
I-7
tp210
a(I-3
I-8
tp211
aI0
tp212
a((lp213
g3
a(I0
I1
tp214
a(I0
I2
tp215
a(I1
I2
tp216
a(I1
I3
tp217
a(I2
I3
tp218
a(I2
I4
tp219
a(I2
I5
tp220
a(I2
I6
tp221
a(I2
I7
tp222
a(I1
I7
tp223
a(I0
I7
tp224
a(I0
I6
tp225
a(I-1
I6
tp226
a(I-1
I7
tp227
a(I-1
I8
tp228
a(I0
I8
tp229
a(I0
I9
tp230
a(I1
I9
tp231
a(I1
I10
tp232
aI0
tp233
a((lp234
g3
a(I1
I0
tp235
a(I1
I1
tp236
a(I1
I2
tp237
a(I2
I2
tp238
a(I2
I3
tp239
a(I1
I3
tp240
a(I0
I3
tp241
a(I0
I2
tp242
a(I-1
I2
tp243
a(I-1
I3
tp244
a(I-2
I3
tp245
a(I-3
I3
tp246
a(I-3
I4
tp247
a(I-4
I4
tp248
a(I-5
I4
tp249
a(I-5
I5
tp250
a(I-6
I5
tp251
a(I-6
I6
tp252
a(I-5
I6
tp253
aI0
tp254
a((lp255
g3
a(I1
I0
tp256
a(I1
I-1
tp257
a(I0
I-1
tp258
a(I-1
I-1
tp259
a(I-1
I0
tp260
a(I-1
I1
tp261
a(I-2
I1
tp262
a(I-3
I1
tp263
a(I-4
I1
tp264
a(I-4
I2
tp265
a(I-4
I3
tp266
a(I-4
I4
tp267
a(I-4
I5
tp268
a(I-5
I5
tp269
a(I-6
I5
tp270
a(I-6
I6
tp271
a(I-6
I7
tp272
a(I-5
I7
tp273
a(I-5
I8
tp274
aI0
tp275
a((lp276
g3
a(I0
I1
tp277
a(I-1
I1
tp278
a(I-2
I1
tp279
a(I-3
I1
tp280
a(I-4
I1
tp281
a(I-4
I0
tp282
a(I-3
I0
tp283
a(I-3
I-1
tp284
a(I-4
I-1
tp285
a(I-5
I-1
tp286
a(I-5
I-2
tp287
a(I-5
I-3
tp288
a(I-5
I-4
tp289
a(I-5
I-5
tp290
a(I-4
I-5
tp291
a(I-3
I-5
tp292
a(I-3
I-6
tp293
a(I-4
I-6
tp294
a(I-5
I-6
tp295
aI0
tp296
a((lp297
g3
a(I1
I0
tp298
a(I1
I-1
tp299
a(I2
I-1
tp300
a(I3
I-1
tp301
a(I3
I-2
tp302
a(I2
I-2
tp303
a(I2
I-3
tp304
a(I1
I-3
tp305
a(I1
I-2
tp306
a(I0
I-2
tp307
a(I0
I-1
tp308
a(I-1
I-1
tp309
a(I-1
I-2
tp310
a(I-2
I-2
tp311
a(I-3
I-2
tp312
a(I-3
I-1
tp313
a(I-3
I0
tp314
a(I-3
I1
tp315
a(I-3
I2
tp316
aI0
tp317
a((lp318
g3
a(I0
I1
tp319
a(I1
I1
tp320
a(I1
I2
tp321
a(I0
I2
tp322
a(I0
I3
tp323
a(I0
I4
tp324
a(I0
I5
tp325
a(I1
I5
tp326
a(I2
I5
tp327
a(I2
I6
tp328
a(I2
I7
tp329
a(I1
I7
tp330
a(I1
I6
tp331
a(I0
I6
tp332
a(I-1
I6
tp333
a(I-1
I7
tp334
a(I-1
I8
tp335
a(I0
I8
tp336
a(I0
I7
tp337
aI0
tp338
a((lp339
g3
a(I1
I0
tp340
a(I1
I-1
tp341
a(I2
I-1
tp342
a(I2
I-2
tp343
a(I2
I-3
tp344
a(I3
I-3
tp345
a(I3
I-2
tp346
a(I3
I-1
tp347
a(I4
I-1
tp348
a(I4
I-2
tp349
a(I5
I-2
tp350
a(I5
I-1
tp351
a(I6
I-1
tp352
a(I6
I-2
tp353
a(I7
I-2
tp354
a(I8
I-2
tp355
a(I8
I-3
tp356
a(I7
I-3
tp357
a(I6
I-3
tp358
aI0
tp359
a((lp360
g3
a(I1
I0
tp361
a(I2
I0
tp362
a(I2
I-1
tp363
a(I1
I-1
tp364
a(I1
I-2
tp365
a(I1
I-3
tp366
a(I0
I-3
tp367
a(I0
I-2
tp368
a(I-1
I-2
tp369
a(I-1
I-1
tp370
a(I-1
I0
tp371
a(I-2
I0
tp372
a(I-2
I-1
tp373
a(I-3
I-1
tp374
a(I-3
I-2
tp375
a(I-4
I-2
tp376
a(I-4
I-3
tp377
a(I-3
I-3
tp378
a(I-3
I-4
tp379
aI0
tp380
a((lp381
g3
a(I1
I0
tp382
a(I1
I-1
tp383
a(I0
I-1
tp384
a(I-1
I-1
tp385
a(I-1
I-2
tp386
a(I-1
I-3
tp387
a(I-1
I-4
tp388
a(I0
I-4
tp389
a(I0
I-3
tp390
a(I0
I-2
tp391
a(I1
I-2
tp392
a(I1
I-3
tp393
a(I1
I-4
tp394
a(I2
I-4
tp395
a(I2
I-5
tp396
a(I3
I-5
tp397
a(I3
I-4
tp398
a(I3
I-3
tp399
a(I4
I-3
tp400
aI0
tp401
a((lp402
g3
a(I0
I1
tp403
a(I1
I1
tp404
a(I1
I2
tp405
a(I0
I2
tp406
a(I-1
I2
tp407
a(I-2
I2
tp408
a(I-2
I1
tp409
a(I-1
I1
tp410
a(I-1
I0
tp411
a(I-1
I-1
tp412
a(I-2
I-1
tp413
a(I-3
I-1
tp414
a(I-3
I0
tp415
a(I-3
I1
tp416
a(I-4
I1
tp417
a(I-4
I0
tp418
a(I-5
I0
tp419
a(I-5
I-1
tp420
a(I-6
I-1
tp421
aI0
tp422
a((lp423
g3
a(I0
I-1
tp424
a(I0
I-2
tp425
a(I-1
I-2
tp426
a(I-1
I-1
tp427
a(I-2
I-1
tp428
a(I-3
I-1
tp429
a(I-3
I0
tp430
a(I-2
I0
tp431
a(I-2
I1
tp432
a(I-2
I2
tp433
a(I-3
I2
tp434
a(I-3
I3
tp435
a(I-3
I4
tp436
a(I-4
I4
tp437
a(I-4
I5
tp438
a(I-4
I6
tp439
a(I-4
I7
tp440
a(I-5
I7
tp441
a(I-5
I8
tp442
aI0
tp443
a((lp444
g3
a(I-1
I0
tp445
a(I-2
I0
tp446
a(I-2
I1
tp447
a(I-1
I1
tp448
a(I0
I1
tp449
a(I0
I2
tp450
a(I1
I2
tp451
a(I2
I2
tp452
a(I2
I3
tp453
a(I2
I4
tp454
a(I2
I5
tp455
a(I1
I5
tp456
a(I0
I5
tp457
a(I-1
I5
tp458
a(I-2
I5
tp459
a(I-2
I6
tp460
a(I-3
I6
tp461
a(I-4
I6
tp462
a(I-4
I5
tp463
aI0
tp464
a((lp465
g3
a(I0
I-1
tp466
a(I-1
I-1
tp467
a(I-2
I-1
tp468
a(I-2
I-2
tp469
a(I-3
I-2
tp470
a(I-3
I-1
tp471
a(I-3
I0
tp472
a(I-2
I0
tp473
a(I-2
I1
tp474
a(I-1
I1
tp475
a(I-1
I2
tp476
a(I-2
I2
tp477
a(I-2
I3
tp478
a(I-2
I4
tp479
a(I-3
I4
tp480
a(I-3
I5
tp481
a(I-4
I5
tp482
a(I-4
I4
tp483
a(I-4
I3
tp484
aI0
tp485
a((lp486
g3
a(I0
I1
tp487
a(I0
I2
tp488
a(I-1
I2
tp489
a(I-1
I3
tp490
a(I-1
I4
tp491
a(I-1
I5
tp492
a(I0
I5
tp493
a(I0
I4
tp494
a(I1
I4
tp495
a(I1
I3
tp496
a(I1
I2
tp497
a(I1
I1
tp498
a(I2
I1
tp499
a(I2
I2
tp500
a(I2
I3
tp501
a(I2
I4
tp502
a(I3
I4
tp503
a(I3
I5
tp504
a(I4
I5
tp505
aI0
tp506
a((lp507
g3
a(I-1
I0
tp508
a(I-2
I0
tp509
a(I-2
I-1
tp510
a(I-2
I-2
tp511
a(I-2
I-3
tp512
a(I-3
I-3
tp513
a(I-3
I-4
tp514
a(I-3
I-5
tp515
a(I-4
I-5
tp516
a(I-5
I-5
tp517
a(I-5
I-6
tp518
a(I-4
I-6
tp519
a(I-4
I-7
tp520
a(I-3
I-7
tp521
a(I-3
I-6
tp522
a(I-2
I-6
tp523
a(I-2
I-5
tp524
a(I-2
I-4
tp525
a(I-1
I-4
tp526
aI0
tp527
a((lp528
g3
a(I-1
I0
tp529
a(I-2
I0
tp530
a(I-2
I1
tp531
a(I-2
I2
tp532
a(I-3
I2
tp533
a(I-3
I1
tp534
a(I-3
I0
tp535
a(I-3
I-1
tp536
a(I-4
I-1
tp537
a(I-5
I-1
tp538
a(I-5
I-2
tp539
a(I-5
I-3
tp540
a(I-6
I-3
tp541
a(I-7
I-3
tp542
a(I-8
I-3
tp543
a(I-8
I-4
tp544
a(I-9
I-4
tp545
a(I-9
I-3
tp546
a(I-9
I-2
tp547
aI0
tp548
a((lp549
g3
a(I-1
I0
tp550
a(I-1
I-1
tp551
a(I-2
I-1
tp552
a(I-2
I-2
tp553
a(I-2
I-3
tp554
a(I-1
I-3
tp555
a(I-1
I-4
tp556
a(I-1
I-5
tp557
a(I-1
I-6
tp558
a(I-2
I-6
tp559
a(I-2
I-7
tp560
a(I-1
I-7
tp561
a(I0
I-7
tp562
a(I0
I-8
tp563
a(I0
I-9
tp564
a(I-1
I-9
tp565
a(I-1
I-10
tp566
a(I-1
I-11
tp567
a(I-2
I-11
tp568
aI0
tp569
a((lp570
g3
a(I0
I-1
tp571
a(I0
I-2
tp572
a(I0
I-3
tp573
a(I0
I-4
tp574
a(I0
I-5
tp575
a(I1
I-5
tp576
a(I1
I-6
tp577
a(I2
I-6
tp578
a(I2
I-5
tp579
a(I3
I-5
tp580
a(I3
I-4
tp581
a(I2
I-4
tp582
a(I1
I-4
tp583
a(I1
I-3
tp584
a(I2
I-3
tp585
a(I3
I-3
tp586
a(I3
I-2
tp587
a(I4
I-2
tp588
a(I4
I-1
tp589
aI0
tp590
a((lp591
g3
a(I0
I1
tp592
a(I-1
I1
tp593
a(I-1
I0
tp594
a(I-1
I-1
tp595
a(I-1
I-2
tp596
a(I0
I-2
tp597
a(I0
I-1
tp598
a(I1
I-1
tp599
a(I1
I0
tp600
a(I1
I1
tp601
a(I1
I2
tp602
a(I0
I2
tp603
a(I-1
I2
tp604
a(I-2
I2
tp605
a(I-3
I2
tp606
a(I-3
I3
tp607
a(I-3
I4
tp608
a(I-4
I4
tp609
a(I-4
I3
tp610
aI0
tp611
a((lp612
g3
a(I-1
I0
tp613
a(I-1
I1
tp614
a(I-1
I2
tp615
a(I-2
I2
tp616
a(I-2
I3
tp617
a(I-1
I3
tp618
a(I0
I3
tp619
a(I1
I3
tp620
a(I1
I4
tp621
a(I0
I4
tp622
a(I-1
I4
tp623
a(I-1
I5
tp624
a(I0
I5
tp625
a(I1
I5
tp626
a(I1
I6
tp627
a(I0
I6
tp628
a(I0
I7
tp629
a(I1
I7
tp630
a(I1
I8
tp631
aI0
tp632
a((lp633
g3
a(I0
I-1
tp634
a(I-1
I-1
tp635
a(I-1
I-2
tp636
a(I0
I-2
tp637
a(I0
I-3
tp638
a(I1
I-3
tp639
a(I1
I-4
tp640
a(I0
I-4
tp641
a(I0
I-5
tp642
a(I1
I-5
tp643
a(I2
I-5
tp644
a(I3
I-5
tp645
a(I3
I-4
tp646
a(I3
I-3
tp647
a(I4
I-3
tp648
a(I4
I-2
tp649
a(I4
I-1
tp650
a(I5
I-1
tp651
a(I6
I-1
tp652
aI0
tp653
a((lp654
g3
a(I1
I0
tp655
a(I2
I0
tp656
a(I2
I-1
tp657
a(I3
I-1
tp658
a(I3
I-2
tp659
a(I4
I-2
tp660
a(I4
I-1
tp661
a(I4
I0
tp662
a(I5
I0
tp663
a(I5
I-1
tp664
a(I6
I-1
tp665
a(I6
I0
tp666
a(I6
I1
tp667
a(I6
I2
tp668
a(I6
I3
tp669
a(I7
I3
tp670
a(I7
I2
tp671
a(I8
I2
tp672
a(I8
I1
tp673
aI0
tp674
a((lp675
g3
a(I0
I-1
tp676
a(I1
I-1
tp677
a(I1
I0
tp678
a(I2
I0
tp679
a(I2
I-1
tp680
a(I3
I-1
tp681
a(I3
I0
tp682
a(I4
I0
tp683
a(I5
I0
tp684
a(I5
I-1
tp685
a(I5
I-2
tp686
a(I5
I-3
tp687
a(I6
I-3
tp688
a(I6
I-2
tp689
a(I7
I-2
tp690
a(I8
I-2
tp691
a(I8
I-1
tp692
a(I9
I-1
tp693
a(I10
I-1
tp694
aI0
tp695
a((lp696
g3
a(I-1
I0
tp697
a(I-1
I1
tp698
a(I0
I1
tp699
a(I1
I1
tp700
a(I2
I1
tp701
a(I2
I0
tp702
a(I2
I-1
tp703
a(I2
I-2
tp704
a(I2
I-3
tp705
a(I1
I-3
tp706
a(I1
I-4
tp707
a(I1
I-5
tp708
a(I1
I-6
tp709
a(I2
I-6
tp710
a(I2
I-7
tp711
a(I2
I-8
tp712
a(I3
I-8
tp713
a(I3
I-9
tp714
a(I4
I-9
tp715
aI0
tp716
a((lp717
g3
a(I0
I1
tp718
a(I1
I1
tp719
a(I1
I2
tp720
a(I1
I3
tp721
a(I0
I3
tp722
a(I0
I2
tp723
a(I-1
I2
tp724
a(I-1
I3
tp725
a(I-2
I3
tp726
a(I-3
I3
tp727
a(I-4
I3
tp728
a(I-4
I4
tp729
a(I-3
I4
tp730
a(I-3
I5
tp731
a(I-3
I6
tp732
a(I-4
I6
tp733
a(I-5
I6
tp734
a(I-5
I7
tp735
a(I-6
I7
tp736
aI0
tp737
a((lp738
g3
a(I-1
I0
tp739
a(I-2
I0
tp740
a(I-2
I-1
tp741
a(I-3
I-1
tp742
a(I-3
I0
tp743
a(I-3
I1
tp744
a(I-2
I1
tp745
a(I-2
I2
tp746
a(I-2
I3
tp747
a(I-2
I4
tp748
a(I-1
I4
tp749
a(I-1
I3
tp750
a(I0
I3
tp751
a(I0
I2
tp752
a(I0
I1
tp753
a(I1
I1
tp754
a(I2
I1
tp755
a(I2
I0
tp756
a(I3
I0
tp757
aI0
tp758
a((lp759
g3
a(I-1
I0
tp760
a(I-1
I1
tp761
a(I-2
I1
tp762
a(I-2
I0
tp763
a(I-2
I-1
tp764
a(I-2
I-2
tp765
a(I-1
I-2
tp766
a(I0
I-2
tp767
a(I0
I-1
tp768
a(I1
I-1
tp769
a(I2
I-1
tp770
a(I2
I-2
tp771
a(I1
I-2
tp772
a(I1
I-3
tp773
a(I1
I-4
tp774
a(I2
I-4
tp775
a(I3
I-4
tp776
a(I3
I-3
tp777
a(I2
I-3
tp778
aI0
tp779
a((lp780
g3
a(I0
I-1
tp781
a(I0
I-2
tp782
a(I1
I-2
tp783
a(I2
I-2
tp784
a(I2
I-1
tp785
a(I1
I-1
tp786
a(I1
I0
tp787
a(I2
I0
tp788
a(I3
I0
tp789
a(I3
I1
tp790
a(I4
I1
tp791
a(I4
I2
tp792
a(I5
I2
tp793
a(I5
I1
tp794
a(I6
I1
tp795
a(I6
I0
tp796
a(I6
I-1
tp797
a(I5
I-1
tp798
a(I5
I-2
tp799
aI0
tp800
a((lp801
g3
a(I1
I0
tp802
a(I1
I1
tp803
a(I1
I2
tp804
a(I0
I2
tp805
a(I-1
I2
tp806
a(I-2
I2
tp807
a(I-2
I3
tp808
a(I-1
I3
tp809
a(I0
I3
tp810
a(I1
I3
tp811
a(I2
I3
tp812
a(I3
I3
tp813
a(I3
I2
tp814
a(I4
I2
tp815
a(I4
I1
tp816
a(I5
I1
tp817
a(I6
I1
tp818
a(I7
I1
tp819
a(I8
I1
tp820
aI0
tp821
a((lp822
g3
a(I0
I-1
tp823
a(I0
I-2
tp824
a(I-1
I-2
tp825
a(I-1
I-3
tp826
a(I-2
I-3
tp827
a(I-3
I-3
tp828
a(I-3
I-4
tp829
a(I-3
I-5
tp830
a(I-4
I-5
tp831
a(I-4
I-6
tp832
a(I-3
I-6
tp833
a(I-3
I-7
tp834
a(I-2
I-7
tp835
a(I-1
I-7
tp836
a(I-1
I-8
tp837
a(I-1
I-9
tp838
a(I-1
I-10
tp839
a(I-1
I-11
tp840
a(I-2
I-11
tp841
aI0
tp842
a((lp843
g3
a(I0
I-1
tp844
a(I0
I-2
tp845
a(I1
I-2
tp846
a(I2
I-2
tp847
a(I3
I-2
tp848
a(I3
I-1
tp849
a(I4
I-1
tp850
a(I4
I-2
tp851
a(I4
I-3
tp852
a(I3
I-3
tp853
a(I3
I-4
tp854
a(I4
I-4
tp855
a(I4
I-5
tp856
a(I5
I-5
tp857
a(I6
I-5
tp858
a(I7
I-5
tp859
a(I7
I-4
tp860
a(I8
I-4
tp861
a(I8
I-3
tp862
aI0
tp863
a((lp864
g3
a(I1
I0
tp865
a(I2
I0
tp866
a(I2
I1
tp867
a(I2
I2
tp868
a(I3
I2
tp869
a(I3
I3
tp870
a(I2
I3
tp871
a(I1
I3
tp872
a(I0
I3
tp873
a(I0
I4
tp874
a(I0
I5
tp875
a(I0
I6
tp876
a(I-1
I6
tp877
a(I-1
I7
tp878
a(I-1
I8
tp879
a(I0
I8
tp880
a(I1
I8
tp881
a(I2
I8
tp882
a(I2
I7
tp883
aI0
tp884
a((lp885
g3
a(I0
I1
tp886
a(I-1
I1
tp887
a(I-2
I1
tp888
a(I-2
I2
tp889
a(I-1
I2
tp890
a(I0
I2
tp891
a(I0
I3
tp892
a(I-1
I3
tp893
a(I-1
I4
tp894
a(I0
I4
tp895
a(I0
I5
tp896
a(I1
I5
tp897
a(I1
I6
tp898
a(I0
I6
tp899
a(I0
I7
tp900
a(I-1
I7
tp901
a(I-1
I8
tp902
a(I-1
I9
tp903
a(I-1
I10
tp904
aI0
tp905
a((lp906
g3
a(I0
I-1
tp907
a(I1
I-1
tp908
a(I2
I-1
tp909
a(I3
I-1
tp910
a(I3
I0
tp911
a(I3
I1
tp912
a(I2
I1
tp913
a(I2
I2
tp914
a(I3
I2
tp915
a(I3
I3
tp916
a(I2
I3
tp917
a(I2
I4
tp918
a(I1
I4
tp919
a(I1
I5
tp920
a(I1
I6
tp921
a(I0
I6
tp922
a(I0
I5
tp923
a(I-1
I5
tp924
a(I-1
I6
tp925
aI0
tp926
a((lp927
g3
a(I0
I1
tp928
a(I-1
I1
tp929
a(I-1
I0
tp930
a(I-1
I-1
tp931
a(I0
I-1
tp932
a(I1
I-1
tp933
a(I1
I0
tp934
a(I1
I1
tp935
a(I2
I1
tp936
a(I2
I0
tp937
a(I2
I-1
tp938
a(I3
I-1
tp939
a(I4
I-1
tp940
a(I5
I-1
tp941
a(I5
I0
tp942
a(I5
I1
tp943
a(I4
I1
tp944
a(I4
I2
tp945
a(I4
I3
tp946
aI0
tp947
a((lp948
g3
a(I1
I0
tp949
a(I2
I0
tp950
a(I2
I-1
tp951
a(I1
I-1
tp952
a(I1
I-2
tp953
a(I1
I-3
tp954
a(I1
I-4
tp955
a(I2
I-4
tp956
a(I2
I-3
tp957
a(I3
I-3
tp958
a(I3
I-4
tp959
a(I3
I-5
tp960
a(I4
I-5
tp961
a(I4
I-4
tp962
a(I5
I-4
tp963
a(I5
I-5
tp964
a(I6
I-5
tp965
a(I6
I-4
tp966
a(I7
I-4
tp967
aI0
tp968
a((lp969
g3
a(I0
I1
tp970
a(I1
I1
tp971
a(I2
I1
tp972
a(I3
I1
tp973
a(I3
I0
tp974
a(I4
I0
tp975
a(I5
I0
tp976
a(I5
I1
tp977
a(I6
I1
tp978
a(I7
I1
tp979
a(I7
I0
tp980
a(I7
I-1
tp981
a(I7
I-2
tp982
a(I6
I-2
tp983
a(I6
I-1
tp984
a(I5
I-1
tp985
a(I5
I-2
tp986
a(I5
I-3
tp987
a(I5
I-4
tp988
aI0
tp989
a((lp990
g3
a(I0
I-1
tp991
a(I1
I-1
tp992
a(I1
I-2
tp993
a(I1
I-3
tp994
a(I1
I-4
tp995
a(I1
I-5
tp996
a(I0
I-5
tp997
a(I-1
I-5
tp998
a(I-2
I-5
tp999
a(I-3
I-5
tp1000
a(I-4
I-5
tp1001
a(I-4
I-6
tp1002
a(I-5
I-6
tp1003
a(I-5
I-7
tp1004
a(I-6
I-7
tp1005
a(I-7
I-7
tp1006
a(I-8
I-7
tp1007
a(I-8
I-6
tp1008
a(I-8
I-5
tp1009
aI0
tp1010
a((lp1011
g3
a(I1
I0
tp1012
a(I2
I0
tp1013
a(I2
I1
tp1014
a(I3
I1
tp1015
a(I3
I0
tp1016
a(I4
I0
tp1017
a(I4
I1
tp1018
a(I5
I1
tp1019
a(I5
I2
tp1020
a(I5
I3
tp1021
a(I6
I3
tp1022
a(I6
I4
tp1023
a(I7
I4
tp1024
a(I7
I5
tp1025
a(I8
I5
tp1026
a(I9
I5
tp1027
a(I10
I5
tp1028
a(I10
I4
tp1029
a(I10
I3
tp1030
aI0
tp1031
a((lp1032
g3
a(I0
I1
tp1033
a(I-1
I1
tp1034
a(I-1
I2
tp1035
a(I-1
I3
tp1036
a(I-1
I4
tp1037
a(I0
I4
tp1038
a(I0
I5
tp1039
a(I1
I5
tp1040
a(I2
I5
tp1041
a(I2
I6
tp1042
a(I3
I6
tp1043
a(I3
I5
tp1044
a(I3
I4
tp1045
a(I4
I4
tp1046
a(I4
I3
tp1047
a(I3
I3
tp1048
a(I2
I3
tp1049
a(I2
I4
tp1050
a(I1
I4
tp1051
aI0
tp1052
a((lp1053
g3
a(I0
I1
tp1054
a(I1
I1
tp1055
a(I1
I2
tp1056
a(I0
I2
tp1057
a(I-1
I2
tp1058
a(I-1
I1
tp1059
a(I-2
I1
tp1060
a(I-2
I2
tp1061
a(I-2
I3
tp1062
a(I-3
I3
tp1063
a(I-4
I3
tp1064
a(I-4
I4
tp1065
a(I-4
I5
tp1066
a(I-4
I6
tp1067
a(I-3
I6
tp1068
a(I-2
I6
tp1069
a(I-1
I6
tp1070
a(I0
I6
tp1071
a(I1
I6
tp1072
aI0
tp1073
a((lp1074
g3
a(I0
I1
tp1075
a(I1
I1
tp1076
a(I1
I0
tp1077
a(I2
I0
tp1078
a(I2
I1
tp1079
a(I3
I1
tp1080
a(I3
I0
tp1081
a(I3
I-1
tp1082
a(I2
I-1
tp1083
a(I1
I-1
tp1084
a(I1
I-2
tp1085
a(I0
I-2
tp1086
a(I0
I-3
tp1087
a(I-1
I-3
tp1088
a(I-2
I-3
tp1089
a(I-2
I-2
tp1090
a(I-1
I-2
tp1091
a(I-1
I-1
tp1092
a(I-2
I-1
tp1093
aI0
tp1094
a((lp1095
g3
a(I0
I1
tp1096
a(I0
I2
tp1097
a(I0
I3
tp1098
a(I-1
I3
tp1099
a(I-2
I3
tp1100
a(I-2
I4
tp1101
a(I-3
I4
tp1102
a(I-4
I4
tp1103
a(I-5
I4
tp1104
a(I-6
I4
tp1105
a(I-6
I5
tp1106
a(I-7
I5
tp1107
a(I-7
I4
tp1108
a(I-8
I4
tp1109
a(I-9
I4
tp1110
a(I-9
I5
tp1111
a(I-10
I5
tp1112
a(I-11
I5
tp1113
a(I-12
I5
tp1114
aI0
tp1115
a((lp1116
g3
a(I0
I1
tp1117
a(I1
I1
tp1118
a(I1
I2
tp1119
a(I1
I3
tp1120
a(I2
I3
tp1121
a(I3
I3
tp1122
a(I3
I2
tp1123
a(I2
I2
tp1124
a(I2
I1
tp1125
a(I3
I1
tp1126
a(I3
I0
tp1127
a(I3
I-1
tp1128
a(I3
I-2
tp1129
a(I4
I-2
tp1130
a(I4
I-1
tp1131
a(I4
I0
tp1132
a(I5
I0
tp1133
a(I5
I1
tp1134
a(I5
I2
tp1135
aI0
tp1136
a((lp1137
g3
a(I0
I-1
tp1138
a(I-1
I-1
tp1139
a(I-1
I-2
tp1140
a(I-1
I-3
tp1141
a(I-1
I-4
tp1142
a(I0
I-4
tp1143
a(I1
I-4
tp1144
a(I1
I-3
tp1145
a(I2
I-3
tp1146
a(I2
I-4
tp1147
a(I3
I-4
tp1148
a(I3
I-5
tp1149
a(I4
I-5
tp1150
a(I5
I-5
tp1151
a(I5
I-4
tp1152
a(I6
I-4
tp1153
a(I7
I-4
tp1154
a(I7
I-5
tp1155
a(I6
I-5
tp1156
aI0
tp1157
a((lp1158
g3
a(I-1
I0
tp1159
a(I-1
I-1
tp1160
a(I-2
I-1
tp1161
a(I-2
I0
tp1162
a(I-2
I1
tp1163
a(I-1
I1
tp1164
a(I0
I1
tp1165
a(I0
I2
tp1166
a(I0
I3
tp1167
a(I0
I4
tp1168
a(I1
I4
tp1169
a(I1
I3
tp1170
a(I1
I2
tp1171
a(I1
I1
tp1172
a(I2
I1
tp1173
a(I2
I2
tp1174
a(I3
I2
tp1175
a(I3
I1
tp1176
a(I3
I0
tp1177
aI0
tp1178
a((lp1179
g3
a(I0
I1
tp1180
a(I1
I1
tp1181
a(I1
I0
tp1182
a(I2
I0
tp1183
a(I3
I0
tp1184
a(I4
I0
tp1185
a(I5
I0
tp1186
a(I5
I1
tp1187
a(I6
I1
tp1188
a(I6
I2
tp1189
a(I6
I3
tp1190
a(I5
I3
tp1191
a(I4
I3
tp1192
a(I4
I2
tp1193
a(I4
I1
tp1194
a(I3
I1
tp1195
a(I2
I1
tp1196
a(I2
I2
tp1197
a(I3
I2
tp1198
aI0
tp1199
a((lp1200
g3
a(I1
I0
tp1201
a(I1
I1
tp1202
a(I1
I2
tp1203
a(I1
I3
tp1204
a(I2
I3
tp1205
a(I2
I2
tp1206
a(I2
I1
tp1207
a(I2
I0
tp1208
a(I3
I0
tp1209
a(I3
I1
tp1210
a(I4
I1
tp1211
a(I4
I2
tp1212
a(I4
I3
tp1213
a(I5
I3
tp1214
a(I6
I3
tp1215
a(I6
I4
tp1216
a(I7
I4
tp1217
a(I8
I4
tp1218
a(I8
I5
tp1219
aI0
tp1220
a((lp1221
g3
a(I0
I-1
tp1222
a(I-1
I-1
tp1223
a(I-2
I-1
tp1224
a(I-3
I-1
tp1225
a(I-4
I-1
tp1226
a(I-4
I0
tp1227
a(I-5
I0
tp1228
a(I-5
I1
tp1229
a(I-4
I1
tp1230
a(I-3
I1
tp1231
a(I-3
I0
tp1232
a(I-2
I0
tp1233
a(I-2
I1
tp1234
a(I-2
I2
tp1235
a(I-2
I3
tp1236
a(I-2
I4
tp1237
a(I-1
I4
tp1238
a(I-1
I3
tp1239
a(I-1
I2
tp1240
aI0
tp1241
a((lp1242
g3
a(I1
I0
tp1243
a(I2
I0
tp1244
a(I3
I0
tp1245
a(I3
I1
tp1246
a(I4
I1
tp1247
a(I4
I2
tp1248
a(I5
I2
tp1249
a(I6
I2
tp1250
a(I7
I2
tp1251
a(I7
I3
tp1252
a(I6
I3
tp1253
a(I6
I4
tp1254
a(I5
I4
tp1255
a(I5
I3
tp1256
a(I4
I3
tp1257
a(I4
I4
tp1258
a(I4
I5
tp1259
a(I5
I5
tp1260
a(I6
I5
tp1261
aI0
tp1262
a((lp1263
g3
a(I-1
I0
tp1264
a(I-2
I0
tp1265
a(I-2
I-1
tp1266
a(I-1
I-1
tp1267
a(I0
I-1
tp1268
a(I0
I-2
tp1269
a(I0
I-3
tp1270
a(I1
I-3
tp1271
a(I2
I-3
tp1272
a(I2
I-4
tp1273
a(I2
I-5
tp1274
a(I1
I-5
tp1275
a(I1
I-6
tp1276
a(I1
I-7
tp1277
a(I1
I-8
tp1278
a(I2
I-8
tp1279
a(I2
I-9
tp1280
a(I2
I-10
tp1281
a(I2
I-11
tp1282
aI0
tp1283
a((lp1284
g3
a(I0
I-1
tp1285
a(I1
I-1
tp1286
a(I2
I-1
tp1287
a(I2
I0
tp1288
a(I1
I0
tp1289
a(I1
I1
tp1290
a(I2
I1
tp1291
a(I3
I1
tp1292
a(I3
I0
tp1293
a(I4
I0
tp1294
a(I5
I0
tp1295
a(I6
I0
tp1296
a(I6
I-1
tp1297
a(I6
I-2
tp1298
a(I5
I-2
tp1299
a(I5
I-3
tp1300
a(I5
I-4
tp1301
a(I4
I-4
tp1302
a(I4
I-3
tp1303
aI0
tp1304
a((lp1305
g3
a(I0
I1
tp1306
a(I0
I2
tp1307
a(I0
I3
tp1308
a(I0
I4
tp1309
a(I1
I4
tp1310
a(I1
I3
tp1311
a(I1
I2
tp1312
a(I1
I1
tp1313
a(I2
I1
tp1314
a(I2
I2
tp1315
a(I2
I3
tp1316
a(I2
I4
tp1317
a(I2
I5
tp1318
a(I3
I5
tp1319
a(I3
I4
tp1320
a(I4
I4
tp1321
a(I4
I3
tp1322
a(I5
I3
tp1323
a(I5
I2
tp1324
aI0
tp1325
a((lp1326
g3
a(I0
I-1
tp1327
a(I-1
I-1
tp1328
a(I-2
I-1
tp1329
a(I-2
I-2
tp1330
a(I-2
I-3
tp1331
a(I-2
I-4
tp1332
a(I-1
I-4
tp1333
a(I-1
I-5
tp1334
a(I-2
I-5
tp1335
a(I-3
I-5
tp1336
a(I-3
I-4
tp1337
a(I-4
I-4
tp1338
a(I-4
I-5
tp1339
a(I-5
I-5
tp1340
a(I-6
I-5
tp1341
a(I-6
I-4
tp1342
a(I-6
I-3
tp1343
a(I-7
I-3
tp1344
a(I-7
I-4
tp1345
aI0
tp1346
a((lp1347
g3
a(I-1
I0
tp1348
a(I-1
I-1
tp1349
a(I-2
I-1
tp1350
a(I-3
I-1
tp1351
a(I-4
I-1
tp1352
a(I-4
I-2
tp1353
a(I-5
I-2
tp1354
a(I-5
I-1
tp1355
a(I-5
I0
tp1356
a(I-6
I0
tp1357
a(I-6
I-1
tp1358
a(I-7
I-1
tp1359
a(I-7
I-2
tp1360
a(I-6
I-2
tp1361
a(I-6
I-3
tp1362
a(I-5
I-3
tp1363
a(I-4
I-3
tp1364
a(I-4
I-4
tp1365
a(I-3
I-4
tp1366
aI0
tp1367
a((lp1368
g3
a(I0
I-1
tp1369
a(I1
I-1
tp1370
a(I1
I0
tp1371
a(I1
I1
tp1372
a(I1
I2
tp1373
a(I2
I2
tp1374
a(I3
I2
tp1375
a(I4
I2
tp1376
a(I4
I3
tp1377
a(I3
I3
tp1378
a(I2
I3
tp1379
a(I1
I3
tp1380
a(I0
I3
tp1381
a(I0
I4
tp1382
a(I1
I4
tp1383
a(I2
I4
tp1384
a(I2
I5
tp1385
a(I1
I5
tp1386
a(I1
I6
tp1387
aI0
tp1388
a((lp1389
g3
a(I-1
I0
tp1390
a(I-1
I-1
tp1391
a(I-2
I-1
tp1392
a(I-2
I0
tp1393
a(I-2
I1
tp1394
a(I-2
I2
tp1395
a(I-2
I3
tp1396
a(I-3
I3
tp1397
a(I-3
I2
tp1398
a(I-3
I1
tp1399
a(I-3
I0
tp1400
a(I-3
I-1
tp1401
a(I-3
I-2
tp1402
a(I-2
I-2
tp1403
a(I-2
I-3
tp1404
a(I-1
I-3
tp1405
a(I0
I-3
tp1406
a(I0
I-2
tp1407
a(I0
I-1
tp1408
aI0
tp1409
a((lp1410
g3
a(I1
I0
tp1411
a(I1
I1
tp1412
a(I0
I1
tp1413
a(I0
I2
tp1414
a(I0
I3
tp1415
a(I0
I4
tp1416
a(I1
I4
tp1417
a(I2
I4
tp1418
a(I2
I3
tp1419
a(I1
I3
tp1420
a(I1
I2
tp1421
a(I2
I2
tp1422
a(I3
I2
tp1423
a(I3
I1
tp1424
a(I2
I1
tp1425
a(I2
I0
tp1426
a(I2
I-1
tp1427
a(I1
I-1
tp1428
a(I1
I-2
tp1429
aI0
tp1430
a((lp1431
g3
a(I1
I0
tp1432
a(I1
I1
tp1433
a(I1
I2
tp1434
a(I0
I2
tp1435
a(I0
I1
tp1436
a(I-1
I1
tp1437
a(I-2
I1
tp1438
a(I-2
I2
tp1439
a(I-3
I2
tp1440
a(I-4
I2
tp1441
a(I-4
I1
tp1442
a(I-4
I0
tp1443
a(I-4
I-1
tp1444
a(I-4
I-2
tp1445
a(I-4
I-3
tp1446
a(I-5
I-3
tp1447
a(I-5
I-4
tp1448
a(I-6
I-4
tp1449
a(I-7
I-4
tp1450
aI0
tp1451
a((lp1452
g3
a(I1
I0
tp1453
a(I1
I1
tp1454
a(I1
I2
tp1455
a(I2
I2
tp1456
a(I2
I1
tp1457
a(I2
I0
tp1458
a(I3
I0
tp1459
a(I4
I0
tp1460
a(I5
I0
tp1461
a(I5
I1
tp1462
a(I6
I1
tp1463
a(I6
I0
tp1464
a(I6
I-1
tp1465
a(I6
I-2
tp1466
a(I6
I-3
tp1467
a(I5
I-3
tp1468
a(I4
I-3
tp1469
a(I4
I-2
tp1470
a(I3
I-2
tp1471
aI0
tp1472
a((lp1473
g3
a(I0
I-1
tp1474
a(I0
I-2
tp1475
a(I1
I-2
tp1476
a(I1
I-1
tp1477
a(I1
I0
tp1478
a(I2
I0
tp1479
a(I2
I1
tp1480
a(I2
I2
tp1481
a(I1
I2
tp1482
a(I1
I1
tp1483
a(I0
I1
tp1484
a(I0
I2
tp1485
a(I0
I3
tp1486
a(I0
I4
tp1487
a(I0
I5
tp1488
a(I-1
I5
tp1489
a(I-1
I6
tp1490
a(I-2
I6
tp1491
a(I-2
I7
tp1492
aI0
tp1493
a((lp1494
g3
a(I1
I0
tp1495
a(I2
I0
tp1496
a(I2
I1
tp1497
a(I2
I2
tp1498
a(I3
I2
tp1499
a(I4
I2
tp1500
a(I4
I3
tp1501
a(I5
I3
tp1502
a(I5
I4
tp1503
a(I5
I5
tp1504
a(I6
I5
tp1505
a(I7
I5
tp1506
a(I8
I5
tp1507
a(I8
I6
tp1508
a(I8
I7
tp1509
a(I9
I7
tp1510
a(I9
I8
tp1511
a(I10
I8
tp1512
a(I10
I7
tp1513
aI0
tp1514
a((lp1515
g3
a(I0
I1
tp1516
a(I-1
I1
tp1517
a(I-1
I2
tp1518
a(I-2
I2
tp1519
a(I-2
I1
tp1520
a(I-3
I1
tp1521
a(I-3
I2
tp1522
a(I-4
I2
tp1523
a(I-4
I1
tp1524
a(I-4
I0
tp1525
a(I-4
I-1
tp1526
a(I-4
I-2
tp1527
a(I-3
I-2
tp1528
a(I-2
I-2
tp1529
a(I-2
I-1
tp1530
a(I-1
I-1
tp1531
a(I-1
I-2
tp1532
a(I0
I-2
tp1533
a(I0
I-3
tp1534
aI0
tp1535
a((lp1536
g3
a(I0
I1
tp1537
a(I-1
I1
tp1538
a(I-1
I0
tp1539
a(I-2
I0
tp1540
a(I-2
I-1
tp1541
a(I-1
I-1
tp1542
a(I0
I-1
tp1543
a(I0
I-2
tp1544
a(I0
I-3
tp1545
a(I0
I-4
tp1546
a(I-1
I-4
tp1547
a(I-2
I-4
tp1548
a(I-2
I-3
tp1549
a(I-1
I-3
tp1550
a(I-1
I-2
tp1551
a(I-2
I-2
tp1552
a(I-3
I-2
tp1553
a(I-4
I-2
tp1554
a(I-4
I-3
tp1555
aI0
tp1556
a((lp1557
g3
a(I1
I0
tp1558
a(I2
I0
tp1559
a(I3
I0
tp1560
a(I3
I-1
tp1561
a(I3
I-2
tp1562
a(I4
I-2
tp1563
a(I5
I-2
tp1564
a(I6
I-2
tp1565
a(I6
I-1
tp1566
a(I5
I-1
tp1567
a(I5
I0
tp1568
a(I6
I0
tp1569
a(I6
I1
tp1570
a(I7
I1
tp1571
a(I8
I1
tp1572
a(I9
I1
tp1573
a(I9
I2
tp1574
a(I8
I2
tp1575
a(I8
I3
tp1576
aI0
tp1577
a((lp1578
g3
a(I1
I0
tp1579
a(I2
I0
tp1580
a(I3
I0
tp1581
a(I4
I0
tp1582
a(I4
I1
tp1583
a(I3
I1
tp1584
a(I3
I2
tp1585
a(I3
I3
tp1586
a(I3
I4
tp1587
a(I3
I5
tp1588
a(I4
I5
tp1589
a(I5
I5
tp1590
a(I5
I4
tp1591
a(I4
I4
tp1592
a(I4
I3
tp1593
a(I5
I3
tp1594
a(I6
I3
tp1595
a(I6
I4
tp1596
a(I6
I5
tp1597
aI0
tp1598
a((lp1599
g3
a(I0
I1
tp1600
a(I-1
I1
tp1601
a(I-2
I1
tp1602
a(I-2
I2
tp1603
a(I-3
I2
tp1604
a(I-3
I3
tp1605
a(I-3
I4
tp1606
a(I-2
I4
tp1607
a(I-2
I5
tp1608
a(I-3
I5
tp1609
a(I-4
I5
tp1610
a(I-4
I4
tp1611
a(I-4
I3
tp1612
a(I-4
I2
tp1613
a(I-4
I1
tp1614
a(I-5
I1
tp1615
a(I-5
I0
tp1616
a(I-4
I0
tp1617
a(I-3
I0
tp1618
aI0
tp1619
a((lp1620
g3
a(I1
I0
tp1621
a(I1
I1
tp1622
a(I0
I1
tp1623
a(I-1
I1
tp1624
a(I-1
I0
tp1625
a(I-1
I-1
tp1626
a(I0
I-1
tp1627
a(I0
I-2
tp1628
a(I-1
I-2
tp1629
a(I-2
I-2
tp1630
a(I-2
I-1
tp1631
a(I-2
I0
tp1632
a(I-3
I0
tp1633
a(I-3
I1
tp1634
a(I-2
I1
tp1635
a(I-2
I2
tp1636
a(I-1
I2
tp1637
a(I-1
I3
tp1638
a(I0
I3
tp1639
aI0
tp1640
a((lp1641
g3
a(I-1
I0
tp1642
a(I-2
I0
tp1643
a(I-3
I0
tp1644
a(I-3
I1
tp1645
a(I-2
I1
tp1646
a(I-2
I2
tp1647
a(I-3
I2
tp1648
a(I-4
I2
tp1649
a(I-4
I3
tp1650
a(I-3
I3
tp1651
a(I-3
I4
tp1652
a(I-4
I4
tp1653
a(I-4
I5
tp1654
a(I-4
I6
tp1655
a(I-4
I7
tp1656
a(I-5
I7
tp1657
a(I-5
I6
tp1658
a(I-5
I5
tp1659
a(I-5
I4
tp1660
aI0
tp1661
a((lp1662
g3
a(I0
I1
tp1663
a(I1
I1
tp1664
a(I1
I0
tp1665
a(I2
I0
tp1666
a(I2
I1
tp1667
a(I3
I1
tp1668
a(I3
I0
tp1669
a(I3
I-1
tp1670
a(I2
I-1
tp1671
a(I2
I-2
tp1672
a(I1
I-2
tp1673
a(I1
I-1
tp1674
a(I0
I-1
tp1675
a(I0
I-2
tp1676
a(I0
I-3
tp1677
a(I-1
I-3
tp1678
a(I-2
I-3
tp1679
a(I-2
I-2
tp1680
a(I-3
I-2
tp1681
aI0
tp1682
a((lp1683
g3
a(I0
I-1
tp1684
a(I1
I-1
tp1685
a(I1
I-2
tp1686
a(I1
I-3
tp1687
a(I2
I-3
tp1688
a(I2
I-2
tp1689
a(I3
I-2
tp1690
a(I3
I-1
tp1691
a(I3
I0
tp1692
a(I2
I0
tp1693
a(I1
I0
tp1694
a(I1
I1
tp1695
a(I2
I1
tp1696
a(I3
I1
tp1697
a(I4
I1
tp1698
a(I5
I1
tp1699
a(I6
I1
tp1700
a(I7
I1
tp1701
a(I7
I2
tp1702
aI0
tp1703
a((lp1704
g3
a(I1
I0
tp1705
a(I1
I-1
tp1706
a(I0
I-1
tp1707
a(I-1
I-1
tp1708
a(I-1
I0
tp1709
a(I-1
I1
tp1710
a(I0
I1
tp1711
a(I1
I1
tp1712
a(I1
I2
tp1713
a(I1
I3
tp1714
a(I2
I3
tp1715
a(I3
I3
tp1716
a(I4
I3
tp1717
a(I4
I4
tp1718
a(I4
I5
tp1719
a(I3
I5
tp1720
a(I3
I6
tp1721
a(I2
I6
tp1722
a(I2
I7
tp1723
aI0
tp1724
a((lp1725
g3
a(I-1
I0
tp1726
a(I-2
I0
tp1727
a(I-2
I-1
tp1728
a(I-1
I-1
tp1729
a(I-1
I-2
tp1730
a(I0
I-2
tp1731
a(I0
I-3
tp1732
a(I-1
I-3
tp1733
a(I-2
I-3
tp1734
a(I-2
I-4
tp1735
a(I-1
I-4
tp1736
a(I-1
I-5
tp1737
a(I0
I-5
tp1738
a(I0
I-6
tp1739
a(I1
I-6
tp1740
a(I2
I-6
tp1741
a(I2
I-5
tp1742
a(I1
I-5
tp1743
a(I1
I-4
tp1744
aI0
tp1745
a((lp1746
g3
a(I1
I0
tp1747
a(I2
I0
tp1748
a(I2
I-1
tp1749
a(I2
I-2
tp1750
a(I2
I-3
tp1751
a(I1
I-3
tp1752
a(I1
I-2
tp1753
a(I1
I-1
tp1754
a(I0
I-1
tp1755
a(I-1
I-1
tp1756
a(I-1
I0
tp1757
a(I-1
I1
tp1758
a(I0
I1
tp1759
a(I0
I2
tp1760
a(I0
I3
tp1761
a(I0
I4
tp1762
a(I-1
I4
tp1763
a(I-2
I4
tp1764
a(I-3
I4
tp1765
aI0
tp1766
a((lp1767
g3
a(I1
I0
tp1768
a(I2
I0
tp1769
a(I2
I1
tp1770
a(I1
I1
tp1771
a(I1
I2
tp1772
a(I2
I2
tp1773
a(I3
I2
tp1774
a(I3
I1
tp1775
a(I4
I1
tp1776
a(I4
I0
tp1777
a(I3
I0
tp1778
a(I3
I-1
tp1779
a(I4
I-1
tp1780
a(I5
I-1
tp1781
a(I6
I-1
tp1782
a(I6
I0
tp1783
a(I5
I0
tp1784
a(I5
I1
tp1785
a(I6
I1
tp1786
aI0
tp1787
a((lp1788
g3
a(I0
I1
tp1789
a(I1
I1
tp1790
a(I1
I2
tp1791
a(I0
I2
tp1792
a(I-1
I2
tp1793
a(I-1
I3
tp1794
a(I-1
I4
tp1795
a(I0
I4
tp1796
a(I0
I3
tp1797
a(I1
I3
tp1798
a(I1
I4
tp1799
a(I1
I5
tp1800
a(I1
I6
tp1801
a(I0
I6
tp1802
a(I-1
I6
tp1803
a(I-2
I6
tp1804
a(I-2
I7
tp1805
a(I-1
I7
tp1806
a(I-1
I8
tp1807
aI0
tp1808
a((lp1809
g3
a(I0
I-1
tp1810
a(I0
I-2
tp1811
a(I-1
I-2
tp1812
a(I-1
I-1
tp1813
a(I-2
I-1
tp1814
a(I-3
I-1
tp1815
a(I-3
I-2
tp1816
a(I-4
I-2
tp1817
a(I-5
I-2
tp1818
a(I-6
I-2
tp1819
a(I-7
I-2
tp1820
a(I-7
I-1
tp1821
a(I-7
I0
tp1822
a(I-7
I1
tp1823
a(I-7
I2
tp1824
a(I-7
I3
tp1825
a(I-6
I3
tp1826
a(I-6
I2
tp1827
a(I-5
I2
tp1828
aI0
tp1829
a((lp1830
g3
a(I-1
I0
tp1831
a(I-2
I0
tp1832
a(I-2
I1
tp1833
a(I-1
I1
tp1834
a(I-1
I2
tp1835
a(I-1
I3
tp1836
a(I-2
I3
tp1837
a(I-3
I3
tp1838
a(I-4
I3
tp1839
a(I-5
I3
tp1840
a(I-5
I2
tp1841
a(I-5
I1
tp1842
a(I-5
I0
tp1843
a(I-4
I0
tp1844
a(I-4
I-1
tp1845
a(I-5
I-1
tp1846
a(I-5
I-2
tp1847
a(I-4
I-2
tp1848
a(I-4
I-3
tp1849
aI0
tp1850
a((lp1851
g3
a(I1
I0
tp1852
a(I2
I0
tp1853
a(I2
I-1
tp1854
a(I3
I-1
tp1855
a(I3
I0
tp1856
a(I3
I1
tp1857
a(I2
I1
tp1858
a(I2
I2
tp1859
a(I1
I2
tp1860
a(I0
I2
tp1861
a(I0
I3
tp1862
a(I-1
I3
tp1863
a(I-1
I2
tp1864
a(I-2
I2
tp1865
a(I-3
I2
tp1866
a(I-3
I3
tp1867
a(I-2
I3
tp1868
a(I-2
I4
tp1869
a(I-2
I5
tp1870
aI0
tp1871
a((lp1872
g3
a(I0
I-1
tp1873
a(I1
I-1
tp1874
a(I1
I-2
tp1875
a(I1
I-3
tp1876
a(I2
I-3
tp1877
a(I2
I-4
tp1878
a(I1
I-4
tp1879
a(I1
I-5
tp1880
a(I2
I-5
tp1881
a(I3
I-5
tp1882
a(I3
I-6
tp1883
a(I2
I-6
tp1884
a(I1
I-6
tp1885
a(I0
I-6
tp1886
a(I0
I-7
tp1887
a(I1
I-7
tp1888
a(I2
I-7
tp1889
a(I2
I-8
tp1890
a(I1
I-8
tp1891
aI0
tp1892
a((lp1893
g3
a(I0
I-1
tp1894
a(I0
I-2
tp1895
a(I0
I-3
tp1896
a(I-1
I-3
tp1897
a(I-2
I-3
tp1898
a(I-2
I-2
tp1899
a(I-2
I-1
tp1900
a(I-3
I-1
tp1901
a(I-4
I-1
tp1902
a(I-4
I-2
tp1903
a(I-5
I-2
tp1904
a(I-5
I-3
tp1905
a(I-6
I-3
tp1906
a(I-6
I-4
tp1907
a(I-7
I-4
tp1908
a(I-8
I-4
tp1909
a(I-8
I-3
tp1910
a(I-9
I-3
tp1911
a(I-10
I-3
tp1912
aI0
tp1913
a((lp1914
g3
a(I-1
I0
tp1915
a(I-1
I-1
tp1916
a(I0
I-1
tp1917
a(I1
I-1
tp1918
a(I1
I-2
tp1919
a(I0
I-2
tp1920
a(I0
I-3
tp1921
a(I-1
I-3
tp1922
a(I-1
I-4
tp1923
a(I-2
I-4
tp1924
a(I-2
I-5
tp1925
a(I-3
I-5
tp1926
a(I-4
I-5
tp1927
a(I-4
I-4
tp1928
a(I-5
I-4
tp1929
a(I-5
I-3
tp1930
a(I-5
I-2
tp1931
a(I-5
I-1
tp1932
a(I-5
I0
tp1933
aI0
tp1934
a((lp1935
g3
a(I1
I0
tp1936
a(I1
I-1
tp1937
a(I0
I-1
tp1938
a(I-1
I-1
tp1939
a(I-1
I0
tp1940
a(I-2
I0
tp1941
a(I-3
I0
tp1942
a(I-4
I0
tp1943
a(I-4
I1
tp1944
a(I-5
I1
tp1945
a(I-5
I2
tp1946
a(I-6
I2
tp1947
a(I-6
I3
tp1948
a(I-5
I3
tp1949
a(I-5
I4
tp1950
a(I-6
I4
tp1951
a(I-7
I4
tp1952
a(I-7
I5
tp1953
a(I-6
I5
tp1954
aI0
tp1955
a((lp1956
g3
a(I1
I0
tp1957
a(I1
I-1
tp1958
a(I0
I-1
tp1959
a(I-1
I-1
tp1960
a(I-2
I-1
tp1961
a(I-2
I0
tp1962
a(I-1
I0
tp1963
a(I-1
I1
tp1964
a(I-2
I1
tp1965
a(I-2
I2
tp1966
a(I-2
I3
tp1967
a(I-2
I4
tp1968
a(I-3
I4
tp1969
a(I-3
I3
tp1970
a(I-3
I2
tp1971
a(I-3
I1
tp1972
a(I-3
I0
tp1973
a(I-4
I0
tp1974
a(I-4
I1
tp1975
aI0
tp1976
a((lp1977
g3
a(I0
I1
tp1978
a(I1
I1
tp1979
a(I1
I2
tp1980
a(I0
I2
tp1981
a(I-1
I2
tp1982
a(I-2
I2
tp1983
a(I-3
I2
tp1984
a(I-4
I2
tp1985
a(I-4
I3
tp1986
a(I-5
I3
tp1987
a(I-5
I2
tp1988
a(I-5
I1
tp1989
a(I-4
I1
tp1990
a(I-3
I1
tp1991
a(I-2
I1
tp1992
a(I-1
I1
tp1993
a(I-1
I0
tp1994
a(I-1
I-1
tp1995
a(I0
I-1
tp1996
aI0
tp1997
a((lp1998
g3
a(I0
I1
tp1999
a(I0
I2
tp2000
a(I0
I3
tp2001
a(I0
I4
tp2002
a(I0
I5
tp2003
a(I0
I6
tp2004
a(I1
I6
tp2005
a(I1
I5
tp2006
a(I2
I5
tp2007
a(I2
I4
tp2008
a(I3
I4
tp2009
a(I3
I5
tp2010
a(I4
I5
tp2011
a(I5
I5
tp2012
a(I5
I6
tp2013
a(I4
I6
tp2014
a(I3
I6
tp2015
a(I2
I6
tp2016
a(I2
I7
tp2017
aI0
tp2018
a((lp2019
g3
a(I1
I0
tp2020
a(I2
I0
tp2021
a(I3
I0
tp2022
a(I4
I0
tp2023
a(I4
I1
tp2024
a(I4
I2
tp2025
a(I5
I2
tp2026
a(I5
I3
tp2027
a(I5
I4
tp2028
a(I5
I5
tp2029
a(I4
I5
tp2030
a(I4
I4
tp2031
a(I4
I3
tp2032
a(I3
I3
tp2033
a(I3
I4
tp2034
a(I3
I5
tp2035
a(I3
I6
tp2036
a(I4
I6
tp2037
a(I4
I7
tp2038
aI0
tp2039
a((lp2040
g3
a(I0
I1
tp2041
a(I1
I1
tp2042
a(I1
I2
tp2043
a(I1
I3
tp2044
a(I1
I4
tp2045
a(I0
I4
tp2046
a(I-1
I4
tp2047
a(I-1
I3
tp2048
a(I-1
I2
tp2049
a(I-2
I2
tp2050
a(I-2
I1
tp2051
a(I-1
I1
tp2052
a(I-1
I0
tp2053
a(I-1
I-1
tp2054
a(I-1
I-2
tp2055
a(I-1
I-3
tp2056
a(I-1
I-4
tp2057
a(I-2
I-4
tp2058
a(I-2
I-3
tp2059
aI0
tp2060
a((lp2061
g3
a(I0
I-1
tp2062
a(I1
I-1
tp2063
a(I1
I-2
tp2064
a(I0
I-2
tp2065
a(I0
I-3
tp2066
a(I0
I-4
tp2067
a(I0
I-5
tp2068
a(I-1
I-5
tp2069
a(I-1
I-6
tp2070
a(I-1
I-7
tp2071
a(I-2
I-7
tp2072
a(I-2
I-8
tp2073
a(I-3
I-8
tp2074
a(I-3
I-7
tp2075
a(I-4
I-7
tp2076
a(I-4
I-6
tp2077
a(I-5
I-6
tp2078
a(I-5
I-5
tp2079
a(I-4
I-5
tp2080
aI0
tp2081
a((lp2082
g3
a(I1
I0
tp2083
a(I1
I-1
tp2084
a(I0
I-1
tp2085
a(I0
I-2
tp2086
a(I-1
I-2
tp2087
a(I-1
I-3
tp2088
a(I-2
I-3
tp2089
a(I-3
I-3
tp2090
a(I-4
I-3
tp2091
a(I-4
I-2
tp2092
a(I-3
I-2
tp2093
a(I-2
I-2
tp2094
a(I-2
I-1
tp2095
a(I-1
I-1
tp2096
a(I-1
I0
tp2097
a(I-2
I0
tp2098
a(I-3
I0
tp2099
a(I-3
I-1
tp2100
a(I-4
I-1
tp2101
aI0
tp2102
a((lp2103
g3
a(I-1
I0
tp2104
a(I-1
I-1
tp2105
a(I-2
I-1
tp2106
a(I-2
I-2
tp2107
a(I-2
I-3
tp2108
a(I-2
I-4
tp2109
a(I-3
I-4
tp2110
a(I-4
I-4
tp2111
a(I-4
I-3
tp2112
a(I-4
I-2
tp2113
a(I-3
I-2
tp2114
a(I-3
I-1
tp2115
a(I-4
I-1
tp2116
a(I-4
I0
tp2117
a(I-3
I0
tp2118
a(I-2
I0
tp2119
a(I-2
I1
tp2120
a(I-2
I2
tp2121
a(I-2
I3
tp2122
aI0
tp2123
a((lp2124
g3
a(I-1
I0
tp2125
a(I-2
I0
tp2126
a(I-2
I-1
tp2127
a(I-2
I-2
tp2128
a(I-3
I-2
tp2129
a(I-4
I-2
tp2130
a(I-5
I-2
tp2131
a(I-5
I-3
tp2132
a(I-6
I-3
tp2133
a(I-7
I-3
tp2134
a(I-7
I-2
tp2135
a(I-6
I-2
tp2136
a(I-6
I-1
tp2137
a(I-6
I0
tp2138
a(I-6
I1
tp2139
a(I-7
I1
tp2140
a(I-8
I1
tp2141
a(I-9
I1
tp2142
a(I-9
I0
tp2143
aI0
tp2144
a((lp2145
g3
a(I0
I-1
tp2146
a(I0
I-2
tp2147
a(I0
I-3
tp2148
a(I-1
I-3
tp2149
a(I-2
I-3
tp2150
a(I-3
I-3
tp2151
a(I-4
I-3
tp2152
a(I-5
I-3
tp2153
a(I-5
I-2
tp2154
a(I-4
I-2
tp2155
a(I-3
I-2
tp2156
a(I-2
I-2
tp2157
a(I-1
I-2
tp2158
a(I-1
I-1
tp2159
a(I-1
I0
tp2160
a(I-2
I0
tp2161
a(I-3
I0
tp2162
a(I-3
I1
tp2163
a(I-2
I1
tp2164
aI0
tp2165
a((lp2166
g3
a(I0
I1
tp2167
a(I-1
I1
tp2168
a(I-2
I1
tp2169
a(I-2
I2
tp2170
a(I-2
I3
tp2171
a(I-1
I3
tp2172
a(I-1
I2
tp2173
a(I0
I2
tp2174
a(I0
I3
tp2175
a(I0
I4
tp2176
a(I0
I5
tp2177
a(I-1
I5
tp2178
a(I-1
I4
tp2179
a(I-2
I4
tp2180
a(I-2
I5
tp2181
a(I-2
I6
tp2182
a(I-1
I6
tp2183
a(I-1
I7
tp2184
a(I-2
I7
tp2185
aI0
tp2186
a((lp2187
g3
a(I0
I-1
tp2188
a(I-1
I-1
tp2189
a(I-2
I-1
tp2190
a(I-2
I-2
tp2191
a(I-3
I-2
tp2192
a(I-3
I-3
tp2193
a(I-2
I-3
tp2194
a(I-2
I-4
tp2195
a(I-1
I-4
tp2196
a(I-1
I-5
tp2197
a(I0
I-5
tp2198
a(I0
I-4
tp2199
a(I0
I-3
tp2200
a(I0
I-2
tp2201
a(I1
I-2
tp2202
a(I2
I-2
tp2203
a(I2
I-1
tp2204
a(I3
I-1
tp2205
a(I3
I-2
tp2206
aI0
tp2207
a((lp2208
g3
a(I0
I-1
tp2209
a(I-1
I-1
tp2210
a(I-1
I0
tp2211
a(I-1
I1
tp2212
a(I-2
I1
tp2213
a(I-2
I2
tp2214
a(I-3
I2
tp2215
a(I-4
I2
tp2216
a(I-4
I3
tp2217
a(I-3
I3
tp2218
a(I-3
I4
tp2219
a(I-4
I4
tp2220
a(I-5
I4
tp2221
a(I-5
I5
tp2222
a(I-5
I6
tp2223
a(I-4
I6
tp2224
a(I-4
I7
tp2225
a(I-4
I8
tp2226
a(I-4
I9
tp2227
aI0
tp2228
a((lp2229
g3
a(I-1
I0
tp2230
a(I-2
I0
tp2231
a(I-3
I0
tp2232
a(I-4
I0
tp2233
a(I-4
I1
tp2234
a(I-5
I1
tp2235
a(I-5
I2
tp2236
a(I-4
I2
tp2237
a(I-4
I3
tp2238
a(I-3
I3
tp2239
a(I-3
I4
tp2240
a(I-4
I4
tp2241
a(I-5
I4
tp2242
a(I-5
I3
tp2243
a(I-6
I3
tp2244
a(I-7
I3
tp2245
a(I-7
I2
tp2246
a(I-6
I2
tp2247
a(I-6
I1
tp2248
aI0
tp2249
a((lp2250
g3
a(I1
I0
tp2251
a(I2
I0
tp2252
a(I2
I1
tp2253
a(I3
I1
tp2254
a(I3
I2
tp2255
a(I2
I2
tp2256
a(I2
I3
tp2257
a(I1
I3
tp2258
a(I1
I4
tp2259
a(I1
I5
tp2260
a(I0
I5
tp2261
a(I0
I4
tp2262
a(I-1
I4
tp2263
a(I-2
I4
tp2264
a(I-3
I4
tp2265
a(I-3
I3
tp2266
a(I-2
I3
tp2267
a(I-1
I3
tp2268
a(I0
I3
tp2269
aI0
tp2270
a((lp2271
g3
a(I1
I0
tp2272
a(I1
I-1
tp2273
a(I2
I-1
tp2274
a(I2
I-2
tp2275
a(I3
I-2
tp2276
a(I3
I-3
tp2277
a(I2
I-3
tp2278
a(I1
I-3
tp2279
a(I1
I-4
tp2280
a(I1
I-5
tp2281
a(I2
I-5
tp2282
a(I2
I-6
tp2283
a(I1
I-6
tp2284
a(I1
I-7
tp2285
a(I1
I-8
tp2286
a(I0
I-8
tp2287
a(I0
I-7
tp2288
a(I0
I-6
tp2289
a(I0
I-5
tp2290
aI0
tp2291
a((lp2292
g3
a(I-1
I0
tp2293
a(I-2
I0
tp2294
a(I-3
I0
tp2295
a(I-3
I-1
tp2296
a(I-2
I-1
tp2297
a(I-2
I-2
tp2298
a(I-3
I-2
tp2299
a(I-4
I-2
tp2300
a(I-4
I-3
tp2301
a(I-4
I-4
tp2302
a(I-5
I-4
tp2303
a(I-5
I-3
tp2304
a(I-6
I-3
tp2305
a(I-7
I-3
tp2306
a(I-7
I-2
tp2307
a(I-6
I-2
tp2308
a(I-6
I-1
tp2309
a(I-6
I0
tp2310
a(I-6
I1
tp2311
aI0
tp2312
a((lp2313
g3
a(I0
I-1
tp2314
a(I-1
I-1
tp2315
a(I-1
I-2
tp2316
a(I-1
I-3
tp2317
a(I0
I-3
tp2318
a(I0
I-2
tp2319
a(I1
I-2
tp2320
a(I1
I-3
tp2321
a(I2
I-3
tp2322
a(I2
I-2
tp2323
a(I3
I-2
tp2324
a(I3
I-3
tp2325
a(I3
I-4
tp2326
a(I4
I-4
tp2327
a(I4
I-5
tp2328
a(I3
I-5
tp2329
a(I2
I-5
tp2330
a(I2
I-6
tp2331
a(I2
I-7
tp2332
aI0
tp2333
a((lp2334
g3
a(I0
I1
tp2335
a(I-1
I1
tp2336
a(I-1
I0
tp2337
a(I-1
I-1
tp2338
a(I0
I-1
tp2339
a(I1
I-1
tp2340
a(I1
I-2
tp2341
a(I2
I-2
tp2342
a(I2
I-1
tp2343
a(I2
I0
tp2344
a(I1
I0
tp2345
a(I1
I1
tp2346
a(I1
I2
tp2347
a(I0
I2
tp2348
a(I0
I3
tp2349
a(I-1
I3
tp2350
a(I-1
I2
tp2351
a(I-2
I2
tp2352
a(I-2
I3
tp2353
aI0
tp2354
a((lp2355
g3
a(I0
I1
tp2356
a(I0
I2
tp2357
a(I0
I3
tp2358
a(I1
I3
tp2359
a(I1
I4
tp2360
a(I1
I5
tp2361
a(I2
I5
tp2362
a(I3
I5
tp2363
a(I3
I6
tp2364
a(I2
I6
tp2365
a(I1
I6
tp2366
a(I0
I6
tp2367
a(I0
I5
tp2368
a(I0
I4
tp2369
a(I-1
I4
tp2370
a(I-1
I5
tp2371
a(I-2
I5
tp2372
a(I-3
I5
tp2373
a(I-3
I4
tp2374
aI0
tp2375
a((lp2376
g3
a(I-1
I0
tp2377
a(I-1
I1
tp2378
a(I0
I1
tp2379
a(I0
I2
tp2380
a(I-1
I2
tp2381
a(I-2
I2
tp2382
a(I-2
I1
tp2383
a(I-2
I0
tp2384
a(I-2
I-1
tp2385
a(I-2
I-2
tp2386
a(I-3
I-2
tp2387
a(I-4
I-2
tp2388
a(I-4
I-1
tp2389
a(I-5
I-1
tp2390
a(I-5
I-2
tp2391
a(I-6
I-2
tp2392
a(I-7
I-2
tp2393
a(I-7
I-3
tp2394
a(I-7
I-4
tp2395
aI0
tp2396
a((lp2397
g3
a(I1
I0
tp2398
a(I2
I0
tp2399
a(I2
I1
tp2400
a(I3
I1
tp2401
a(I3
I0
tp2402
a(I3
I-1
tp2403
a(I3
I-2
tp2404
a(I4
I-2
tp2405
a(I4
I-1
tp2406
a(I4
I0
tp2407
a(I5
I0
tp2408
a(I5
I1
tp2409
a(I5
I2
tp2410
a(I5
I3
tp2411
a(I5
I4
tp2412
a(I4
I4
tp2413
a(I4
I3
tp2414
a(I3
I3
tp2415
a(I3
I2
tp2416
aI0
tp2417
a((lp2418
g3
a(I1
I0
tp2419
a(I1
I-1
tp2420
a(I2
I-1
tp2421
a(I2
I-2
tp2422
a(I3
I-2
tp2423
a(I3
I-3
tp2424
a(I4
I-3
tp2425
a(I5
I-3
tp2426
a(I5
I-2
tp2427
a(I4
I-2
tp2428
a(I4
I-1
tp2429
a(I4
I0
tp2430
a(I3
I0
tp2431
a(I3
I1
tp2432
a(I3
I2
tp2433
a(I2
I2
tp2434
a(I2
I1
tp2435
a(I1
I1
tp2436
a(I1
I2
tp2437
aI0
tp2438
a((lp2439
g3
a(I0
I-1
tp2440
a(I0
I-2
tp2441
a(I0
I-3
tp2442
a(I1
I-3
tp2443
a(I1
I-4
tp2444
a(I2
I-4
tp2445
a(I2
I-5
tp2446
a(I2
I-6
tp2447
a(I2
I-7
tp2448
a(I2
I-8
tp2449
a(I2
I-9
tp2450
a(I1
I-9
tp2451
a(I0
I-9
tp2452
a(I-1
I-9
tp2453
a(I-1
I-10
tp2454
a(I-2
I-10
tp2455
a(I-3
I-10
tp2456
a(I-3
I-11
tp2457
a(I-4
I-11
tp2458
aI0
tp2459
a((lp2460
g3
a(I0
I1
tp2461
a(I1
I1
tp2462
a(I1
I2
tp2463
a(I1
I3
tp2464
a(I0
I3
tp2465
a(I0
I4
tp2466
a(I0
I5
tp2467
a(I0
I6
tp2468
a(I1
I6
tp2469
a(I1
I5
tp2470
a(I2
I5
tp2471
a(I2
I4
tp2472
a(I3
I4
tp2473
a(I3
I3
tp2474
a(I3
I2
tp2475
a(I2
I2
tp2476
a(I2
I1
tp2477
a(I3
I1
tp2478
a(I4
I1
tp2479
aI0
tp2480
a((lp2481
g3
a(I1
I0
tp2482
a(I1
I-1
tp2483
a(I0
I-1
tp2484
a(I0
I-2
tp2485
a(I1
I-2
tp2486
a(I2
I-2
tp2487
a(I3
I-2
tp2488
a(I3
I-3
tp2489
a(I3
I-4
tp2490
a(I4
I-4
tp2491
a(I5
I-4
tp2492
a(I5
I-5
tp2493
a(I6
I-5
tp2494
a(I6
I-4
tp2495
a(I6
I-3
tp2496
a(I7
I-3
tp2497
a(I7
I-4
tp2498
a(I8
I-4
tp2499
a(I8
I-5
tp2500
aI0
tp2501
a((lp2502
g3
a(I-1
I0
tp2503
a(I-2
I0
tp2504
a(I-2
I-1
tp2505
a(I-1
I-1
tp2506
a(I0
I-1
tp2507
a(I1
I-1
tp2508
a(I1
I-2
tp2509
a(I1
I-3
tp2510
a(I1
I-4
tp2511
a(I1
I-5
tp2512
a(I0
I-5
tp2513
a(I-1
I-5
tp2514
a(I-1
I-6
tp2515
a(I-1
I-7
tp2516
a(I-2
I-7
tp2517
a(I-2
I-6
tp2518
a(I-2
I-5
tp2519
a(I-3
I-5
tp2520
a(I-3
I-4
tp2521
aI0
tp2522
a((lp2523
g3
a(I-1
I0
tp2524
a(I-1
I1
tp2525
a(I-2
I1
tp2526
a(I-3
I1
tp2527
a(I-4
I1
tp2528
a(I-5
I1
tp2529
a(I-5
I0
tp2530
a(I-4
I0
tp2531
a(I-4
I-1
tp2532
a(I-5
I-1
tp2533
a(I-5
I-2
tp2534
a(I-4
I-2
tp2535
a(I-4
I-3
tp2536
a(I-4
I-4
tp2537
a(I-4
I-5
tp2538
a(I-3
I-5
tp2539
a(I-3
I-4
tp2540
a(I-3
I-3
tp2541
a(I-3
I-2
tp2542
aI0
tp2543
a((lp2544
g3
a(I0
I1
tp2545
a(I1
I1
tp2546
a(I1
I0
tp2547
a(I2
I0
tp2548
a(I2
I1
tp2549
a(I3
I1
tp2550
a(I3
I2
tp2551
a(I2
I2
tp2552
a(I2
I3
tp2553
a(I1
I3
tp2554
a(I0
I3
tp2555
a(I0
I4
tp2556
a(I1
I4
tp2557
a(I1
I5
tp2558
a(I1
I6
tp2559
a(I0
I6
tp2560
a(I0
I5
tp2561
a(I-1
I5
tp2562
a(I-1
I6
tp2563
aI0
tp2564
a((lp2565
g3
a(I-1
I0
tp2566
a(I-1
I-1
tp2567
a(I-1
I-2
tp2568
a(I0
I-2
tp2569
a(I0
I-3
tp2570
a(I-1
I-3
tp2571
a(I-1
I-4
tp2572
a(I-1
I-5
tp2573
a(I-1
I-6
tp2574
a(I-2
I-6
tp2575
a(I-2
I-7
tp2576
a(I-3
I-7
tp2577
a(I-3
I-6
tp2578
a(I-4
I-6
tp2579
a(I-4
I-5
tp2580
a(I-5
I-5
tp2581
a(I-6
I-5
tp2582
a(I-7
I-5
tp2583
a(I-8
I-5
tp2584
aI0
tp2585
a((lp2586
g3
a(I0
I1
tp2587
a(I-1
I1
tp2588
a(I-1
I0
tp2589
a(I-2
I0
tp2590
a(I-2
I-1
tp2591
a(I-1
I-1
tp2592
a(I-1
I-2
tp2593
a(I0
I-2
tp2594
a(I0
I-3
tp2595
a(I-1
I-3
tp2596
a(I-2
I-3
tp2597
a(I-3
I-3
tp2598
a(I-3
I-2
tp2599
a(I-4
I-2
tp2600
a(I-4
I-3
tp2601
a(I-5
I-3
tp2602
a(I-6
I-3
tp2603
a(I-6
I-2
tp2604
a(I-7
I-2
tp2605
aI0
tp2606
a((lp2607
g3
a(I0
I1
tp2608
a(I0
I2
tp2609
a(I1
I2
tp2610
a(I1
I3
tp2611
a(I1
I4
tp2612
a(I2
I4
tp2613
a(I2
I3
tp2614
a(I2
I2
tp2615
a(I3
I2
tp2616
a(I3
I1
tp2617
a(I4
I1
tp2618
a(I5
I1
tp2619
a(I6
I1
tp2620
a(I6
I2
tp2621
a(I5
I2
tp2622
a(I4
I2
tp2623
a(I4
I3
tp2624
a(I3
I3
tp2625
a(I3
I4
tp2626
aI0
tp2627
a((lp2628
g3
a(I0
I1
tp2629
a(I-1
I1
tp2630
a(I-1
I2
tp2631
a(I-2
I2
tp2632
a(I-2
I3
tp2633
a(I-2
I4
tp2634
a(I-2
I5
tp2635
a(I-1
I5
tp2636
a(I0
I5
tp2637
a(I1
I5
tp2638
a(I1
I6
tp2639
a(I1
I7
tp2640
a(I1
I8
tp2641
a(I1
I9
tp2642
a(I1
I10
tp2643
a(I0
I10
tp2644
a(I0
I11
tp2645
a(I1
I11
tp2646
a(I1
I12
tp2647
aI0
tp2648
a((lp2649
g3
a(I0
I1
tp2650
a(I1
I1
tp2651
a(I2
I1
tp2652
a(I2
I2
tp2653
a(I2
I3
tp2654
a(I2
I4
tp2655
a(I3
I4
tp2656
a(I3
I5
tp2657
a(I4
I5
tp2658
a(I4
I4
tp2659
a(I4
I3
tp2660
a(I4
I2
tp2661
a(I3
I2
tp2662
a(I3
I1
tp2663
a(I3
I0
tp2664
a(I3
I-1
tp2665
a(I4
I-1
tp2666
a(I5
I-1
tp2667
a(I5
I-2
tp2668
aI0
tp2669
a((lp2670
g3
a(I0
I-1
tp2671
a(I1
I-1
tp2672
a(I1
I0
tp2673
a(I1
I1
tp2674
a(I1
I2
tp2675
a(I0
I2
tp2676
a(I0
I3
tp2677
a(I0
I4
tp2678
a(I-1
I4
tp2679
a(I-1
I5
tp2680
a(I-2
I5
tp2681
a(I-2
I6
tp2682
a(I-2
I7
tp2683
a(I-1
I7
tp2684
a(I-1
I8
tp2685
a(I-1
I9
tp2686
a(I-2
I9
tp2687
a(I-3
I9
tp2688
a(I-3
I8
tp2689
aI0
tp2690
a((lp2691
g3
a(I-1
I0
tp2692
a(I-2
I0
tp2693
a(I-3
I0
tp2694
a(I-3
I1
tp2695
a(I-4
I1
tp2696
a(I-4
I0
tp2697
a(I-5
I0
tp2698
a(I-5
I1
tp2699
a(I-6
I1
tp2700
a(I-6
I2
tp2701
a(I-7
I2
tp2702
a(I-7
I3
tp2703
a(I-8
I3
tp2704
a(I-8
I2
tp2705
a(I-9
I2
tp2706
a(I-10
I2
tp2707
a(I-11
I2
tp2708
a(I-12
I2
tp2709
a(I-13
I2
tp2710
aI0
tp2711
a((lp2712
g3
a(I1
I0
tp2713
a(I2
I0
tp2714
a(I2
I1
tp2715
a(I2
I2
tp2716
a(I2
I3
tp2717
a(I3
I3
tp2718
a(I4
I3
tp2719
a(I5
I3
tp2720
a(I5
I4
tp2721
a(I4
I4
tp2722
a(I4
I5
tp2723
a(I3
I5
tp2724
a(I3
I6
tp2725
a(I3
I7
tp2726
a(I4
I7
tp2727
a(I4
I6
tp2728
a(I5
I6
tp2729
a(I5
I7
tp2730
a(I5
I8
tp2731
aI0
tp2732
a((lp2733
g3
a(I0
I1
tp2734
a(I1
I1
tp2735
a(I1
I0
tp2736
a(I2
I0
tp2737
a(I2
I-1
tp2738
a(I2
I-2
tp2739
a(I2
I-3
tp2740
a(I1
I-3
tp2741
a(I1
I-2
tp2742
a(I1
I-1
tp2743
a(I0
I-1
tp2744
a(I-1
I-1
tp2745
a(I-2
I-1
tp2746
a(I-2
I0
tp2747
a(I-1
I0
tp2748
a(I-1
I1
tp2749
a(I-2
I1
tp2750
a(I-3
I1
tp2751
a(I-4
I1
tp2752
aI0
tp2753
a((lp2754
g3
a(I1
I0
tp2755
a(I2
I0
tp2756
a(I3
I0
tp2757
a(I4
I0
tp2758
a(I5
I0
tp2759
a(I6
I0
tp2760
a(I6
I1
tp2761
a(I6
I2
tp2762
a(I7
I2
tp2763
a(I8
I2
tp2764
a(I8
I3
tp2765
a(I8
I4
tp2766
a(I9
I4
tp2767
a(I9
I3
tp2768
a(I9
I2
tp2769
a(I9
I1
tp2770
a(I9
I0
tp2771
a(I10
I0
tp2772
a(I10
I-1
tp2773
aI0
tp2774
a((lp2775
g3
a(I-1
I0
tp2776
a(I-1
I1
tp2777
a(I0
I1
tp2778
a(I0
I2
tp2779
a(I1
I2
tp2780
a(I2
I2
tp2781
a(I3
I2
tp2782
a(I3
I1
tp2783
a(I3
I0
tp2784
a(I4
I0
tp2785
a(I4
I-1
tp2786
a(I4
I-2
tp2787
a(I3
I-2
tp2788
a(I3
I-3
tp2789
a(I2
I-3
tp2790
a(I1
I-3
tp2791
a(I1
I-4
tp2792
a(I2
I-4
tp2793
a(I3
I-4
tp2794
aI0
tp2795
a((lp2796
g3
a(I1
I0
tp2797
a(I1
I1
tp2798
a(I2
I1
tp2799
a(I2
I0
tp2800
a(I2
I-1
tp2801
a(I3
I-1
tp2802
a(I4
I-1
tp2803
a(I5
I-1
tp2804
a(I6
I-1
tp2805
a(I6
I0
tp2806
a(I7
I0
tp2807
a(I7
I-1
tp2808
a(I7
I-2
tp2809
a(I7
I-3
tp2810
a(I8
I-3
tp2811
a(I8
I-2
tp2812
a(I8
I-1
tp2813
a(I9
I-1
tp2814
a(I9
I0
tp2815
aI0
tp2816
a((lp2817
g3
a(I0
I1
tp2818
a(I-1
I1
tp2819
a(I-2
I1
tp2820
a(I-3
I1
tp2821
a(I-3
I0
tp2822
a(I-2
I0
tp2823
a(I-1
I0
tp2824
a(I-1
I-1
tp2825
a(I0
I-1
tp2826
a(I1
I-1
tp2827
a(I1
I-2
tp2828
a(I1
I-3
tp2829
a(I0
I-3
tp2830
a(I0
I-4
tp2831
a(I0
I-5
tp2832
a(I0
I-6
tp2833
a(I1
I-6
tp2834
a(I1
I-5
tp2835
a(I2
I-5
tp2836
aI0
tp2837
a((lp2838
g3
a(I1
I0
tp2839
a(I1
I1
tp2840
a(I0
I1
tp2841
a(I-1
I1
tp2842
a(I-1
I0
tp2843
a(I-1
I-1
tp2844
a(I0
I-1
tp2845
a(I1
I-1
tp2846
a(I1
I-2
tp2847
a(I0
I-2
tp2848
a(I-1
I-2
tp2849
a(I-1
I-3
tp2850
a(I-1
I-4
tp2851
a(I-2
I-4
tp2852
a(I-3
I-4
tp2853
a(I-3
I-5
tp2854
a(I-4
I-5
tp2855
a(I-4
I-4
tp2856
a(I-5
I-4
tp2857
aI0
tp2858
a((lp2859
g3
a(I-1
I0
tp2860
a(I-2
I0
tp2861
a(I-2
I-1
tp2862
a(I-3
I-1
tp2863
a(I-3
I-2
tp2864
a(I-3
I-3
tp2865
a(I-3
I-4
tp2866
a(I-4
I-4
tp2867
a(I-5
I-4
tp2868
a(I-5
I-3
tp2869
a(I-5
I-2
tp2870
a(I-5
I-1
tp2871
a(I-6
I-1
tp2872
a(I-6
I0
tp2873
a(I-6
I1
tp2874
a(I-7
I1
tp2875
a(I-8
I1
tp2876
a(I-8
I0
tp2877
a(I-8
I-1
tp2878
aI0
tp2879
a((lp2880
g3
a(I0
I1
tp2881
a(I0
I2
tp2882
a(I1
I2
tp2883
a(I1
I1
tp2884
a(I2
I1
tp2885
a(I2
I0
tp2886
a(I3
I0
tp2887
a(I3
I1
tp2888
a(I3
I2
tp2889
a(I3
I3
tp2890
a(I3
I4
tp2891
a(I4
I4
tp2892
a(I5
I4
tp2893
a(I5
I3
tp2894
a(I4
I3
tp2895
a(I4
I2
tp2896
a(I5
I2
tp2897
a(I6
I2
tp2898
a(I7
I2
tp2899
aI0
tp2900
a((lp2901
g3
a(I0
I-1
tp2902
a(I1
I-1
tp2903
a(I1
I0
tp2904
a(I1
I1
tp2905
a(I2
I1
tp2906
a(I2
I0
tp2907
a(I2
I-1
tp2908
a(I2
I-2
tp2909
a(I2
I-3
tp2910
a(I3
I-3
tp2911
a(I3
I-2
tp2912
a(I3
I-1
tp2913
a(I3
I0
tp2914
a(I4
I0
tp2915
a(I4
I-1
tp2916
a(I4
I-2
tp2917
a(I4
I-3
tp2918
a(I4
I-4
tp2919
a(I4
I-5
tp2920
aI0
tp2921
a((lp2922
g3
a(I0
I1
tp2923
a(I1
I1
tp2924
a(I2
I1
tp2925
a(I2
I2
tp2926
a(I3
I2
tp2927
a(I4
I2
tp2928
a(I4
I1
tp2929
a(I4
I0
tp2930
a(I4
I-1
tp2931
a(I3
I-1
tp2932
a(I3
I-2
tp2933
a(I4
I-2
tp2934
a(I5
I-2
tp2935
a(I5
I-1
tp2936
a(I5
I0
tp2937
a(I5
I1
tp2938
a(I5
I2
tp2939
a(I6
I2
tp2940
a(I6
I1
tp2941
aI0
tp2942
a((lp2943
g3
a(I0
I-1
tp2944
a(I1
I-1
tp2945
a(I1
I-2
tp2946
a(I2
I-2
tp2947
a(I2
I-1
tp2948
a(I2
I0
tp2949
a(I3
I0
tp2950
a(I3
I1
tp2951
a(I2
I1
tp2952
a(I2
I2
tp2953
a(I2
I3
tp2954
a(I2
I4
tp2955
a(I3
I4
tp2956
a(I4
I4
tp2957
a(I5
I4
tp2958
a(I5
I3
tp2959
a(I4
I3
tp2960
a(I3
I3
tp2961
a(I3
I2
tp2962
aI0
tp2963
a((lp2964
g3
a(I1
I0
tp2965
a(I1
I1
tp2966
a(I2
I1
tp2967
a(I2
I0
tp2968
a(I2
I-1
tp2969
a(I3
I-1
tp2970
a(I3
I-2
tp2971
a(I2
I-2
tp2972
a(I2
I-3
tp2973
a(I2
I-4
tp2974
a(I3
I-4
tp2975
a(I4
I-4
tp2976
a(I5
I-4
tp2977
a(I5
I-5
tp2978
a(I5
I-6
tp2979
a(I6
I-6
tp2980
a(I7
I-6
tp2981
a(I7
I-7
tp2982
a(I6
I-7
tp2983
aI0
tp2984
a((lp2985
g3
a(I0
I-1
tp2986
a(I-1
I-1
tp2987
a(I-1
I-2
tp2988
a(I0
I-2
tp2989
a(I0
I-3
tp2990
a(I0
I-4
tp2991
a(I0
I-5
tp2992
a(I-1
I-5
tp2993
a(I-1
I-4
tp2994
a(I-2
I-4
tp2995
a(I-3
I-4
tp2996
a(I-3
I-3
tp2997
a(I-3
I-2
tp2998
a(I-4
I-2
tp2999
a(I-4
I-3
tp3000
a(I-4
I-4
tp3001
a(I-5
I-4
tp3002
a(I-5
I-3
tp3003
a(I-5
I-2
tp3004
aI0
tp3005
a((lp3006
g3
a(I0
I-1
tp3007
a(I0
I-2
tp3008
a(I-1
I-2
tp3009
a(I-1
I-3
tp3010
a(I-2
I-3
tp3011
a(I-3
I-3
tp3012
a(I-4
I-3
tp3013
a(I-4
I-2
tp3014
a(I-4
I-1
tp3015
a(I-4
I0
tp3016
a(I-5
I0
tp3017
a(I-6
I0
tp3018
a(I-6
I1
tp3019
a(I-6
I2
tp3020
a(I-7
I2
tp3021
a(I-8
I2
tp3022
a(I-9
I2
tp3023
a(I-9
I1
tp3024
a(I-8
I1
tp3025
aI0
tp3026
a((lp3027
g3
a(I-1
I0
tp3028
a(I-2
I0
tp3029
a(I-2
I1
tp3030
a(I-1
I1
tp3031
a(I0
I1
tp3032
a(I0
I2
tp3033
a(I0
I3
tp3034
a(I0
I4
tp3035
a(I0
I5
tp3036
a(I0
I6
tp3037
a(I1
I6
tp3038
a(I2
I6
tp3039
a(I2
I5
tp3040
a(I2
I4
tp3041
a(I1
I4
tp3042
a(I1
I3
tp3043
a(I2
I3
tp3044
a(I2
I2
tp3045
a(I2
I1
tp3046
aI0
tp3047
a((lp3048
g3
a(I0
I1
tp3049
a(I-1
I1
tp3050
a(I-1
I0
tp3051
a(I-1
I-1
tp3052
a(I-2
I-1
tp3053
a(I-2
I-2
tp3054
a(I-3
I-2
tp3055
a(I-3
I-1
tp3056
a(I-4
I-1
tp3057
a(I-5
I-1
tp3058
a(I-6
I-1
tp3059
a(I-6
I-2
tp3060
a(I-7
I-2
tp3061
a(I-7
I-1
tp3062
a(I-7
I0
tp3063
a(I-8
I0
tp3064
a(I-8
I1
tp3065
a(I-9
I1
tp3066
a(I-9
I0
tp3067
aI0
tp3068
a((lp3069
g3
a(I0
I-1
tp3070
a(I0
I-2
tp3071
a(I0
I-3
tp3072
a(I-1
I-3
tp3073
a(I-1
I-2
tp3074
a(I-2
I-2
tp3075
a(I-2
I-1
tp3076
a(I-3
I-1
tp3077
a(I-3
I0
tp3078
a(I-2
I0
tp3079
a(I-1
I0
tp3080
a(I-1
I1
tp3081
a(I-1
I2
tp3082
a(I-1
I3
tp3083
a(I-2
I3
tp3084
a(I-3
I3
tp3085
a(I-4
I3
tp3086
a(I-4
I2
tp3087
a(I-5
I2
tp3088
aI0
tp3089
a((lp3090
g3
a(I-1
I0
tp3091
a(I-2
I0
tp3092
a(I-2
I1
tp3093
a(I-1
I1
tp3094
a(I-1
I2
tp3095
a(I-1
I3
tp3096
a(I-2
I3
tp3097
a(I-3
I3
tp3098
a(I-3
I2
tp3099
a(I-3
I1
tp3100
a(I-4
I1
tp3101
a(I-5
I1
tp3102
a(I-5
I0
tp3103
a(I-6
I0
tp3104
a(I-6
I-1
tp3105
a(I-6
I-2
tp3106
a(I-7
I-2
tp3107
a(I-7
I-1
tp3108
a(I-8
I-1
tp3109
aI0
tp3110
a((lp3111
g3
a(I-1
I0
tp3112
a(I-2
I0
tp3113
a(I-2
I1
tp3114
a(I-2
I2
tp3115
a(I-3
I2
tp3116
a(I-3
I1
tp3117
a(I-3
I0
tp3118
a(I-4
I0
tp3119
a(I-5
I0
tp3120
a(I-5
I-1
tp3121
a(I-5
I-2
tp3122
a(I-4
I-2
tp3123
a(I-3
I-2
tp3124
a(I-3
I-3
tp3125
a(I-3
I-4
tp3126
a(I-2
I-4
tp3127
a(I-2
I-3
tp3128
a(I-2
I-2
tp3129
a(I-1
I-2
tp3130
aI0
tp3131
a((lp3132
g3
a(I-1
I0
tp3133
a(I-1
I-1
tp3134
a(I0
I-1
tp3135
a(I0
I-2
tp3136
a(I0
I-3
tp3137
a(I0
I-4
tp3138
a(I1
I-4
tp3139
a(I2
I-4
tp3140
a(I2
I-3
tp3141
a(I1
I-3
tp3142
a(I1
I-2
tp3143
a(I1
I-1
tp3144
a(I1
I0
tp3145
a(I2
I0
tp3146
a(I2
I1
tp3147
a(I1
I1
tp3148
a(I1
I2
tp3149
a(I1
I3
tp3150
a(I1
I4
tp3151
aI0
tp3152
a((lp3153
g3
a(I1
I0
tp3154
a(I1
I1
tp3155
a(I2
I1
tp3156
a(I2
I0
tp3157
a(I3
I0
tp3158
a(I3
I1
tp3159
a(I3
I2
tp3160
a(I4
I2
tp3161
a(I4
I3
tp3162
a(I4
I4
tp3163
a(I3
I4
tp3164
a(I3
I5
tp3165
a(I3
I6
tp3166
a(I2
I6
tp3167
a(I2
I7
tp3168
a(I1
I7
tp3169
a(I0
I7
tp3170
a(I-1
I7
tp3171
a(I-1
I8
tp3172
aI0
tp3173
a((lp3174
g3
a(I0
I1
tp3175
a(I-1
I1
tp3176
a(I-1
I2
tp3177
a(I-2
I2
tp3178
a(I-2
I1
tp3179
a(I-3
I1
tp3180
a(I-3
I2
tp3181
a(I-3
I3
tp3182
a(I-2
I3
tp3183
a(I-1
I3
tp3184
a(I-1
I4
tp3185
a(I-2
I4
tp3186
a(I-2
I5
tp3187
a(I-2
I6
tp3188
a(I-3
I6
tp3189
a(I-3
I7
tp3190
a(I-3
I8
tp3191
a(I-4
I8
tp3192
a(I-4
I9
tp3193
aI0
tp3194
a((lp3195
g3
a(I0
I-1
tp3196
a(I-1
I-1
tp3197
a(I-1
I-2
tp3198
a(I-2
I-2
tp3199
a(I-3
I-2
tp3200
a(I-4
I-2
tp3201
a(I-4
I-3
tp3202
a(I-5
I-3
tp3203
a(I-5
I-4
tp3204
a(I-6
I-4
tp3205
a(I-7
I-4
tp3206
a(I-7
I-5
tp3207
a(I-7
I-6
tp3208
a(I-7
I-7
tp3209
a(I-7
I-8
tp3210
a(I-7
I-9
tp3211
a(I-8
I-9
tp3212
a(I-8
I-10
tp3213
a(I-8
I-11
tp3214
aI0
tp3215
a((lp3216
g3
a(I0
I-1
tp3217
a(I-1
I-1
tp3218
a(I-1
I0
tp3219
a(I-1
I1
tp3220
a(I-2
I1
tp3221
a(I-2
I2
tp3222
a(I-2
I3
tp3223
a(I-3
I3
tp3224
a(I-4
I3
tp3225
a(I-4
I4
tp3226
a(I-3
I4
tp3227
a(I-2
I4
tp3228
a(I-2
I5
tp3229
a(I-1
I5
tp3230
a(I-1
I6
tp3231
a(I-1
I7
tp3232
a(I-1
I8
tp3233
a(I-2
I8
tp3234
a(I-2
I9
tp3235
aI0
tp3236
a((lp3237
g3
a(I0
I-1
tp3238
a(I1
I-1
tp3239
a(I1
I0
tp3240
a(I1
I1
tp3241
a(I2
I1
tp3242
a(I2
I0
tp3243
a(I3
I0
tp3244
a(I4
I0
tp3245
a(I4
I-1
tp3246
a(I5
I-1
tp3247
a(I5
I-2
tp3248
a(I5
I-3
tp3249
a(I4
I-3
tp3250
a(I3
I-3
tp3251
a(I2
I-3
tp3252
a(I2
I-2
tp3253
a(I1
I-2
tp3254
a(I1
I-3
tp3255
a(I0
I-3
tp3256
aI0
tp3257
a((lp3258
g3
a(I0
I1
tp3259
a(I-1
I1
tp3260
a(I-2
I1
tp3261
a(I-2
I2
tp3262
a(I-3
I2
tp3263
a(I-4
I2
tp3264
a(I-4
I1
tp3265
a(I-3
I1
tp3266
a(I-3
I0
tp3267
a(I-3
I-1
tp3268
a(I-4
I-1
tp3269
a(I-4
I-2
tp3270
a(I-3
I-2
tp3271
a(I-2
I-2
tp3272
a(I-2
I-1
tp3273
a(I-1
I-1
tp3274
a(I0
I-1
tp3275
a(I1
I-1
tp3276
a(I1
I-2
tp3277
aI0
tp3278
a((lp3279
g3
a(I1
I0
tp3280
a(I1
I1
tp3281
a(I0
I1
tp3282
a(I0
I2
tp3283
a(I1
I2
tp3284
a(I2
I2
tp3285
a(I3
I2
tp3286
a(I3
I3
tp3287
a(I4
I3
tp3288
a(I4
I2
tp3289
a(I5
I2
tp3290
a(I5
I3
tp3291
a(I6
I3
tp3292
a(I6
I2
tp3293
a(I6
I1
tp3294
a(I7
I1
tp3295
a(I7
I0
tp3296
a(I6
I0
tp3297
a(I5
I0
tp3298
aI0
tp3299
a((lp3300
g3
a(I0
I1
tp3301
a(I-1
I1
tp3302
a(I-1
I2
tp3303
a(I-1
I3
tp3304
a(I-2
I3
tp3305
a(I-2
I2
tp3306
a(I-2
I1
tp3307
a(I-2
I0
tp3308
a(I-3
I0
tp3309
a(I-3
I1
tp3310
a(I-4
I1
tp3311
a(I-4
I2
tp3312
a(I-5
I2
tp3313
a(I-5
I3
tp3314
a(I-5
I4
tp3315
a(I-6
I4
tp3316
a(I-7
I4
tp3317
a(I-7
I5
tp3318
a(I-6
I5
tp3319
aI0
tp3320
a((lp3321
g3
a(I-1
I0
tp3322
a(I-1
I-1
tp3323
a(I-2
I-1
tp3324
a(I-2
I-2
tp3325
a(I-1
I-2
tp3326
a(I-1
I-3
tp3327
a(I0
I-3
tp3328
a(I0
I-4
tp3329
a(I-1
I-4
tp3330
a(I-1
I-5
tp3331
a(I0
I-5
tp3332
a(I1
I-5
tp3333
a(I1
I-6
tp3334
a(I1
I-7
tp3335
a(I0
I-7
tp3336
a(I0
I-6
tp3337
a(I-1
I-6
tp3338
a(I-2
I-6
tp3339
a(I-2
I-5
tp3340
aI0
tp3341
a((lp3342
g3
a(I0
I1
tp3343
a(I-1
I1
tp3344
a(I-1
I2
tp3345
a(I-2
I2
tp3346
a(I-2
I1
tp3347
a(I-3
I1
tp3348
a(I-3
I0
tp3349
a(I-3
I-1
tp3350
a(I-3
I-2
tp3351
a(I-4
I-2
tp3352
a(I-4
I-3
tp3353
a(I-5
I-3
tp3354
a(I-5
I-2
tp3355
a(I-6
I-2
tp3356
a(I-6
I-3
tp3357
a(I-6
I-4
tp3358
a(I-5
I-4
tp3359
a(I-5
I-5
tp3360
a(I-5
I-6
tp3361
aI0
tp3362
a((lp3363
g3
a(I0
I1
tp3364
a(I0
I2
tp3365
a(I0
I3
tp3366
a(I0
I4
tp3367
a(I1
I4
tp3368
a(I1
I5
tp3369
a(I1
I6
tp3370
a(I0
I6
tp3371
a(I0
I5
tp3372
a(I-1
I5
tp3373
a(I-2
I5
tp3374
a(I-2
I6
tp3375
a(I-2
I7
tp3376
a(I-3
I7
tp3377
a(I-4
I7
tp3378
a(I-5
I7
tp3379
a(I-5
I6
tp3380
a(I-6
I6
tp3381
a(I-7
I6
tp3382
aI0
tp3383
a((lp3384
g3
a(I1
I0
tp3385
a(I1
I1
tp3386
a(I1
I2
tp3387
a(I0
I2
tp3388
a(I0
I1
tp3389
a(I-1
I1
tp3390
a(I-2
I1
tp3391
a(I-2
I2
tp3392
a(I-3
I2
tp3393
a(I-3
I1
tp3394
a(I-4
I1
tp3395
a(I-4
I0
tp3396
a(I-5
I0
tp3397
a(I-5
I1
tp3398
a(I-5
I2
tp3399
a(I-5
I3
tp3400
a(I-4
I3
tp3401
a(I-4
I4
tp3402
a(I-3
I4
tp3403
aI0
tp3404
a((lp3405
g3
a(I-1
I0
tp3406
a(I-2
I0
tp3407
a(I-2
I1
tp3408
a(I-2
I2
tp3409
a(I-3
I2
tp3410
a(I-4
I2
tp3411
a(I-4
I3
tp3412
a(I-3
I3
tp3413
a(I-2
I3
tp3414
a(I-2
I4
tp3415
a(I-2
I5
tp3416
a(I-1
I5
tp3417
a(I-1
I4
tp3418
a(I0
I4
tp3419
a(I0
I3
tp3420
a(I-1
I3
tp3421
a(I-1
I2
tp3422
a(I-1
I1
tp3423
a(I0
I1
tp3424
aI0
tp3425
a((lp3426
g3
a(I0
I-1
tp3427
a(I0
I-2
tp3428
a(I1
I-2
tp3429
a(I1
I-3
tp3430
a(I1
I-4
tp3431
a(I2
I-4
tp3432
a(I2
I-3
tp3433
a(I2
I-2
tp3434
a(I3
I-2
tp3435
a(I3
I-3
tp3436
a(I3
I-4
tp3437
a(I3
I-5
tp3438
a(I3
I-6
tp3439
a(I2
I-6
tp3440
a(I1
I-6
tp3441
a(I1
I-7
tp3442
a(I0
I-7
tp3443
a(I0
I-6
tp3444
a(I0
I-5
tp3445
aI0
tp3446
a((lp3447
g3
a(I1
I0
tp3448
a(I1
I1
tp3449
a(I1
I2
tp3450
a(I1
I3
tp3451
a(I0
I3
tp3452
a(I-1
I3
tp3453
a(I-1
I4
tp3454
a(I-1
I5
tp3455
a(I-1
I6
tp3456
a(I-2
I6
tp3457
a(I-3
I6
tp3458
a(I-3
I5
tp3459
a(I-4
I5
tp3460
a(I-5
I5
tp3461
a(I-5
I4
tp3462
a(I-6
I4
tp3463
a(I-6
I5
tp3464
a(I-6
I6
tp3465
a(I-7
I6
tp3466
aI0
tp3467
a((lp3468
g3
a(I0
I1
tp3469
a(I-1
I1
tp3470
a(I-1
I2
tp3471
a(I0
I2
tp3472
a(I0
I3
tp3473
a(I0
I4
tp3474
a(I-1
I4
tp3475
a(I-2
I4
tp3476
a(I-3
I4
tp3477
a(I-4
I4
tp3478
a(I-4
I5
tp3479
a(I-3
I5
tp3480
a(I-3
I6
tp3481
a(I-3
I7
tp3482
a(I-2
I7
tp3483
a(I-2
I6
tp3484
a(I-1
I6
tp3485
a(I0
I6
tp3486
a(I0
I7
tp3487
aI0
tp3488
a((lp3489
g3
a(I0
I1
tp3490
a(I-1
I1
tp3491
a(I-2
I1
tp3492
a(I-3
I1
tp3493
a(I-3
I2
tp3494
a(I-4
I2
tp3495
a(I-4
I1
tp3496
a(I-4
I0
tp3497
a(I-4
I-1
tp3498
a(I-3
I-1
tp3499
a(I-2
I-1
tp3500
a(I-2
I-2
tp3501
a(I-2
I-3
tp3502
a(I-2
I-4
tp3503
a(I-1
I-4
tp3504
a(I-1
I-3
tp3505
a(I-1
I-2
tp3506
a(I0
I-2
tp3507
a(I0
I-3
tp3508
aI0
tp3509
a((lp3510
g3
a(I0
I-1
tp3511
a(I-1
I-1
tp3512
a(I-2
I-1
tp3513
a(I-2
I0
tp3514
a(I-3
I0
tp3515
a(I-3
I-1
tp3516
a(I-3
I-2
tp3517
a(I-2
I-2
tp3518
a(I-1
I-2
tp3519
a(I0
I-2
tp3520
a(I0
I-3
tp3521
a(I1
I-3
tp3522
a(I1
I-4
tp3523
a(I0
I-4
tp3524
a(I0
I-5
tp3525
a(I1
I-5
tp3526
a(I1
I-6
tp3527
a(I0
I-6
tp3528
a(I0
I-7
tp3529
aI0
tp3530
a((lp3531
g3
a(I-1
I0
tp3532
a(I-1
I-1
tp3533
a(I-1
I-2
tp3534
a(I0
I-2
tp3535
a(I0
I-3
tp3536
a(I-1
I-3
tp3537
a(I-2
I-3
tp3538
a(I-2
I-2
tp3539
a(I-3
I-2
tp3540
a(I-3
I-1
tp3541
a(I-2
I-1
tp3542
a(I-2
I0
tp3543
a(I-3
I0
tp3544
a(I-4
I0
tp3545
a(I-5
I0
tp3546
a(I-5
I1
tp3547
a(I-6
I1
tp3548
a(I-7
I1
tp3549
a(I-7
I0
tp3550
aI0
tp3551
a((lp3552
g3
a(I1
I0
tp3553
a(I2
I0
tp3554
a(I2
I1
tp3555
a(I2
I2
tp3556
a(I3
I2
tp3557
a(I3
I3
tp3558
a(I3
I4
tp3559
a(I3
I5
tp3560
a(I4
I5
tp3561
a(I5
I5
tp3562
a(I6
I5
tp3563
a(I6
I6
tp3564
a(I7
I6
tp3565
a(I7
I7
tp3566
a(I8
I7
tp3567
a(I8
I8
tp3568
a(I7
I8
tp3569
a(I7
I9
tp3570
a(I7
I10
tp3571
aI0
tp3572
a((lp3573
g3
a(I0
I1
tp3574
a(I-1
I1
tp3575
a(I-1
I2
tp3576
a(I0
I2
tp3577
a(I1
I2
tp3578
a(I1
I1
tp3579
a(I1
I0
tp3580
a(I2
I0
tp3581
a(I2
I1
tp3582
a(I3
I1
tp3583
a(I4
I1
tp3584
a(I4
I0
tp3585
a(I4
I-1
tp3586
a(I4
I-2
tp3587
a(I5
I-2
tp3588
a(I5
I-3
tp3589
a(I6
I-3
tp3590
a(I6
I-4
tp3591
a(I5
I-4
tp3592
aI0
tp3593
a((lp3594
g3
a(I0
I1
tp3595
a(I1
I1
tp3596
a(I2
I1
tp3597
a(I2
I2
tp3598
a(I2
I3
tp3599
a(I3
I3
tp3600
a(I3
I4
tp3601
a(I2
I4
tp3602
a(I1
I4
tp3603
a(I1
I3
tp3604
a(I0
I3
tp3605
a(I-1
I3
tp3606
a(I-2
I3
tp3607
a(I-3
I3
tp3608
a(I-3
I4
tp3609
a(I-2
I4
tp3610
a(I-1
I4
tp3611
a(I0
I4
tp3612
a(I0
I5
tp3613
aI0
tp3614
a((lp3615
g3
a(I-1
I0
tp3616
a(I-1
I-1
tp3617
a(I-1
I-2
tp3618
a(I-1
I-3
tp3619
a(I-2
I-3
tp3620
a(I-3
I-3
tp3621
a(I-4
I-3
tp3622
a(I-5
I-3
tp3623
a(I-5
I-2
tp3624
a(I-6
I-2
tp3625
a(I-6
I-3
tp3626
a(I-6
I-4
tp3627
a(I-7
I-4
tp3628
a(I-7
I-5
tp3629
a(I-7
I-6
tp3630
a(I-7
I-7
tp3631
a(I-6
I-7
tp3632
a(I-6
I-8
tp3633
a(I-5
I-8
tp3634
aI0
tp3635
a((lp3636
g3
a(I1
I0
tp3637
a(I1
I1
tp3638
a(I1
I2
tp3639
a(I1
I3
tp3640
a(I2
I3
tp3641
a(I2
I2
tp3642
a(I2
I1
tp3643
a(I3
I1
tp3644
a(I4
I1
tp3645
a(I4
I0
tp3646
a(I3
I0
tp3647
a(I3
I-1
tp3648
a(I2
I-1
tp3649
a(I2
I-2
tp3650
a(I1
I-2
tp3651
a(I1
I-1
tp3652
a(I0
I-1
tp3653
a(I-1
I-1
tp3654
a(I-1
I-2
tp3655
aI0
tp3656
a((lp3657
g3
a(I-1
I0
tp3658
a(I-1
I1
tp3659
a(I-1
I2
tp3660
a(I-2
I2
tp3661
a(I-2
I1
tp3662
a(I-2
I0
tp3663
a(I-2
I-1
tp3664
a(I-3
I-1
tp3665
a(I-3
I-2
tp3666
a(I-2
I-2
tp3667
a(I-2
I-3
tp3668
a(I-2
I-4
tp3669
a(I-3
I-4
tp3670
a(I-3
I-3
tp3671
a(I-4
I-3
tp3672
a(I-4
I-4
tp3673
a(I-4
I-5
tp3674
a(I-5
I-5
tp3675
a(I-6
I-5
tp3676
aI0
tp3677
a((lp3678
g3
a(I0
I-1
tp3679
a(I0
I-2
tp3680
a(I-1
I-2
tp3681
a(I-1
I-3
tp3682
a(I0
I-3
tp3683
a(I1
I-3
tp3684
a(I1
I-2
tp3685
a(I1
I-1
tp3686
a(I2
I-1
tp3687
a(I3
I-1
tp3688
a(I3
I-2
tp3689
a(I2
I-2
tp3690
a(I2
I-3
tp3691
a(I3
I-3
tp3692
a(I4
I-3
tp3693
a(I5
I-3
tp3694
a(I5
I-4
tp3695
a(I5
I-5
tp3696
a(I4
I-5
tp3697
aI0
tp3698
a((lp3699
g3
a(I1
I0
tp3700
a(I1
I1
tp3701
a(I0
I1
tp3702
a(I0
I2
tp3703
a(I1
I2
tp3704
a(I2
I2
tp3705
a(I2
I3
tp3706
a(I1
I3
tp3707
a(I0
I3
tp3708
a(I-1
I3
tp3709
a(I-2
I3
tp3710
a(I-3
I3
tp3711
a(I-3
I4
tp3712
a(I-4
I4
tp3713
a(I-5
I4
tp3714
a(I-6
I4
tp3715
a(I-6
I3
tp3716
a(I-5
I3
tp3717
a(I-4
I3
tp3718
aI0
tp3719
a((lp3720
g3
a(I-1
I0
tp3721
a(I-2
I0
tp3722
a(I-2
I1
tp3723
a(I-2
I2
tp3724
a(I-1
I2
tp3725
a(I-1
I3
tp3726
a(I-1
I4
tp3727
a(I-1
I5
tp3728
a(I0
I5
tp3729
a(I0
I4
tp3730
a(I0
I3
tp3731
a(I1
I3
tp3732
a(I1
I2
tp3733
a(I2
I2
tp3734
a(I2
I3
tp3735
a(I2
I4
tp3736
a(I2
I5
tp3737
a(I2
I6
tp3738
a(I1
I6
tp3739
aI0
tp3740
a((lp3741
g3
a(I-1
I0
tp3742
a(I-1
I1
tp3743
a(I-2
I1
tp3744
a(I-2
I2
tp3745
a(I-2
I3
tp3746
a(I-1
I3
tp3747
a(I0
I3
tp3748
a(I1
I3
tp3749
a(I1
I4
tp3750
a(I0
I4
tp3751
a(I0
I5
tp3752
a(I-1
I5
tp3753
a(I-1
I4
tp3754
a(I-2
I4
tp3755
a(I-3
I4
tp3756
a(I-3
I3
tp3757
a(I-3
I2
tp3758
a(I-3
I1
tp3759
a(I-4
I1
tp3760
aI0
tp3761
a((lp3762
g3
a(I1
I0
tp3763
a(I1
I1
tp3764
a(I0
I1
tp3765
a(I-1
I1
tp3766
a(I-1
I0
tp3767
a(I-2
I0
tp3768
a(I-2
I-1
tp3769
a(I-3
I-1
tp3770
a(I-3
I0
tp3771
a(I-3
I1
tp3772
a(I-2
I1
tp3773
a(I-2
I2
tp3774
a(I-1
I2
tp3775
a(I0
I2
tp3776
a(I0
I3
tp3777
a(I1
I3
tp3778
a(I1
I4
tp3779
a(I1
I5
tp3780
a(I2
I5
tp3781
aI0
tp3782
a((lp3783
g3
a(I0
I-1
tp3784
a(I0
I-2
tp3785
a(I0
I-3
tp3786
a(I0
I-4
tp3787
a(I1
I-4
tp3788
a(I2
I-4
tp3789
a(I2
I-3
tp3790
a(I1
I-3
tp3791
a(I1
I-2
tp3792
a(I1
I-1
tp3793
a(I2
I-1
tp3794
a(I3
I-1
tp3795
a(I4
I-1
tp3796
a(I5
I-1
tp3797
a(I5
I-2
tp3798
a(I5
I-3
tp3799
a(I5
I-4
tp3800
a(I6
I-4
tp3801
a(I7
I-4
tp3802
aI0
tp3803
a((lp3804
g3
a(I0
I1
tp3805
a(I0
I2
tp3806
a(I-1
I2
tp3807
a(I-2
I2
tp3808
a(I-3
I2
tp3809
a(I-3
I3
tp3810
a(I-3
I4
tp3811
a(I-2
I4
tp3812
a(I-2
I3
tp3813
a(I-1
I3
tp3814
a(I0
I3
tp3815
a(I1
I3
tp3816
a(I2
I3
tp3817
a(I2
I4
tp3818
a(I1
I4
tp3819
a(I1
I5
tp3820
a(I0
I5
tp3821
a(I-1
I5
tp3822
a(I-1
I4
tp3823
aI0
tp3824
a((lp3825
g3
a(I1
I0
tp3826
a(I1
I-1
tp3827
a(I1
I-2
tp3828
a(I0
I-2
tp3829
a(I-1
I-2
tp3830
a(I-1
I-1
tp3831
a(I-2
I-1
tp3832
a(I-3
I-1
tp3833
a(I-4
I-1
tp3834
a(I-4
I0
tp3835
a(I-3
I0
tp3836
a(I-3
I1
tp3837
a(I-4
I1
tp3838
a(I-4
I2
tp3839
a(I-5
I2
tp3840
a(I-6
I2
tp3841
a(I-6
I3
tp3842
a(I-6
I4
tp3843
a(I-7
I4
tp3844
aI0
tp3845
a((lp3846
g3
a(I0
I1
tp3847
a(I0
I2
tp3848
a(I1
I2
tp3849
a(I1
I1
tp3850
a(I1
I0
tp3851
a(I2
I0
tp3852
a(I2
I-1
tp3853
a(I3
I-1
tp3854
a(I4
I-1
tp3855
a(I4
I0
tp3856
a(I5
I0
tp3857
a(I5
I1
tp3858
a(I6
I1
tp3859
a(I7
I1
tp3860
a(I8
I1
tp3861
a(I8
I0
tp3862
a(I8
I-1
tp3863
a(I9
I-1
tp3864
a(I9
I0
tp3865
aI0
tp3866
a((lp3867
g3
a(I0
I1
tp3868
a(I0
I2
tp3869
a(I0
I3
tp3870
a(I1
I3
tp3871
a(I1
I2
tp3872
a(I1
I1
tp3873
a(I2
I1
tp3874
a(I2
I0
tp3875
a(I2
I-1
tp3876
a(I1
I-1
tp3877
a(I0
I-1
tp3878
a(I-1
I-1
tp3879
a(I-2
I-1
tp3880
a(I-2
I-2
tp3881
a(I-3
I-2
tp3882
a(I-3
I-1
tp3883
a(I-3
I0
tp3884
a(I-2
I0
tp3885
a(I-2
I1
tp3886
aI0
tp3887
a((lp3888
g3
a(I-1
I0
tp3889
a(I-2
I0
tp3890
a(I-2
I-1
tp3891
a(I-1
I-1
tp3892
a(I-1
I-2
tp3893
a(I-1
I-3
tp3894
a(I-1
I-4
tp3895
a(I-1
I-5
tp3896
a(I0
I-5
tp3897
a(I0
I-4
tp3898
a(I1
I-4
tp3899
a(I1
I-3
tp3900
a(I0
I-3
tp3901
a(I0
I-2
tp3902
a(I0
I-1
tp3903
a(I1
I-1
tp3904
a(I1
I0
tp3905
a(I1
I1
tp3906
a(I0
I1
tp3907
aI0
tp3908
a((lp3909
g3
a(I0
I1
tp3910
a(I0
I2
tp3911
a(I0
I3
tp3912
a(I0
I4
tp3913
a(I1
I4
tp3914
a(I2
I4
tp3915
a(I2
I3
tp3916
a(I1
I3
tp3917
a(I1
I2
tp3918
a(I2
I2
tp3919
a(I3
I2
tp3920
a(I4
I2
tp3921
a(I4
I3
tp3922
a(I5
I3
tp3923
a(I6
I3
tp3924
a(I6
I2
tp3925
a(I7
I2
tp3926
a(I7
I3
tp3927
a(I8
I3
tp3928
aI0
tp3929
a((lp3930
g3
a(I1
I0
tp3931
a(I1
I1
tp3932
a(I0
I1
tp3933
a(I0
I2
tp3934
a(I1
I2
tp3935
a(I2
I2
tp3936
a(I3
I2
tp3937
a(I4
I2
tp3938
a(I4
I1
tp3939
a(I4
I0
tp3940
a(I5
I0
tp3941
a(I6
I0
tp3942
a(I7
I0
tp3943
a(I7
I1
tp3944
a(I7
I2
tp3945
a(I8
I2
tp3946
a(I9
I2
tp3947
a(I9
I1
tp3948
a(I9
I0
tp3949
aI0
tp3950
a((lp3951
g3
a(I1
I0
tp3952
a(I1
I-1
tp3953
a(I1
I-2
tp3954
a(I0
I-2
tp3955
a(I0
I-1
tp3956
a(I-1
I-1
tp3957
a(I-1
I0
tp3958
a(I-1
I1
tp3959
a(I0
I1
tp3960
a(I1
I1
tp3961
a(I2
I1
tp3962
a(I2
I0
tp3963
a(I2
I-1
tp3964
a(I2
I-2
tp3965
a(I3
I-2
tp3966
a(I3
I-1
tp3967
a(I3
I0
tp3968
a(I4
I0
tp3969
a(I4
I1
tp3970
aI0
tp3971
a((lp3972
g3
a(I0
I-1
tp3973
a(I-1
I-1
tp3974
a(I-1
I0
tp3975
a(I-2
I0
tp3976
a(I-2
I1
tp3977
a(I-2
I2
tp3978
a(I-2
I3
tp3979
a(I-1
I3
tp3980
a(I0
I3
tp3981
a(I1
I3
tp3982
a(I1
I2
tp3983
a(I2
I2
tp3984
a(I3
I2
tp3985
a(I3
I1
tp3986
a(I4
I1
tp3987
a(I4
I0
tp3988
a(I4
I-1
tp3989
a(I4
I-2
tp3990
a(I4
I-3
tp3991
aI0
tp3992
a((lp3993
g3
a(I-1
I0
tp3994
a(I-1
I1
tp3995
a(I-1
I2
tp3996
a(I-1
I3
tp3997
a(I0
I3
tp3998
a(I1
I3
tp3999
a(I2
I3
tp4000
a(I3
I3
tp4001
a(I4
I3
tp4002
a(I5
I3
tp4003
a(I5
I2
tp4004
a(I4
I2
tp4005
a(I4
I1
tp4006
a(I3
I1
tp4007
a(I3
I2
tp4008
a(I2
I2
tp4009
a(I2
I1
tp4010
a(I1
I1
tp4011
a(I1
I0
tp4012
aI0
tp4013
a((lp4014
g3
a(I0
I-1
tp4015
a(I1
I-1
tp4016
a(I1
I-2
tp4017
a(I0
I-2
tp4018
a(I0
I-3
tp4019
a(I-1
I-3
tp4020
a(I-1
I-4
tp4021
a(I-1
I-5
tp4022
a(I-2
I-5
tp4023
a(I-2
I-4
tp4024
a(I-3
I-4
tp4025
a(I-3
I-5
tp4026
a(I-3
I-6
tp4027
a(I-3
I-7
tp4028
a(I-4
I-7
tp4029
a(I-5
I-7
tp4030
a(I-5
I-8
tp4031
a(I-5
I-9
tp4032
a(I-6
I-9
tp4033
aI0
tp4034
a((lp4035
g3
a(I-1
I0
tp4036
a(I-2
I0
tp4037
a(I-2
I-1
tp4038
a(I-3
I-1
tp4039
a(I-3
I0
tp4040
a(I-3
I1
tp4041
a(I-2
I1
tp4042
a(I-1
I1
tp4043
a(I-1
I2
tp4044
a(I-2
I2
tp4045
a(I-2
I3
tp4046
a(I-2
I4
tp4047
a(I-3
I4
tp4048
a(I-3
I5
tp4049
a(I-4
I5
tp4050
a(I-4
I4
tp4051
a(I-4
I3
tp4052
a(I-3
I3
tp4053
a(I-3
I2
tp4054
aI0
tp4055
a((lp4056
g3
a(I1
I0
tp4057
a(I1
I1
tp4058
a(I1
I2
tp4059
a(I1
I3
tp4060
a(I2
I3
tp4061
a(I3
I3
tp4062
a(I4
I3
tp4063
a(I4
I4
tp4064
a(I5
I4
tp4065
a(I5
I5
tp4066
a(I5
I6
tp4067
a(I5
I7
tp4068
a(I6
I7
tp4069
a(I6
I6
tp4070
a(I6
I5
tp4071
a(I6
I4
tp4072
a(I7
I4
tp4073
a(I7
I5
tp4074
a(I8
I5
tp4075
aI0
tp4076
a((lp4077
g3
a(I0
I-1
tp4078
a(I1
I-1
tp4079
a(I1
I-2
tp4080
a(I1
I-3
tp4081
a(I0
I-3
tp4082
a(I0
I-4
tp4083
a(I1
I-4
tp4084
a(I1
I-5
tp4085
a(I1
I-6
tp4086
a(I0
I-6
tp4087
a(I0
I-7
tp4088
a(I-1
I-7
tp4089
a(I-1
I-6
tp4090
a(I-1
I-5
tp4091
a(I-1
I-4
tp4092
a(I-2
I-4
tp4093
a(I-3
I-4
tp4094
a(I-4
I-4
tp4095
a(I-4
I-3
tp4096
aI0
tp4097
a((lp4098
g3
a(I1
I0
tp4099
a(I1
I-1
tp4100
a(I1
I-2
tp4101
a(I1
I-3
tp4102
a(I0
I-3
tp4103
a(I0
I-4
tp4104
a(I0
I-5
tp4105
a(I0
I-6
tp4106
a(I1
I-6
tp4107
a(I2
I-6
tp4108
a(I3
I-6
tp4109
a(I4
I-6
tp4110
a(I4
I-7
tp4111
a(I4
I-8
tp4112
a(I3
I-8
tp4113
a(I3
I-9
tp4114
a(I4
I-9
tp4115
a(I4
I-10
tp4116
a(I4
I-11
tp4117
aI0
tp4118
a((lp4119
g3
a(I-1
I0
tp4120
a(I-2
I0
tp4121
a(I-2
I-1
tp4122
a(I-3
I-1
tp4123
a(I-3
I0
tp4124
a(I-3
I1
tp4125
a(I-4
I1
tp4126
a(I-5
I1
tp4127
a(I-5
I0
tp4128
a(I-6
I0
tp4129
a(I-7
I0
tp4130
a(I-7
I1
tp4131
a(I-8
I1
tp4132
a(I-9
I1
tp4133
a(I-9
I0
tp4134
a(I-10
I0
tp4135
a(I-11
I0
tp4136
a(I-12
I0
tp4137
a(I-12
I1
tp4138
aI0
tp4139
a((lp4140
g3
a(I0
I1
tp4141
a(I1
I1
tp4142
a(I1
I2
tp4143
a(I1
I3
tp4144
a(I0
I3
tp4145
a(I0
I2
tp4146
a(I-1
I2
tp4147
a(I-1
I3
tp4148
a(I-2
I3
tp4149
a(I-3
I3
tp4150
a(I-4
I3
tp4151
a(I-4
I4
tp4152
a(I-5
I4
tp4153
a(I-5
I3
tp4154
a(I-5
I2
tp4155
a(I-5
I1
tp4156
a(I-4
I1
tp4157
a(I-3
I1
tp4158
a(I-3
I0
tp4159
aI0
tp4160
a((lp4161
g3
a(I1
I0
tp4162
a(I1
I-1
tp4163
a(I0
I-1
tp4164
a(I-1
I-1
tp4165
a(I-1
I0
tp4166
a(I-2
I0
tp4167
a(I-2
I1
tp4168
a(I-2
I2
tp4169
a(I-2
I3
tp4170
a(I-1
I3
tp4171
a(I-1
I2
tp4172
a(I0
I2
tp4173
a(I0
I1
tp4174
a(I1
I1
tp4175
a(I2
I1
tp4176
a(I3
I1
tp4177
a(I4
I1
tp4178
a(I5
I1
tp4179
a(I5
I0
tp4180
aI0
tp4181
a((lp4182
g3
a(I-1
I0
tp4183
a(I-1
I1
tp4184
a(I-1
I2
tp4185
a(I-2
I2
tp4186
a(I-2
I1
tp4187
a(I-3
I1
tp4188
a(I-3
I0
tp4189
a(I-3
I-1
tp4190
a(I-4
I-1
tp4191
a(I-4
I-2
tp4192
a(I-5
I-2
tp4193
a(I-6
I-2
tp4194
a(I-6
I-3
tp4195
a(I-5
I-3
tp4196
a(I-4
I-3
tp4197
a(I-4
I-4
tp4198
a(I-4
I-5
tp4199
a(I-5
I-5
tp4200
a(I-6
I-5
tp4201
aI0
tp4202
a.