(lp1
((lp2
(I0
I0
tp3
a(I1
I0
tp4
a(I1
I-1
tp5
a(I0
I-1
tp6
a(I0
I-2
tp7
a(I0
I-3
tp8
a(I-1
I-3
tp9
a(I-2
I-3
tp10
a(I-3
I-3
tp11
a(I-3
I-4
tp12
a(I-4
I-4
tp13
a(I-4
I-5
tp14
a(I-5
I-5
tp15
a(I-5
I-4
tp16
a(I-5
I-3
tp17
a(I-4
I-3
tp18
a(I-4
I-2
tp19
a(I-4
I-1
tp20
a(I-3
I-1
tp21
a(I-3
I0
tp22
a(I-3
I1
tp23
a(I-3
I2
tp24
a(I-3
I3
tp25
a(I-4
I3
tp26
a(I-5
I3
tp27
aI0
tp28
a((lp29
g3
a(I-1
I0
tp30
a(I-1
I-1
tp31
a(I-1
I-2
tp32
a(I-2
I-2
tp33
a(I-2
I-1
tp34
a(I-2
I0
tp35
a(I-2
I1
tp36
a(I-3
I1
tp37
a(I-3
I2
tp38
a(I-2
I2
tp39
a(I-2
I3
tp40
a(I-2
I4
tp41
a(I-1
I4
tp42
a(I0
I4
tp43
a(I0
I5
tp44
a(I1
I5
tp45
a(I1
I4
tp46
a(I1
I3
tp47
a(I1
I2
tp48
a(I0
I2
tp49
a(I-1
I2
tp50
a(I-1
I1
tp51
a(I0
I1
tp52
a(I1
I1
tp53
aI0
tp54
a((lp55
g3
a(I0
I-1
tp56
a(I-1
I-1
tp57
a(I-1
I0
tp58
a(I-2
I0
tp59
a(I-2
I-1
tp60
a(I-3
I-1
tp61
a(I-3
I0
tp62
a(I-4
I0
tp63
a(I-4
I-1
tp64
a(I-5
I-1
tp65
a(I-5
I0
tp66
a(I-6
I0
tp67
a(I-7
I0
tp68
a(I-8
I0
tp69
a(I-8
I-1
tp70
a(I-7
I-1
tp71
a(I-7
I-2
tp72
a(I-6
I-2
tp73
a(I-6
I-3
tp74
a(I-7
I-3
tp75
a(I-8
I-3
tp76
a(I-8
I-4
tp77
a(I-9
I-4
tp78
a(I-10
I-4
tp79
aI0
tp80
a((lp81
g3
a(I0
I-1
tp82
a(I0
I-2
tp83
a(I-1
I-2
tp84
a(I-2
I-2
tp85
a(I-3
I-2
tp86
a(I-3
I-1
tp87
a(I-3
I0
tp88
a(I-3
I1
tp89
a(I-2
I1
tp90
a(I-2
I0
tp91
a(I-1
I0
tp92
a(I-1
I1
tp93
a(I-1
I2
tp94
a(I-2
I2
tp95
a(I-2
I3
tp96
a(I-1
I3
tp97
a(I0
I3
tp98
a(I0
I4
tp99
a(I0
I5
tp100
a(I1
I5
tp101
a(I2
I5
tp102
a(I2
I6
tp103
a(I2
I7
tp104
a(I1
I7
tp105
aI0
tp106
a((lp107
g3
a(I0
I1
tp108
a(I0
I2
tp109
a(I0
I3
tp110
a(I0
I4
tp111
a(I-1
I4
tp112
a(I-2
I4
tp113
a(I-2
I5
tp114
a(I-2
I6
tp115
a(I-1
I6
tp116
a(I0
I6
tp117
a(I0
I7
tp118
a(I1
I7
tp119
a(I1
I8
tp120
a(I1
I9
tp121
a(I1
I10
tp122
a(I0
I10
tp123
a(I-1
I10
tp124
a(I-1
I11
tp125
a(I-1
I12
tp126
a(I-2
I12
tp127
a(I-2
I11
tp128
a(I-2
I10
tp129
a(I-2
I9
tp130
a(I-3
I9
tp131
aI0
tp132
a((lp133
g3
a(I-1
I0
tp134
a(I-2
I0
tp135
a(I-3
I0
tp136
a(I-4
I0
tp137
a(I-5
I0
tp138
a(I-6
I0
tp139
a(I-6
I-1
tp140
a(I-5
I-1
tp141
a(I-4
I-1
tp142
a(I-4
I-2
tp143
a(I-4
I-3
tp144
a(I-4
I-4
tp145
a(I-4
I-5
tp146
a(I-5
I-5
tp147
a(I-6
I-5
tp148
a(I-7
I-5
tp149
a(I-7
I-6
tp150
a(I-8
I-6
tp151
a(I-9
I-6
tp152
a(I-9
I-5
tp153
a(I-10
I-5
tp154
a(I-10
I-6
tp155
a(I-10
I-7
tp156
a(I-11
I-7
tp157
aI0
tp158
a((lp159
g3
a(I1
I0
tp160
a(I1
I-1
tp161
a(I2
I-1
tp162
a(I2
I-2
tp163
a(I1
I-2
tp164
a(I1
I-3
tp165
a(I2
I-3
tp166
a(I2
I-4
tp167
a(I1
I-4
tp168
a(I0
I-4
tp169
a(I0
I-5
tp170
a(I0
I-6
tp171
a(I0
I-7
tp172
a(I-1
I-7
tp173
a(I-1
I-6
tp174
a(I-1
I-5
tp175
a(I-2
I-5
tp176
a(I-3
I-5
tp177
a(I-4
I-5
tp178
a(I-4
I-4
tp179
a(I-3
I-4
tp180
a(I-3
I-3
tp181
a(I-3
I-2
tp182
a(I-3
I-1
tp183
aI0
tp184
a((lp185
g3
a(I0
I1
tp186
a(I-1
I1
tp187
a(I-1
I0
tp188
a(I-2
I0
tp189
a(I-3
I0
tp190
a(I-3
I-1
tp191
a(I-4
I-1
tp192
a(I-4
I-2
tp193
a(I-5
I-2
tp194
a(I-6
I-2
tp195
a(I-6
I-3
tp196
a(I-7
I-3
tp197
a(I-7
I-2
tp198
a(I-8
I-2
tp199
a(I-8
I-1
tp200
a(I-9
I-1
tp201
a(I-10
I-1
tp202
a(I-10
I0
tp203
a(I-11
I0
tp204
a(I-11
I-1
tp205
a(I-12
I-1
tp206
a(I-12
I0
tp207
a(I-12
I1
tp208
a(I-12
I2
tp209
aI0
tp210
a((lp211
g3
a(I1
I0
tp212
a(I2
I0
tp213
a(I2
I-1
tp214
a(I3
I-1
tp215
a(I3
I-2
tp216
a(I2
I-2
tp217
a(I1
I-2
tp218
a(I1
I-1
tp219
a(I0
I-1
tp220
a(I-1
I-1
tp221
a(I-1
I0
tp222
a(I-1
I1
tp223
a(I0
I1
tp224
a(I1
I1
tp225
a(I2
I1
tp226
a(I3
I1
tp227
a(I4
I1
tp228
a(I4
I2
tp229
a(I3
I2
tp230
a(I2
I2
tp231
a(I1
I2
tp232
a(I0
I2
tp233
a(I-1
I2
tp234
a(I-2
I2
tp235
aI0
tp236
a((lp237
g3
a(I0
I1
tp238
a(I-1
I1
tp239
a(I-1
I2
tp240
a(I-1
I3
tp241
a(I-2
I3
tp242
a(I-2
I4
tp243
a(I-1
I4
tp244
a(I0
I4
tp245
a(I0
I5
tp246
a(I0
I6
tp247
a(I0
I7
tp248
a(I1
I7
tp249
a(I1
I8
tp250
a(I2
I8
tp251
a(I3
I8
tp252
a(I4
I8
tp253
a(I5
I8
tp254
a(I6
I8
tp255
a(I7
I8
tp256
a(I8
I8
tp257
a(I9
I8
tp258
a(I9
I9
tp259
a(I8
I9
tp260
a(I7
I9
tp261
aI0
tp262
a((lp263
g3
a(I0
I1
tp264
a(I0
I2
tp265
a(I0
I3
tp266
a(I0
I4
tp267
a(I1
I4
tp268
a(I1
I3
tp269
a(I1
I2
tp270
a(I1
I1
tp271
a(I1
I0
tp272
a(I2
I0
tp273
a(I2
I1
tp274
a(I3
I1
tp275
a(I3
I2
tp276
a(I2
I2
tp277
a(I2
I3
tp278
a(I2
I4
tp279
a(I2
I5
tp280
a(I2
I6
tp281
a(I2
I7
tp282
a(I1
I7
tp283
a(I1
I8
tp284
a(I2
I8
tp285
a(I3
I8
tp286
a(I4
I8
tp287
aI0
tp288
a((lp289
g3
a(I0
I1
tp290
a(I0
I2
tp291
a(I1
I2
tp292
a(I2
I2
tp293
a(I2
I3
tp294
a(I2
I4
tp295
a(I1
I4
tp296
a(I0
I4
tp297
a(I-1
I4
tp298
a(I-1
I3
tp299
a(I-1
I2
tp300
a(I-2
I2
tp301
a(I-2
I1
tp302
a(I-2
I0
tp303
a(I-1
I0
tp304
a(I-1
I-1
tp305
a(I-1
I-2
tp306
a(I-1
I-3
tp307
a(I-2
I-3
tp308
a(I-2
I-4
tp309
a(I-2
I-5
tp310
a(I-2
I-6
tp311
a(I-2
I-7
tp312
a(I-3
I-7
tp313
aI0
tp314
a((lp315
g3
a(I-1
I0
tp316
a(I-1
I1
tp317
a(I-2
I1
tp318
a(I-3
I1
tp319
a(I-4
I1
tp320
a(I-5
I1
tp321
a(I-5
I0
tp322
a(I-6
I0
tp323
a(I-6
I-1
tp324
a(I-5
I-1
tp325
a(I-4
I-1
tp326
a(I-4
I0
tp327
a(I-3
I0
tp328
a(I-3
I-1
tp329
a(I-2
I-1
tp330
a(I-2
I-2
tp331
a(I-3
I-2
tp332
a(I-4
I-2
tp333
a(I-5
I-2
tp334
a(I-6
I-2
tp335
a(I-7
I-2
tp336
a(I-8
I-2
tp337
a(I-8
I-3
tp338
a(I-7
I-3
tp339
aI0
tp340
a((lp341
g3
a(I-1
I0
tp342
a(I-1
I-1
tp343
a(I0
I-1
tp344
a(I1
I-1
tp345
a(I2
I-1
tp346
a(I2
I0
tp347
a(I3
I0
tp348
a(I4
I0
tp349
a(I4
I1
tp350
a(I5
I1
tp351
a(I6
I1
tp352
a(I7
I1
tp353
a(I7
I2
tp354
a(I7
I3
tp355
a(I8
I3
tp356
a(I9
I3
tp357
a(I9
I2
tp358
a(I8
I2
tp359
a(I8
I1
tp360
a(I8
I0
tp361
a(I9
I0
tp362
a(I10
I0
tp363
a(I10
I-1
tp364
a(I10
I-2
tp365
aI0
tp366
a((lp367
g3
a(I0
I1
tp368
a(I1
I1
tp369
a(I1
I2
tp370
a(I2
I2
tp371
a(I2
I3
tp372
a(I1
I3
tp373
a(I0
I3
tp374
a(I0
I4
tp375
a(I1
I4
tp376
a(I2
I4
tp377
a(I2
I5
tp378
a(I1
I5
tp379
a(I0
I5
tp380
a(I-1
I5
tp381
a(I-2
I5
tp382
a(I-2
I4
tp383
a(I-2
I3
tp384
a(I-2
I2
tp385
a(I-2
I1
tp386
a(I-1
I1
tp387
a(I-1
I0
tp388
a(I-2
I0
tp389
a(I-3
I0
tp390
a(I-3
I1
tp391
aI0
tp392
a((lp393
g3
a(I0
I-1
tp394
a(I1
I-1
tp395
a(I1
I-2
tp396
a(I0
I-2
tp397
a(I0
I-3
tp398
a(I-1
I-3
tp399
a(I-1
I-2
tp400
a(I-1
I-1
tp401
a(I-2
I-1
tp402
a(I-3
I-1
tp403
a(I-3
I-2
tp404
a(I-4
I-2
tp405
a(I-4
I-3
tp406
a(I-3
I-3
tp407
a(I-2
I-3
tp408
a(I-2
I-4
tp409
a(I-2
I-5
tp410
a(I-1
I-5
tp411
a(I-1
I-4
tp412
a(I0
I-4
tp413
a(I1
I-4
tp414
a(I2
I-4
tp415
a(I3
I-4
tp416
a(I3
I-3
tp417
aI0
tp418
a((lp419
g3
a(I0
I1
tp420
a(I-1
I1
tp421
a(I-1
I2
tp422
a(I0
I2
tp423
a(I0
I3
tp424
a(I-1
I3
tp425
a(I-1
I4
tp426
a(I0
I4
tp427
a(I0
I5
tp428
a(I1
I5
tp429
a(I1
I6
tp430
a(I0
I6
tp431
a(I0
I7
tp432
a(I0
I8
tp433
a(I1
I8
tp434
a(I1
I7
tp435
a(I2
I7
tp436
a(I2
I6
tp437
a(I2
I5
tp438
a(I3
I5
tp439
a(I4
I5
tp440
a(I4
I6
tp441
a(I4
I7
tp442
a(I4
I8
tp443
aI0
tp444
a((lp445
g3
a(I1
I0
tp446
a(I1
I-1
tp447
a(I2
I-1
tp448
a(I2
I0
tp449
a(I3
I0
tp450
a(I3
I1
tp451
a(I2
I1
tp452
a(I2
I2
tp453
a(I1
I2
tp454
a(I0
I2
tp455
a(I-1
I2
tp456
a(I-2
I2
tp457
a(I-2
I1
tp458
a(I-1
I1
tp459
a(I-1
I0
tp460
a(I-2
I0
tp461
a(I-3
I0
tp462
a(I-3
I1
tp463
a(I-3
I2
tp464
a(I-3
I3
tp465
a(I-3
I4
tp466
a(I-3
I5
tp467
a(I-3
I6
tp468
a(I-2
I6
tp469
aI0
tp470
a((lp471
g3
a(I0
I1
tp472
a(I-1
I1
tp473
a(I-2
I1
tp474
a(I-2
I2
tp475
a(I-1
I2
tp476
a(I-1
I3
tp477
a(I-2
I3
tp478
a(I-3
I3
tp479
a(I-3
I2
tp480
a(I-4
I2
tp481
a(I-4
I3
tp482
a(I-4
I4
tp483
a(I-3
I4
tp484
a(I-3
I5
tp485
a(I-2
I5
tp486
a(I-2
I4
tp487
a(I-1
I4
tp488
a(I-1
I5
tp489
a(I0
I5
tp490
a(I0
I6
tp491
a(I0
I7
tp492
a(I0
I8
tp493
a(I1
I8
tp494
a(I1
I9
tp495
aI0
tp496
a((lp497
g3
a(I0
I1
tp498
a(I1
I1
tp499
a(I1
I2
tp500
a(I2
I2
tp501
a(I2
I3
tp502
a(I3
I3
tp503
a(I3
I2
tp504
a(I3
I1
tp505
a(I4
I1
tp506
a(I4
I2
tp507
a(I4
I3
tp508
a(I4
I4
tp509
a(I3
I4
tp510
a(I2
I4
tp511
a(I2
I5
tp512
a(I2
I6
tp513
a(I3
I6
tp514
a(I3
I5
tp515
a(I4
I5
tp516
a(I5
I5
tp517
a(I5
I4
tp518
a(I6
I4
tp519
a(I6
I3
tp520
a(I7
I3
tp521
aI0
tp522
a((lp523
g3
a(I-1
I0
tp524
a(I-2
I0
tp525
a(I-2
I1
tp526
a(I-2
I2
tp527
a(I-3
I2
tp528
a(I-4
I2
tp529
a(I-4
I1
tp530
a(I-3
I1
tp531
a(I-3
I0
tp532
a(I-3
I-1
tp533
a(I-3
I-2
tp534
a(I-4
I-2
tp535
a(I-4
I-3
tp536
a(I-5
I-3
tp537
a(I-6
I-3
tp538
a(I-7
I-3
tp539
a(I-8
I-3
tp540
a(I-8
I-2
tp541
a(I-8
I-1
tp542
a(I-9
I-1
tp543
a(I-9
I0
tp544
a(I-10
I0
tp545
a(I-10
I-1
tp546
a(I-11
I-1
tp547
aI0
tp548
a((lp549
g3
a(I0
I1
tp550
a(I0
I2
tp551
a(I0
I3
tp552
a(I0
I4
tp553
a(I1
I4
tp554
a(I1
I3
tp555
a(I2
I3
tp556
a(I3
I3
tp557
a(I3
I2
tp558
a(I4
I2
tp559
a(I5
I2
tp560
a(I6
I2
tp561
a(I6
I1
tp562
a(I7
I1
tp563
a(I7
I2
tp564
a(I7
I3
tp565
a(I7
I4
tp566
a(I7
I5
tp567
a(I7
I6
tp568
a(I8
I6
tp569
a(I8
I5
tp570
a(I8
I4
tp571
a(I9
I4
tp572
a(I9
I3
tp573
aI0
tp574
a((lp575
g3
a(I1
I0
tp576
a(I1
I-1
tp577
a(I0
I-1
tp578
a(I0
I-2
tp579
a(I1
I-2
tp580
a(I1
I-3
tp581
a(I1
I-4
tp582
a(I1
I-5
tp583
a(I0
I-5
tp584
a(I0
I-4
tp585
a(I0
I-3
tp586
a(I-1
I-3
tp587
a(I-2
I-3
tp588
a(I-2
I-2
tp589
a(I-2
I-1
tp590
a(I-1
I-1
tp591
a(I-1
I0
tp592
a(I-1
I1
tp593
a(I-1
I2
tp594
a(I-2
I2
tp595
a(I-2
I3
tp596
a(I-3
I3
tp597
a(I-3
I2
tp598
a(I-3
I1
tp599
aI0
tp600
a((lp601
g3
a(I0
I1
tp602
a(I0
I2
tp603
a(I1
I2
tp604
a(I1
I1
tp605
a(I1
I0
tp606
a(I1
I-1
tp607
a(I1
I-2
tp608
a(I2
I-2
tp609
a(I2
I-1
tp610
a(I3
I-1
tp611
a(I3
I-2
tp612
a(I3
I-3
tp613
a(I3
I-4
tp614
a(I2
I-4
tp615
a(I2
I-5
tp616
a(I2
I-6
tp617
a(I1
I-6
tp618
a(I0
I-6
tp619
a(I0
I-7
tp620
a(I1
I-7
tp621
a(I2
I-7
tp622
a(I3
I-7
tp623
a(I3
I-6
tp624
a(I4
I-6
tp625
aI0
tp626
a((lp627
g3
a(I0
I1
tp628
a(I1
I1
tp629
a(I1
I0
tp630
a(I2
I0
tp631
a(I2
I1
tp632
a(I2
I2
tp633
a(I3
I2
tp634
a(I3
I1
tp635
a(I4
I1
tp636
a(I4
I0
tp637
a(I5
I0
tp638
a(I6
I0
tp639
a(I7
I0
tp640
a(I8
I0
tp641
a(I8
I-1
tp642
a(I7
I-1
tp643
a(I6
I-1
tp644
a(I5
I-1
tp645
a(I5
I-2
tp646
a(I5
I-3
tp647
a(I4
I-3
tp648
a(I3
I-3
tp649
a(I3
I-2
tp650
a(I3
I-1
tp651
aI0
tp652
a((lp653
g3
a(I0
I1
tp654
a(I1
I1
tp655
a(I1
I2
tp656
a(I2
I2
tp657
a(I2
I1
tp658
a(I2
I0
tp659
a(I1
I0
tp660
a(I1
I-1
tp661
a(I0
I-1
tp662
a(I-1
I-1
tp663
a(I-2
I-1
tp664
a(I-2
I0
tp665
a(I-2
I1
tp666
a(I-2
I2
tp667
a(I-3
I2
tp668
a(I-3
I1
tp669
a(I-3
I0
tp670
a(I-3
I-1
tp671
a(I-3
I-2
tp672
a(I-2
I-2
tp673
a(I-1
I-2
tp674
a(I0
I-2
tp675
a(I0
I-3
tp676
a(I0
I-4
tp677
aI0
tp678
a((lp679
g3
a(I-1
I0
tp680
a(I-2
I0
tp681
a(I-2
I1
tp682
a(I-1
I1
tp683
a(I0
I1
tp684
a(I1
I1
tp685
a(I1
I2
tp686
a(I1
I3
tp687
a(I2
I3
tp688
a(I3
I3
tp689
a(I3
I2
tp690
a(I2
I2
tp691
a(I2
I1
tp692
a(I2
I0
tp693
a(I2
I-1
tp694
a(I1
I-1
tp695
a(I0
I-1
tp696
a(I-1
I-1
tp697
a(I-2
I-1
tp698
a(I-2
I-2
tp699
a(I-2
I-3
tp700
a(I-3
I-3
tp701
a(I-3
I-2
tp702
a(I-3
I-1
tp703
aI0
tp704
a((lp705
g3
a(I0
I-1
tp706
a(I0
I-2
tp707
a(I1
I-2
tp708
a(I2
I-2
tp709
a(I3
I-2
tp710
a(I3
I-3
tp711
a(I4
I-3
tp712
a(I4
I-4
tp713
a(I4
I-5
tp714
a(I3
I-5
tp715
a(I3
I-4
tp716
a(I2
I-4
tp717
a(I2
I-5
tp718
a(I2
I-6
tp719
a(I3
I-6
tp720
a(I3
I-7
tp721
a(I4
I-7
tp722
a(I4
I-8
tp723
a(I3
I-8
tp724
a(I2
I-8
tp725
a(I2
I-9
tp726
a(I3
I-9
tp727
a(I3
I-10
tp728
a(I2
I-10
tp729
aI0
tp730
a((lp731
g3
a(I0
I1
tp732
a(I1
I1
tp733
a(I1
I0
tp734
a(I1
I-1
tp735
a(I1
I-2
tp736
a(I2
I-2
tp737
a(I2
I-3
tp738
a(I2
I-4
tp739
a(I3
I-4
tp740
a(I3
I-3
tp741
a(I3
I-2
tp742
a(I3
I-1
tp743
a(I2
I-1
tp744
a(I2
I0
tp745
a(I2
I1
tp746
a(I2
I2
tp747
a(I2
I3
tp748
a(I3
I3
tp749
a(I4
I3
tp750
a(I4
I2
tp751
a(I5
I2
tp752
a(I5
I3
tp753
a(I5
I4
tp754
a(I6
I4
tp755
aI0
tp756
a((lp757
g3
a(I1
I0
tp758
a(I1
I1
tp759
a(I1
I2
tp760
a(I2
I2
tp761
a(I2
I1
tp762
a(I3
I1
tp763
a(I3
I0
tp764
a(I4
I0
tp765
a(I4
I-1
tp766
a(I4
I-2
tp767
a(I3
I-2
tp768
a(I3
I-1
tp769
a(I2
I-1
tp770
a(I2
I-2
tp771
a(I1
I-2
tp772
a(I1
I-1
tp773
a(I0
I-1
tp774
a(I-1
I-1
tp775
a(I-1
I-2
tp776
a(I-2
I-2
tp777
a(I-2
I-1
tp778
a(I-2
I0
tp779
a(I-3
I0
tp780
a(I-3
I-1
tp781
aI0
tp782
a((lp783
g3
a(I0
I1
tp784
a(I0
I2
tp785
a(I-1
I2
tp786
a(I-1
I1
tp787
a(I-2
I1
tp788
a(I-2
I2
tp789
a(I-3
I2
tp790
a(I-3
I3
tp791
a(I-3
I4
tp792
a(I-3
I5
tp793
a(I-4
I5
tp794
a(I-5
I5
tp795
a(I-5
I6
tp796
a(I-4
I6
tp797
a(I-3
I6
tp798
a(I-2
I6
tp799
a(I-1
I6
tp800
a(I-1
I7
tp801
a(I-1
I8
tp802
a(I-2
I8
tp803
a(I-2
I9
tp804
a(I-2
I10
tp805
a(I-2
I11
tp806
a(I-3
I11
tp807
aI0
tp808
a((lp809
g3
a(I0
I-1
tp810
a(I-1
I-1
tp811
a(I-1
I0
tp812
a(I-2
I0
tp813
a(I-3
I0
tp814
a(I-4
I0
tp815
a(I-4
I-1
tp816
a(I-5
I-1
tp817
a(I-5
I0
tp818
a(I-6
I0
tp819
a(I-6
I-1
tp820
a(I-6
I-2
tp821
a(I-5
I-2
tp822
a(I-4
I-2
tp823
a(I-3
I-2
tp824
a(I-2
I-2
tp825
a(I-1
I-2
tp826
a(I-1
I-3
tp827
a(I-2
I-3
tp828
a(I-2
I-4
tp829
a(I-1
I-4
tp830
a(I0
I-4
tp831
a(I0
I-5
tp832
a(I-1
I-5
tp833
aI0
tp834
a((lp835
g3
a(I0
I1
tp836
a(I-1
I1
tp837
a(I-1
I2
tp838
a(I-1
I3
tp839
a(I0
I3
tp840
a(I0
I4
tp841
a(I1
I4
tp842
a(I1
I3
tp843
a(I2
I3
tp844
a(I2
I2
tp845
a(I1
I2
tp846
a(I1
I1
tp847
a(I1
I0
tp848
a(I2
I0
tp849
a(I3
I0
tp850
a(I4
I0
tp851
a(I4
I1
tp852
a(I4
I2
tp853
a(I4
I3
tp854
a(I3
I3
tp855
a(I3
I4
tp856
a(I4
I4
tp857
a(I4
I5
tp858
a(I5
I5
tp859
aI0
tp860
a((lp861
g3
a(I1
I0
tp862
a(I1
I-1
tp863
a(I2
I-1
tp864
a(I3
I-1
tp865
a(I3
I-2
tp866
a(I4
I-2
tp867
a(I4
I-1
tp868
a(I5
I-1
tp869
a(I5
I-2
tp870
a(I5
I-3
tp871
a(I5
I-4
tp872
a(I4
I-4
tp873
a(I4
I-3
tp874
a(I3
I-3
tp875
a(I2
I-3
tp876
a(I1
I-3
tp877
a(I1
I-2
tp878
a(I0
I-2
tp879
a(I-1
I-2
tp880
a(I-1
I-3
tp881
a(I-1
I-4
tp882
a(I-2
I-4
tp883
a(I-3
I-4
tp884
a(I-3
I-5
tp885
aI0
tp886
a((lp887
g3
a(I-1
I0
tp888
a(I-1
I-1
tp889
a(I-2
I-1
tp890
a(I-3
I-1
tp891
a(I-3
I-2
tp892
a(I-4
I-2
tp893
a(I-4
I-3
tp894
a(I-4
I-4
tp895
a(I-5
I-4
tp896
a(I-5
I-3
tp897
a(I-5
I-2
tp898
a(I-6
I-2
tp899
a(I-7
I-2
tp900
a(I-7
I-3
tp901
a(I-6
I-3
tp902
a(I-6
I-4
tp903
a(I-7
I-4
tp904
a(I-7
I-5
tp905
a(I-8
I-5
tp906
a(I-8
I-6
tp907
a(I-8
I-7
tp908
a(I-7
I-7
tp909
a(I-7
I-6
tp910
a(I-6
I-6
tp911
aI0
tp912
a((lp913
g3
a(I-1
I0
tp914
a(I-1
I-1
tp915
a(I-2
I-1
tp916
a(I-2
I0
tp917
a(I-2
I1
tp918
a(I-3
I1
tp919
a(I-3
I0
tp920
a(I-4
I0
tp921
a(I-5
I0
tp922
a(I-5
I-1
tp923
a(I-6
I-1
tp924
a(I-6
I0
tp925
a(I-6
I1
tp926
a(I-5
I1
tp927
a(I-4
I1
tp928
a(I-4
I2
tp929
a(I-5
I2
tp930
a(I-5
I3
tp931
a(I-4
I3
tp932
a(I-3
I3
tp933
a(I-3
I2
tp934
a(I-2
I2
tp935
a(I-2
I3
tp936
a(I-2
I4
tp937
aI0
tp938
a((lp939
g3
a(I0
I-1
tp940
a(I0
I-2
tp941
a(I0
I-3
tp942
a(I1
I-3
tp943
a(I2
I-3
tp944
a(I2
I-2
tp945
a(I3
I-2
tp946
a(I4
I-2
tp947
a(I5
I-2
tp948
a(I5
I-1
tp949
a(I4
I-1
tp950
a(I3
I-1
tp951
a(I2
I-1
tp952
a(I1
I-1
tp953
a(I1
I0
tp954
a(I1
I1
tp955
a(I1
I2
tp956
a(I2
I2
tp957
a(I2
I3
tp958
a(I3
I3
tp959
a(I4
I3
tp960
a(I5
I3
tp961
a(I6
I3
tp962
a(I6
I2
tp963
aI0
tp964
a((lp965
g3
a(I0
I-1
tp966
a(I0
I-2
tp967
a(I0
I-3
tp968
a(I0
I-4
tp969
a(I1
I-4
tp970
a(I2
I-4
tp971
a(I2
I-5
tp972
a(I3
I-5
tp973
a(I4
I-5
tp974
a(I4
I-6
tp975
a(I5
I-6
tp976
a(I6
I-6
tp977
a(I7
I-6
tp978
a(I7
I-5
tp979
a(I7
I-4
tp980
a(I6
I-4
tp981
a(I6
I-5
tp982
a(I5
I-5
tp983
a(I5
I-4
tp984
a(I4
I-4
tp985
a(I4
I-3
tp986
a(I5
I-3
tp987
a(I5
I-2
tp988
a(I6
I-2
tp989
aI0
tp990
a((lp991
g3
a(I0
I-1
tp992
a(I-1
I-1
tp993
a(I-1
I-2
tp994
a(I-1
I-3
tp995
a(I-2
I-3
tp996
a(I-3
I-3
tp997
a(I-3
I-4
tp998
a(I-2
I-4
tp999
a(I-2
I-5
tp1000
a(I-3
I-5
tp1001
a(I-3
I-6
tp1002
a(I-2
I-6
tp1003
a(I-1
I-6
tp1004
a(I-1
I-7
tp1005
a(I-1
I-8
tp1006
a(I0
I-8
tp1007
a(I0
I-7
tp1008
a(I0
I-6
tp1009
a(I0
I-5
tp1010
a(I-1
I-5
tp1011
a(I-1
I-4
tp1012
a(I0
I-4
tp1013
a(I1
I-4
tp1014
a(I2
I-4
tp1015
aI0
tp1016
a((lp1017
g3
a(I0
I-1
tp1018
a(I-1
I-1
tp1019
a(I-2
I-1
tp1020
a(I-2
I0
tp1021
a(I-3
I0
tp1022
a(I-3
I-1
tp1023
a(I-4
I-1
tp1024
a(I-4
I0
tp1025
a(I-4
I1
tp1026
a(I-4
I2
tp1027
a(I-5
I2
tp1028
a(I-5
I3
tp1029
a(I-4
I3
tp1030
a(I-4
I4
tp1031
a(I-3
I4
tp1032
a(I-3
I5
tp1033
a(I-2
I5
tp1034
a(I-2
I4
tp1035
a(I-1
I4
tp1036
a(I-1
I5
tp1037
a(I0
I5
tp1038
a(I0
I4
tp1039
a(I0
I3
tp1040
a(I-1
I3
tp1041
aI0
tp1042
a((lp1043
g3
a(I-1
I0
tp1044
a(I-1
I1
tp1045
a(I-1
I2
tp1046
a(I-2
I2
tp1047
a(I-2
I1
tp1048
a(I-3
I1
tp1049
a(I-3
I2
tp1050
a(I-4
I2
tp1051
a(I-4
I3
tp1052
a(I-5
I3
tp1053
a(I-6
I3
tp1054
a(I-6
I4
tp1055
a(I-6
I5
tp1056
a(I-7
I5
tp1057
a(I-7
I4
tp1058
a(I-7
I3
tp1059
a(I-8
I3
tp1060
a(I-8
I2
tp1061
a(I-8
I1
tp1062
a(I-7
I1
tp1063
a(I-6
I1
tp1064
a(I-5
I1
tp1065
a(I-5
I0
tp1066
a(I-5
I-1
tp1067
aI0
tp1068
a((lp1069
g3
a(I0
I-1
tp1070
a(I-1
I-1
tp1071
a(I-2
I-1
tp1072
a(I-3
I-1
tp1073
a(I-3
I-2
tp1074
a(I-3
I-3
tp1075
a(I-2
I-3
tp1076
a(I-2
I-4
tp1077
a(I-1
I-4
tp1078
a(I0
I-4
tp1079
a(I0
I-5
tp1080
a(I0
I-6
tp1081
a(I0
I-7
tp1082
a(I0
I-8
tp1083
a(I1
I-8
tp1084
a(I1
I-9
tp1085
a(I0
I-9
tp1086
a(I0
I-10
tp1087
a(I0
I-11
tp1088
a(I0
I-12
tp1089
a(I-1
I-12
tp1090
a(I-1
I-11
tp1091
a(I-1
I-10
tp1092
a(I-2
I-10
tp1093
aI0
tp1094
a((lp1095
g3
a(I0
I-1
tp1096
a(I-1
I-1
tp1097
a(I-1
I-2
tp1098
a(I0
I-2
tp1099
a(I0
I-3
tp1100
a(I-1
I-3
tp1101
a(I-2
I-3
tp1102
a(I-2
I-4
tp1103
a(I-3
I-4
tp1104
a(I-3
I-5
tp1105
a(I-3
I-6
tp1106
a(I-2
I-6
tp1107
a(I-2
I-7
tp1108
a(I-3
I-7
tp1109
a(I-3
I-8
tp1110
a(I-3
I-9
tp1111
a(I-4
I-9
tp1112
a(I-4
I-10
tp1113
a(I-4
I-11
tp1114
a(I-3
I-11
tp1115
a(I-3
I-10
tp1116
a(I-2
I-10
tp1117
a(I-1
I-10
tp1118
a(I-1
I-9
tp1119
aI0
tp1120
a((lp1121
g3
a(I1
I0
tp1122
a(I2
I0
tp1123
a(I2
I-1
tp1124
a(I3
I-1
tp1125
a(I3
I-2
tp1126
a(I3
I-3
tp1127
a(I4
I-3
tp1128
a(I5
I-3
tp1129
a(I5
I-2
tp1130
a(I6
I-2
tp1131
a(I6
I-1
tp1132
a(I7
I-1
tp1133
a(I7
I-2
tp1134
a(I7
I-3
tp1135
a(I8
I-3
tp1136
a(I9
I-3
tp1137
a(I10
I-3
tp1138
a(I10
I-2
tp1139
a(I9
I-2
tp1140
a(I8
I-2
tp1141
a(I8
I-1
tp1142
a(I9
I-1
tp1143
a(I10
I-1
tp1144
a(I11
I-1
tp1145
aI0
tp1146
a((lp1147
g3
a(I1
I0
tp1148
a(I2
I0
tp1149
a(I2
I1
tp1150
a(I3
I1
tp1151
a(I4
I1
tp1152
a(I4
I2
tp1153
a(I3
I2
tp1154
a(I2
I2
tp1155
a(I1
I2
tp1156
a(I1
I3
tp1157
a(I1
I4
tp1158
a(I0
I4
tp1159
a(I-1
I4
tp1160
a(I-1
I3
tp1161
a(I-2
I3
tp1162
a(I-3
I3
tp1163
a(I-3
I4
tp1164
a(I-2
I4
tp1165
a(I-2
I5
tp1166
a(I-2
I6
tp1167
a(I-3
I6
tp1168
a(I-4
I6
tp1169
a(I-5
I6
tp1170
a(I-5
I5
tp1171
aI0
tp1172
a((lp1173
g3
a(I0
I-1
tp1174
a(I-1
I-1
tp1175
a(I-1
I-2
tp1176
a(I-2
I-2
tp1177
a(I-2
I-3
tp1178
a(I-3
I-3
tp1179
a(I-4
I-3
tp1180
a(I-4
I-4
tp1181
a(I-4
I-5
tp1182
a(I-5
I-5
tp1183
a(I-5
I-4
tp1184
a(I-6
I-4
tp1185
a(I-6
I-5
tp1186
a(I-7
I-5
tp1187
a(I-7
I-6
tp1188
a(I-8
I-6
tp1189
a(I-8
I-7
tp1190
a(I-7
I-7
tp1191
a(I-7
I-8
tp1192
a(I-8
I-8
tp1193
a(I-8
I-9
tp1194
a(I-9
I-9
tp1195
a(I-9
I-8
tp1196
a(I-9
I-7
tp1197
aI0
tp1198
a((lp1199
g3
a(I0
I-1
tp1200
a(I0
I-2
tp1201
a(I-1
I-2
tp1202
a(I-2
I-2
tp1203
a(I-2
I-3
tp1204
a(I-2
I-4
tp1205
a(I-3
I-4
tp1206
a(I-3
I-5
tp1207
a(I-2
I-5
tp1208
a(I-2
I-6
tp1209
a(I-3
I-6
tp1210
a(I-4
I-6
tp1211
a(I-5
I-6
tp1212
a(I-5
I-7
tp1213
a(I-4
I-7
tp1214
a(I-4
I-8
tp1215
a(I-5
I-8
tp1216
a(I-6
I-8
tp1217
a(I-6
I-9
tp1218
a(I-5
I-9
tp1219
a(I-4
I-9
tp1220
a(I-4
I-10
tp1221
a(I-5
I-10
tp1222
a(I-6
I-10
tp1223
aI0
tp1224
a((lp1225
g3
a(I1
I0
tp1226
a(I2
I0
tp1227
a(I2
I-1
tp1228
a(I3
I-1
tp1229
a(I4
I-1
tp1230
a(I5
I-1
tp1231
a(I5
I-2
tp1232
a(I5
I-3
tp1233
a(I4
I-3
tp1234
a(I4
I-4
tp1235
a(I4
I-5
tp1236
a(I3
I-5
tp1237
a(I3
I-6
tp1238
a(I2
I-6
tp1239
a(I2
I-7
tp1240
a(I2
I-8
tp1241
a(I2
I-9
tp1242
a(I3
I-9
tp1243
a(I4
I-9
tp1244
a(I4
I-8
tp1245
a(I5
I-8
tp1246
a(I5
I-7
tp1247
a(I5
I-6
tp1248
a(I5
I-5
tp1249
aI0
tp1250
a((lp1251
g3
a(I1
I0
tp1252
a(I1
I-1
tp1253
a(I1
I-2
tp1254
a(I0
I-2
tp1255
a(I-1
I-2
tp1256
a(I-1
I-3
tp1257
a(I0
I-3
tp1258
a(I0
I-4
tp1259
a(I1
I-4
tp1260
a(I1
I-3
tp1261
a(I2
I-3
tp1262
a(I3
I-3
tp1263
a(I4
I-3
tp1264
a(I4
I-2
tp1265
a(I5
I-2
tp1266
a(I5
I-1
tp1267
a(I6
I-1
tp1268
a(I7
I-1
tp1269
a(I7
I0
tp1270
a(I6
I0
tp1271
a(I6
I1
tp1272
a(I7
I1
tp1273
a(I8
I1
tp1274
a(I8
I0
tp1275
aI0
tp1276
a((lp1277
g3
a(I0
I-1
tp1278
a(I0
I-2
tp1279
a(I1
I-2
tp1280
a(I1
I-1
tp1281
a(I1
I0
tp1282
a(I1
I1
tp1283
a(I2
I1
tp1284
a(I3
I1
tp1285
a(I3
I0
tp1286
a(I3
I-1
tp1287
a(I2
I-1
tp1288
a(I2
I-2
tp1289
a(I3
I-2
tp1290
a(I4
I-2
tp1291
a(I4
I-1
tp1292
a(I4
I0
tp1293
a(I4
I1
tp1294
a(I4
I2
tp1295
a(I3
I2
tp1296
a(I2
I2
tp1297
a(I2
I3
tp1298
a(I2
I4
tp1299
a(I1
I4
tp1300
a(I1
I5
tp1301
aI0
tp1302
a((lp1303
g3
a(I0
I1
tp1304
a(I1
I1
tp1305
a(I1
I2
tp1306
a(I0
I2
tp1307
a(I0
I3
tp1308
a(I-1
I3
tp1309
a(I-1
I4
tp1310
a(I-1
I5
tp1311
a(I-1
I6
tp1312
a(I-2
I6
tp1313
a(I-2
I7
tp1314
a(I-2
I8
tp1315
a(I-3
I8
tp1316
a(I-4
I8
tp1317
a(I-4
I7
tp1318
a(I-4
I6
tp1319
a(I-4
I5
tp1320
a(I-5
I5
tp1321
a(I-5
I6
tp1322
a(I-5
I7
tp1323
a(I-5
I8
tp1324
a(I-5
I9
tp1325
a(I-4
I9
tp1326
a(I-4
I10
tp1327
aI0
tp1328
a((lp1329
g3
a(I0
I-1
tp1330
a(I-1
I-1
tp1331
a(I-1
I0
tp1332
a(I-2
I0
tp1333
a(I-2
I-1
tp1334
a(I-2
I-2
tp1335
a(I-2
I-3
tp1336
a(I-1
I-3
tp1337
a(I-1
I-4
tp1338
a(I-1
I-5
tp1339
a(I0
I-5
tp1340
a(I0
I-6
tp1341
a(I-1
I-6
tp1342
a(I-1
I-7
tp1343
a(I-2
I-7
tp1344
a(I-2
I-6
tp1345
a(I-2
I-5
tp1346
a(I-3
I-5
tp1347
a(I-3
I-6
tp1348
a(I-4
I-6
tp1349
a(I-4
I-7
tp1350
a(I-5
I-7
tp1351
a(I-5
I-8
tp1352
a(I-6
I-8
tp1353
aI0
tp1354
a((lp1355
g3
a(I1
I0
tp1356
a(I1
I1
tp1357
a(I0
I1
tp1358
a(I-1
I1
tp1359
a(I-1
I2
tp1360
a(I-1
I3
tp1361
a(I0
I3
tp1362
a(I0
I2
tp1363
a(I1
I2
tp1364
a(I2
I2
tp1365
a(I2
I3
tp1366
a(I2
I4
tp1367
a(I3
I4
tp1368
a(I3
I3
tp1369
a(I4
I3
tp1370
a(I4
I4
tp1371
a(I5
I4
tp1372
a(I5
I3
tp1373
a(I6
I3
tp1374
a(I6
I2
tp1375
a(I7
I2
tp1376
a(I8
I2
tp1377
a(I8
I1
tp1378
a(I9
I1
tp1379
aI0
tp1380
a((lp1381
g3
a(I1
I0
tp1382
a(I1
I-1
tp1383
a(I2
I-1
tp1384
a(I2
I0
tp1385
a(I2
I1
tp1386
a(I1
I1
tp1387
a(I0
I1
tp1388
a(I0
I2
tp1389
a(I0
I3
tp1390
a(I1
I3
tp1391
a(I2
I3
tp1392
a(I3
I3
tp1393
a(I4
I3
tp1394
a(I4
I4
tp1395
a(I5
I4
tp1396
a(I5
I3
tp1397
a(I6
I3
tp1398
a(I6
I2
tp1399
a(I5
I2
tp1400
a(I5
I1
tp1401
a(I4
I1
tp1402
a(I3
I1
tp1403
a(I3
I0
tp1404
a(I4
I0
tp1405
aI0
tp1406
a((lp1407
g3
a(I-1
I0
tp1408
a(I-1
I-1
tp1409
a(I0
I-1
tp1410
a(I1
I-1
tp1411
a(I1
I-2
tp1412
a(I2
I-2
tp1413
a(I3
I-2
tp1414
a(I3
I-3
tp1415
a(I3
I-4
tp1416
a(I4
I-4
tp1417
a(I4
I-5
tp1418
a(I3
I-5
tp1419
a(I3
I-6
tp1420
a(I2
I-6
tp1421
a(I2
I-7
tp1422
a(I2
I-8
tp1423
a(I2
I-9
tp1424
a(I3
I-9
tp1425
a(I4
I-9
tp1426
a(I4
I-10
tp1427
a(I4
I-11
tp1428
a(I4
I-12
tp1429
a(I4
I-13
tp1430
a(I4
I-14
tp1431
aI0
tp1432
a((lp1433
g3
a(I-1
I0
tp1434
a(I-2
I0
tp1435
a(I-2
I-1
tp1436
a(I-1
I-1
tp1437
a(I0
I-1
tp1438
a(I1
I-1
tp1439
a(I2
I-1
tp1440
a(I2
I0
tp1441
a(I1
I0
tp1442
a(I1
I1
tp1443
a(I0
I1
tp1444
a(I0
I2
tp1445
a(I1
I2
tp1446
a(I1
I3
tp1447
a(I0
I3
tp1448
a(I0
I4
tp1449
a(I1
I4
tp1450
a(I1
I5
tp1451
a(I2
I5
tp1452
a(I3
I5
tp1453
a(I3
I4
tp1454
a(I2
I4
tp1455
a(I2
I3
tp1456
a(I2
I2
tp1457
aI0
tp1458
a((lp1459
g3
a(I0
I-1
tp1460
a(I1
I-1
tp1461
a(I2
I-1
tp1462
a(I2
I-2
tp1463
a(I2
I-3
tp1464
a(I2
I-4
tp1465
a(I1
I-4
tp1466
a(I1
I-5
tp1467
a(I1
I-6
tp1468
a(I1
I-7
tp1469
a(I1
I-8
tp1470
a(I2
I-8
tp1471
a(I2
I-7
tp1472
a(I2
I-6
tp1473
a(I2
I-5
tp1474
a(I3
I-5
tp1475
a(I3
I-6
tp1476
a(I3
I-7
tp1477
a(I3
I-8
tp1478
a(I3
I-9
tp1479
a(I4
I-9
tp1480
a(I5
I-9
tp1481
a(I5
I-8
tp1482
a(I5
I-7
tp1483
aI0
tp1484
a((lp1485
g3
a(I1
I0
tp1486
a(I2
I0
tp1487
a(I2
I1
tp1488
a(I2
I2
tp1489
a(I1
I2
tp1490
a(I0
I2
tp1491
a(I0
I1
tp1492
a(I-1
I1
tp1493
a(I-1
I0
tp1494
a(I-1
I-1
tp1495
a(I-1
I-2
tp1496
a(I-1
I-3
tp1497
a(I-1
I-4
tp1498
a(I-1
I-5
tp1499
a(I-2
I-5
tp1500
a(I-3
I-5
tp1501
a(I-3
I-6
tp1502
a(I-3
I-7
tp1503
a(I-4
I-7
tp1504
a(I-5
I-7
tp1505
a(I-5
I-6
tp1506
a(I-6
I-6
tp1507
a(I-6
I-7
tp1508
a(I-6
I-8
tp1509
aI0
tp1510
a((lp1511
g3
a(I-1
I0
tp1512
a(I-1
I1
tp1513
a(I-1
I2
tp1514
a(I-1
I3
tp1515
a(I-2
I3
tp1516
a(I-2
I2
tp1517
a(I-2
I1
tp1518
a(I-3
I1
tp1519
a(I-4
I1
tp1520
a(I-5
I1
tp1521
a(I-5
I2
tp1522
a(I-4
I2
tp1523
a(I-3
I2
tp1524
a(I-3
I3
tp1525
a(I-3
I4
tp1526
a(I-3
I5
tp1527
a(I-4
I5
tp1528
a(I-4
I4
tp1529
a(I-5
I4
tp1530
a(I-5
I5
tp1531
a(I-6
I5
tp1532
a(I-6
I6
tp1533
a(I-6
I7
tp1534
a(I-7
I7
tp1535
aI0
tp1536
a((lp1537
g3
a(I0
I-1
tp1538
a(I-1
I-1
tp1539
a(I-1
I0
tp1540
a(I-1
I1
tp1541
a(I-2
I1
tp1542
a(I-3
I1
tp1543
a(I-3
I2
tp1544
a(I-3
I3
tp1545
a(I-2
I3
tp1546
a(I-2
I4
tp1547
a(I-3
I4
tp1548
a(I-4
I4
tp1549
a(I-4
I3
tp1550
a(I-4
I2
tp1551
a(I-4
I1
tp1552
a(I-4
I0
tp1553
a(I-4
I-1
tp1554
a(I-3
I-1
tp1555
a(I-3
I0
tp1556
a(I-2
I0
tp1557
a(I-2
I-1
tp1558
a(I-2
I-2
tp1559
a(I-3
I-2
tp1560
a(I-3
I-3
tp1561
aI0
tp1562
a((lp1563
g3
a(I-1
I0
tp1564
a(I-1
I-1
tp1565
a(I0
I-1
tp1566
a(I1
I-1
tp1567
a(I1
I-2
tp1568
a(I1
I-3
tp1569
a(I1
I-4
tp1570
a(I2
I-4
tp1571
a(I2
I-3
tp1572
a(I2
I-2
tp1573
a(I3
I-2
tp1574
a(I3
I-1
tp1575
a(I3
I0
tp1576
a(I2
I0
tp1577
a(I2
I1
tp1578
a(I2
I2
tp1579
a(I3
I2
tp1580
a(I4
I2
tp1581
a(I4
I3
tp1582
a(I4
I4
tp1583
a(I5
I4
tp1584
a(I5
I3
tp1585
a(I6
I3
tp1586
a(I6
I4
tp1587
aI0
tp1588
a((lp1589
g3
a(I-1
I0
tp1590
a(I-1
I-1
tp1591
a(I-1
I-2
tp1592
a(I-2
I-2
tp1593
a(I-3
I-2
tp1594
a(I-4
I-2
tp1595
a(I-4
I-1
tp1596
a(I-5
I-1
tp1597
a(I-5
I0
tp1598
a(I-5
I1
tp1599
a(I-5
I2
tp1600
a(I-5
I3
tp1601
a(I-5
I4
tp1602
a(I-6
I4
tp1603
a(I-6
I5
tp1604
a(I-5
I5
tp1605
a(I-5
I6
tp1606
a(I-6
I6
tp1607
a(I-7
I6
tp1608
a(I-7
I5
tp1609
a(I-7
I4
tp1610
a(I-7
I3
tp1611
a(I-7
I2
tp1612
a(I-6
I2
tp1613
aI0
tp1614
a((lp1615
g3
a(I0
I1
tp1616
a(I1
I1
tp1617
a(I2
I1
tp1618
a(I2
I2
tp1619
a(I3
I2
tp1620
a(I4
I2
tp1621
a(I4
I3
tp1622
a(I5
I3
tp1623
a(I5
I4
tp1624
a(I6
I4
tp1625
a(I6
I5
tp1626
a(I6
I6
tp1627
a(I5
I6
tp1628
a(I5
I5
tp1629
a(I4
I5
tp1630
a(I4
I4
tp1631
a(I3
I4
tp1632
a(I3
I3
tp1633
a(I2
I3
tp1634
a(I2
I4
tp1635
a(I2
I5
tp1636
a(I3
I5
tp1637
a(I3
I6
tp1638
a(I4
I6
tp1639
aI0
tp1640
a((lp1641
g3
a(I-1
I0
tp1642
a(I-1
I-1
tp1643
a(I0
I-1
tp1644
a(I1
I-1
tp1645
a(I2
I-1
tp1646
a(I2
I0
tp1647
a(I3
I0
tp1648
a(I4
I0
tp1649
a(I4
I-1
tp1650
a(I3
I-1
tp1651
a(I3
I-2
tp1652
a(I4
I-2
tp1653
a(I4
I-3
tp1654
a(I5
I-3
tp1655
a(I6
I-3
tp1656
a(I6
I-2
tp1657
a(I6
I-1
tp1658
a(I7
I-1
tp1659
a(I8
I-1
tp1660
a(I8
I0
tp1661
a(I9
I0
tp1662
a(I9
I-1
tp1663
a(I10
I-1
tp1664
a(I11
I-1
tp1665
aI0
tp1666
a((lp1667
g3
a(I1
I0
tp1668
a(I1
I1
tp1669
a(I0
I1
tp1670
a(I-1
I1
tp1671
a(I-1
I2
tp1672
a(I-2
I2
tp1673
a(I-2
I1
tp1674
a(I-2
I0
tp1675
a(I-3
I0
tp1676
a(I-3
I-1
tp1677
a(I-3
I-2
tp1678
a(I-4
I-2
tp1679
a(I-4
I-3
tp1680
a(I-3
I-3
tp1681
a(I-3
I-4
tp1682
a(I-2
I-4
tp1683
a(I-2
I-5
tp1684
a(I-2
I-6
tp1685
a(I-3
I-6
tp1686
a(I-3
I-7
tp1687
a(I-2
I-7
tp1688
a(I-2
I-8
tp1689
a(I-3
I-8
tp1690
a(I-3
I-9
tp1691
aI0
tp1692
a((lp1693
g3
a(I0
I-1
tp1694
a(I-1
I-1
tp1695
a(I-1
I-2
tp1696
a(I-1
I-3
tp1697
a(I0
I-3
tp1698
a(I1
I-3
tp1699
a(I1
I-2
tp1700
a(I1
I-1
tp1701
a(I1
I0
tp1702
a(I1
I1
tp1703
a(I1
I2
tp1704
a(I2
I2
tp1705
a(I3
I2
tp1706
a(I3
I1
tp1707
a(I2
I1
tp1708
a(I2
I0
tp1709
a(I2
I-1
tp1710
a(I3
I-1
tp1711
a(I3
I0
tp1712
a(I4
I0
tp1713
a(I4
I1
tp1714
a(I5
I1
tp1715
a(I5
I2
tp1716
a(I4
I2
tp1717
aI0
tp1718
a((lp1719
g3
a(I-1
I0
tp1720
a(I-1
I1
tp1721
a(I-2
I1
tp1722
a(I-2
I0
tp1723
a(I-3
I0
tp1724
a(I-4
I0
tp1725
a(I-5
I0
tp1726
a(I-5
I-1
tp1727
a(I-5
I-2
tp1728
a(I-6
I-2
tp1729
a(I-6
I-3
tp1730
a(I-6
I-4
tp1731
a(I-6
I-5
tp1732
a(I-6
I-6
tp1733
a(I-5
I-6
tp1734
a(I-5
I-7
tp1735
a(I-4
I-7
tp1736
a(I-4
I-6
tp1737
a(I-4
I-5
tp1738
a(I-4
I-4
tp1739
a(I-3
I-4
tp1740
a(I-3
I-3
tp1741
a(I-2
I-3
tp1742
a(I-2
I-2
tp1743
aI0
tp1744
a((lp1745
g3
a(I1
I0
tp1746
a(I1
I1
tp1747
a(I2
I1
tp1748
a(I3
I1
tp1749
a(I3
I0
tp1750
a(I4
I0
tp1751
a(I4
I-1
tp1752
a(I3
I-1
tp1753
a(I3
I-2
tp1754
a(I3
I-3
tp1755
a(I3
I-4
tp1756
a(I2
I-4
tp1757
a(I2
I-3
tp1758
a(I2
I-2
tp1759
a(I1
I-2
tp1760
a(I1
I-1
tp1761
a(I0
I-1
tp1762
a(I0
I-2
tp1763
a(I0
I-3
tp1764
a(I0
I-4
tp1765
a(I-1
I-4
tp1766
a(I-1
I-3
tp1767
a(I-2
I-3
tp1768
a(I-2
I-4
tp1769
aI0
tp1770
a((lp1771
g3
a(I1
I0
tp1772
a(I1
I1
tp1773
a(I0
I1
tp1774
a(I-1
I1
tp1775
a(I-2
I1
tp1776
a(I-2
I2
tp1777
a(I-2
I3
tp1778
a(I-1
I3
tp1779
a(I0
I3
tp1780
a(I0
I4
tp1781
a(I1
I4
tp1782
a(I1
I5
tp1783
a(I2
I5
tp1784
a(I3
I5
tp1785
a(I4
I5
tp1786
a(I5
I5
tp1787
a(I5
I4
tp1788
a(I4
I4
tp1789
a(I4
I3
tp1790
a(I3
I3
tp1791
a(I2
I3
tp1792
a(I2
I2
tp1793
a(I2
I1
tp1794
a(I2
I0
tp1795
aI0
tp1796
a((lp1797
g3
a(I0
I-1
tp1798
a(I0
I-2
tp1799
a(I0
I-3
tp1800
a(I0
I-4
tp1801
a(I1
I-4
tp1802
a(I2
I-4
tp1803
a(I3
I-4
tp1804
a(I3
I-3
tp1805
a(I2
I-3
tp1806
a(I1
I-3
tp1807
a(I1
I-2
tp1808
a(I1
I-1
tp1809
a(I2
I-1
tp1810
a(I2
I-2
tp1811
a(I3
I-2
tp1812
a(I3
I-1
tp1813
a(I3
I0
tp1814
a(I2
I0
tp1815
a(I2
I1
tp1816
a(I2
I2
tp1817
a(I2
I3
tp1818
a(I1
I3
tp1819
a(I1
I4
tp1820
a(I1
I5
tp1821
aI0
tp1822
a((lp1823
g3
a(I1
I0
tp1824
a(I2
I0
tp1825
a(I3
I0
tp1826
a(I3
I-1
tp1827
a(I4
I-1
tp1828
a(I4
I0
tp1829
a(I5
I0
tp1830
a(I5
I-1
tp1831
a(I6
I-1
tp1832
a(I7
I-1
tp1833
a(I7
I0
tp1834
a(I8
I0
tp1835
a(I9
I0
tp1836
a(I9
I-1
tp1837
a(I9
I-2
tp1838
a(I10
I-2
tp1839
a(I10
I-1
tp1840
a(I10
I0
tp1841
a(I10
I1
tp1842
a(I11
I1
tp1843
a(I11
I2
tp1844
a(I11
I3
tp1845
a(I12
I3
tp1846
a(I12
I4
tp1847
aI0
tp1848
a((lp1849
g3
a(I0
I-1
tp1850
a(I0
I-2
tp1851
a(I1
I-2
tp1852
a(I2
I-2
tp1853
a(I3
I-2
tp1854
a(I3
I-3
tp1855
a(I2
I-3
tp1856
a(I1
I-3
tp1857
a(I0
I-3
tp1858
a(I0
I-4
tp1859
a(I0
I-5
tp1860
a(I-1
I-5
tp1861
a(I-1
I-6
tp1862
a(I-1
I-7
tp1863
a(I-2
I-7
tp1864
a(I-3
I-7
tp1865
a(I-3
I-6
tp1866
a(I-2
I-6
tp1867
a(I-2
I-5
tp1868
a(I-3
I-5
tp1869
a(I-3
I-4
tp1870
a(I-2
I-4
tp1871
a(I-1
I-4
tp1872
a(I-1
I-3
tp1873
aI0
tp1874
a((lp1875
g3
a(I0
I-1
tp1876
a(I0
I-2
tp1877
a(I-1
I-2
tp1878
a(I-2
I-2
tp1879
a(I-3
I-2
tp1880
a(I-3
I-3
tp1881
a(I-3
I-4
tp1882
a(I-2
I-4
tp1883
a(I-2
I-3
tp1884
a(I-1
I-3
tp1885
a(I0
I-3
tp1886
a(I0
I-4
tp1887
a(I0
I-5
tp1888
a(I-1
I-5
tp1889
a(I-1
I-6
tp1890
a(I-1
I-7
tp1891
a(I0
I-7
tp1892
a(I1
I-7
tp1893
a(I2
I-7
tp1894
a(I2
I-8
tp1895
a(I3
I-8
tp1896
a(I3
I-9
tp1897
a(I4
I-9
tp1898
a(I4
I-8
tp1899
aI0
tp1900
a((lp1901
g3
a(I-1
I0
tp1902
a(I-2
I0
tp1903
a(I-3
I0
tp1904
a(I-3
I1
tp1905
a(I-3
I2
tp1906
a(I-4
I2
tp1907
a(I-4
I3
tp1908
a(I-4
I4
tp1909
a(I-3
I4
tp1910
a(I-2
I4
tp1911
a(I-1
I4
tp1912
a(I-1
I5
tp1913
a(I-1
I6
tp1914
a(I0
I6
tp1915
a(I0
I7
tp1916
a(I-1
I7
tp1917
a(I-1
I8
tp1918
a(I-1
I9
tp1919
a(I0
I9
tp1920
a(I0
I10
tp1921
a(I1
I10
tp1922
a(I1
I9
tp1923
a(I2
I9
tp1924
a(I2
I8
tp1925
aI0
tp1926
a((lp1927
g3
a(I-1
I0
tp1928
a(I-1
I1
tp1929
a(I-2
I1
tp1930
a(I-2
I0
tp1931
a(I-3
I0
tp1932
a(I-4
I0
tp1933
a(I-4
I-1
tp1934
a(I-5
I-1
tp1935
a(I-6
I-1
tp1936
a(I-7
I-1
tp1937
a(I-8
I-1
tp1938
a(I-8
I0
tp1939
a(I-8
I1
tp1940
a(I-7
I1
tp1941
a(I-7
I2
tp1942
a(I-8
I2
tp1943
a(I-9
I2
tp1944
a(I-9
I1
tp1945
a(I-9
I0
tp1946
a(I-9
I-1
tp1947
a(I-10
I-1
tp1948
a(I-10
I-2
tp1949
a(I-9
I-2
tp1950
a(I-8
I-2
tp1951
aI0
tp1952
a((lp1953
g3
a(I0
I-1
tp1954
a(I-1
I-1
tp1955
a(I-1
I0
tp1956
a(I-1
I1
tp1957
a(I-2
I1
tp1958
a(I-2
I2
tp1959
a(I-2
I3
tp1960
a(I-3
I3
tp1961
a(I-3
I4
tp1962
a(I-2
I4
tp1963
a(I-1
I4
tp1964
a(I-1
I5
tp1965
a(I0
I5
tp1966
a(I0
I4
tp1967
a(I0
I3
tp1968
a(I-1
I3
tp1969
a(I-1
I2
tp1970
a(I0
I2
tp1971
a(I0
I1
tp1972
a(I1
I1
tp1973
a(I2
I1
tp1974
a(I2
I0
tp1975
a(I2
I-1
tp1976
a(I2
I-2
tp1977
aI0
tp1978
a((lp1979
g3
a(I0
I1
tp1980
a(I-1
I1
tp1981
a(I-1
I0
tp1982
a(I-2
I0
tp1983
a(I-2
I-1
tp1984
a(I-3
I-1
tp1985
a(I-3
I-2
tp1986
a(I-2
I-2
tp1987
a(I-2
I-3
tp1988
a(I-3
I-3
tp1989
a(I-4
I-3
tp1990
a(I-4
I-2
tp1991
a(I-4
I-1
tp1992
a(I-5
I-1
tp1993
a(I-5
I0
tp1994
a(I-5
I1
tp1995
a(I-6
I1
tp1996
a(I-6
I0
tp1997
a(I-6
I-1
tp1998
a(I-6
I-2
tp1999
a(I-5
I-2
tp2000
a(I-5
I-3
tp2001
a(I-6
I-3
tp2002
a(I-6
I-4
tp2003
aI0
tp2004
a((lp2005
g3
a(I0
I1
tp2006
a(I1
I1
tp2007
a(I1
I2
tp2008
a(I0
I2
tp2009
a(I0
I3
tp2010
a(I1
I3
tp2011
a(I2
I3
tp2012
a(I3
I3
tp2013
a(I4
I3
tp2014
a(I4
I2
tp2015
a(I4
I1
tp2016
a(I3
I1
tp2017
a(I3
I2
tp2018
a(I2
I2
tp2019
a(I2
I1
tp2020
a(I2
I0
tp2021
a(I1
I0
tp2022
a(I1
I-1
tp2023
a(I0
I-1
tp2024
a(I0
I-2
tp2025
a(I1
I-2
tp2026
a(I2
I-2
tp2027
a(I2
I-1
tp2028
a(I3
I-1
tp2029
aI0
tp2030
a((lp2031
g3
a(I-1
I0
tp2032
a(I-2
I0
tp2033
a(I-2
I-1
tp2034
a(I-3
I-1
tp2035
a(I-3
I-2
tp2036
a(I-2
I-2
tp2037
a(I-2
I-3
tp2038
a(I-3
I-3
tp2039
a(I-4
I-3
tp2040
a(I-4
I-4
tp2041
a(I-3
I-4
tp2042
a(I-3
I-5
tp2043
a(I-2
I-5
tp2044
a(I-2
I-6
tp2045
a(I-2
I-7
tp2046
a(I-2
I-8
tp2047
a(I-2
I-9
tp2048
a(I-3
I-9
tp2049
a(I-3
I-8
tp2050
a(I-4
I-8
tp2051
a(I-5
I-8
tp2052
a(I-5
I-7
tp2053
a(I-4
I-7
tp2054
a(I-4
I-6
tp2055
aI0
tp2056
a((lp2057
g3
a(I1
I0
tp2058
a(I1
I-1
tp2059
a(I2
I-1
tp2060
a(I2
I0
tp2061
a(I3
I0
tp2062
a(I3
I1
tp2063
a(I3
I2
tp2064
a(I2
I2
tp2065
a(I1
I2
tp2066
a(I1
I3
tp2067
a(I0
I3
tp2068
a(I0
I4
tp2069
a(I1
I4
tp2070
a(I1
I5
tp2071
a(I2
I5
tp2072
a(I3
I5
tp2073
a(I3
I6
tp2074
a(I3
I7
tp2075
a(I2
I7
tp2076
a(I1
I7
tp2077
a(I0
I7
tp2078
a(I-1
I7
tp2079
a(I-2
I7
tp2080
a(I-3
I7
tp2081
aI0
tp2082
a((lp2083
g3
a(I1
I0
tp2084
a(I1
I1
tp2085
a(I0
I1
tp2086
a(I0
I2
tp2087
a(I1
I2
tp2088
a(I1
I3
tp2089
a(I1
I4
tp2090
a(I1
I5
tp2091
a(I1
I6
tp2092
a(I2
I6
tp2093
a(I2
I5
tp2094
a(I3
I5
tp2095
a(I4
I5
tp2096
a(I4
I4
tp2097
a(I4
I3
tp2098
a(I5
I3
tp2099
a(I5
I4
tp2100
a(I6
I4
tp2101
a(I6
I3
tp2102
a(I6
I2
tp2103
a(I5
I2
tp2104
a(I5
I1
tp2105
a(I6
I1
tp2106
a(I7
I1
tp2107
aI0
tp2108
a((lp2109
g3
a(I0
I-1
tp2110
a(I0
I-2
tp2111
a(I0
I-3
tp2112
a(I-1
I-3
tp2113
a(I-2
I-3
tp2114
a(I-2
I-2
tp2115
a(I-1
I-2
tp2116
a(I-1
I-1
tp2117
a(I-2
I-1
tp2118
a(I-2
I0
tp2119
a(I-3
I0
tp2120
a(I-3
I1
tp2121
a(I-4
I1
tp2122
a(I-4
I0
tp2123
a(I-4
I-1
tp2124
a(I-3
I-1
tp2125
a(I-3
I-2
tp2126
a(I-3
I-3
tp2127
a(I-4
I-3
tp2128
a(I-4
I-4
tp2129
a(I-3
I-4
tp2130
a(I-3
I-5
tp2131
a(I-2
I-5
tp2132
a(I-2
I-6
tp2133
aI0
tp2134
a((lp2135
g3
a(I0
I-1
tp2136
a(I-1
I-1
tp2137
a(I-1
I0
tp2138
a(I-1
I1
tp2139
a(I-1
I2
tp2140
a(I-2
I2
tp2141
a(I-2
I1
tp2142
a(I-3
I1
tp2143
a(I-3
I0
tp2144
a(I-2
I0
tp2145
a(I-2
I-1
tp2146
a(I-2
I-2
tp2147
a(I-2
I-3
tp2148
a(I-3
I-3
tp2149
a(I-3
I-2
tp2150
a(I-3
I-1
tp2151
a(I-4
I-1
tp2152
a(I-4
I-2
tp2153
a(I-4
I-3
tp2154
a(I-5
I-3
tp2155
a(I-5
I-2
tp2156
a(I-5
I-1
tp2157
a(I-5
I0
tp2158
a(I-4
I0
tp2159
aI0
tp2160
a((lp2161
g3
a(I-1
I0
tp2162
a(I-2
I0
tp2163
a(I-2
I-1
tp2164
a(I-1
I-1
tp2165
a(I-1
I-2
tp2166
a(I-1
I-3
tp2167
a(I-1
I-4
tp2168
a(I-1
I-5
tp2169
a(I-1
I-6
tp2170
a(I-1
I-7
tp2171
a(I-1
I-8
tp2172
a(I-2
I-8
tp2173
a(I-2
I-9
tp2174
a(I-3
I-9
tp2175
a(I-4
I-9
tp2176
a(I-4
I-10
tp2177
a(I-5
I-10
tp2178
a(I-5
I-9
tp2179
a(I-5
I-8
tp2180
a(I-4
I-8
tp2181
a(I-4
I-7
tp2182
a(I-5
I-7
tp2183
a(I-6
I-7
tp2184
a(I-6
I-8
tp2185
aI0
tp2186
a((lp2187
g3
a(I0
I1
tp2188
a(I0
I2
tp2189
a(I-1
I2
tp2190
a(I-1
I3
tp2191
a(I-1
I4
tp2192
a(I-2
I4
tp2193
a(I-2
I3
tp2194
a(I-3
I3
tp2195
a(I-3
I4
tp2196
a(I-3
I5
tp2197
a(I-4
I5
tp2198
a(I-4
I4
tp2199
a(I-4
I3
tp2200
a(I-4
I2
tp2201
a(I-3
I2
tp2202
a(I-3
I1
tp2203
a(I-4
I1
tp2204
a(I-5
I1
tp2205
a(I-5
I2
tp2206
a(I-6
I2
tp2207
a(I-6
I1
tp2208
a(I-6
I0
tp2209
a(I-7
I0
tp2210
a(I-8
I0
tp2211
aI0
tp2212
a((lp2213
g3
a(I0
I-1
tp2214
a(I-1
I-1
tp2215
a(I-2
I-1
tp2216
a(I-2
I-2
tp2217
a(I-1
I-2
tp2218
a(I0
I-2
tp2219
a(I1
I-2
tp2220
a(I2
I-2
tp2221
a(I2
I-3
tp2222
a(I2
I-4
tp2223
a(I3
I-4
tp2224
a(I3
I-3
tp2225
a(I4
I-3
tp2226
a(I4
I-2
tp2227
a(I4
I-1
tp2228
a(I4
I0
tp2229
a(I3
I0
tp2230
a(I3
I1
tp2231
a(I3
I2
tp2232
a(I3
I3
tp2233
a(I3
I4
tp2234
a(I3
I5
tp2235
a(I2
I5
tp2236
a(I1
I5
tp2237
aI0
tp2238
a((lp2239
g3
a(I0
I-1
tp2240
a(I-1
I-1
tp2241
a(I-1
I0
tp2242
a(I-2
I0
tp2243
a(I-3
I0
tp2244
a(I-3
I1
tp2245
a(I-2
I1
tp2246
a(I-2
I2
tp2247
a(I-2
I3
tp2248
a(I-1
I3
tp2249
a(I-1
I4
tp2250
a(I-1
I5
tp2251
a(I0
I5
tp2252
a(I0
I4
tp2253
a(I0
I3
tp2254
a(I0
I2
tp2255
a(I-1
I2
tp2256
a(I-1
I1
tp2257
a(I0
I1
tp2258
a(I1
I1
tp2259
a(I1
I2
tp2260
a(I2
I2
tp2261
a(I2
I1
tp2262
a(I2
I0
tp2263
aI0
tp2264
a((lp2265
g3
a(I1
I0
tp2266
a(I1
I1
tp2267
a(I1
I2
tp2268
a(I0
I2
tp2269
a(I0
I1
tp2270
a(I-1
I1
tp2271
a(I-1
I0
tp2272
a(I-2
I0
tp2273
a(I-2
I-1
tp2274
a(I-3
I-1
tp2275
a(I-4
I-1
tp2276
a(I-5
I-1
tp2277
a(I-5
I-2
tp2278
a(I-5
I-3
tp2279
a(I-5
I-4
tp2280
a(I-4
I-4
tp2281
a(I-3
I-4
tp2282
a(I-3
I-3
tp2283
a(I-3
I-2
tp2284
a(I-2
I-2
tp2285
a(I-2
I-3
tp2286
a(I-2
I-4
tp2287
a(I-1
I-4
tp2288
a(I0
I-4
tp2289
aI0
tp2290
a((lp2291
g3
a(I0
I-1
tp2292
a(I1
I-1
tp2293
a(I1
I-2
tp2294
a(I0
I-2
tp2295
a(I-1
I-2
tp2296
a(I-1
I-1
tp2297
a(I-1
I0
tp2298
a(I-2
I0
tp2299
a(I-3
I0
tp2300
a(I-3
I-1
tp2301
a(I-3
I-2
tp2302
a(I-4
I-2
tp2303
a(I-5
I-2
tp2304
a(I-6
I-2
tp2305
a(I-7
I-2
tp2306
a(I-7
I-3
tp2307
a(I-8
I-3
tp2308
a(I-8
I-2
tp2309
a(I-9
I-2
tp2310
a(I-10
I-2
tp2311
a(I-11
I-2
tp2312
a(I-12
I-2
tp2313
a(I-12
I-3
tp2314
a(I-12
I-4
tp2315
aI0
tp2316
a((lp2317
g3
a(I1
I0
tp2318
a(I1
I-1
tp2319
a(I1
I-2
tp2320
a(I0
I-2
tp2321
a(I0
I-3
tp2322
a(I0
I-4
tp2323
a(I-1
I-4
tp2324
a(I-1
I-5
tp2325
a(I-1
I-6
tp2326
a(I-2
I-6
tp2327
a(I-3
I-6
tp2328
a(I-3
I-7
tp2329
a(I-2
I-7
tp2330
a(I-1
I-7
tp2331
a(I-1
I-8
tp2332
a(I0
I-8
tp2333
a(I0
I-9
tp2334
a(I-1
I-9
tp2335
a(I-1
I-10
tp2336
a(I-1
I-11
tp2337
a(I-1
I-12
tp2338
a(I-2
I-12
tp2339
a(I-2
I-11
tp2340
a(I-3
I-11
tp2341
aI0
tp2342
a((lp2343
g3
a(I0
I-1
tp2344
a(I1
I-1
tp2345
a(I1
I0
tp2346
a(I1
I1
tp2347
a(I0
I1
tp2348
a(I-1
I1
tp2349
a(I-2
I1
tp2350
a(I-3
I1
tp2351
a(I-4
I1
tp2352
a(I-4
I0
tp2353
a(I-3
I0
tp2354
a(I-2
I0
tp2355
a(I-2
I-1
tp2356
a(I-3
I-1
tp2357
a(I-4
I-1
tp2358
a(I-5
I-1
tp2359
a(I-5
I-2
tp2360
a(I-6
I-2
tp2361
a(I-7
I-2
tp2362
a(I-7
I-3
tp2363
a(I-6
I-3
tp2364
a(I-6
I-4
tp2365
a(I-7
I-4
tp2366
a(I-7
I-5
tp2367
aI0
tp2368
a((lp2369
g3
a(I0
I-1
tp2370
a(I-1
I-1
tp2371
a(I-2
I-1
tp2372
a(I-2
I-2
tp2373
a(I-1
I-2
tp2374
a(I0
I-2
tp2375
a(I1
I-2
tp2376
a(I1
I-3
tp2377
a(I2
I-3
tp2378
a(I2
I-2
tp2379
a(I2
I-1
tp2380
a(I1
I-1
tp2381
a(I1
I0
tp2382
a(I2
I0
tp2383
a(I2
I1
tp2384
a(I2
I2
tp2385
a(I1
I2
tp2386
a(I0
I2
tp2387
a(I0
I3
tp2388
a(I-1
I3
tp2389
a(I-2
I3
tp2390
a(I-3
I3
tp2391
a(I-3
I4
tp2392
a(I-4
I4
tp2393
aI0
tp2394
a((lp2395
g3
a(I0
I1
tp2396
a(I-1
I1
tp2397
a(I-2
I1
tp2398
a(I-2
I2
tp2399
a(I-2
I3
tp2400
a(I-3
I3
tp2401
a(I-3
I2
tp2402
a(I-3
I1
tp2403
a(I-3
I0
tp2404
a(I-2
I0
tp2405
a(I-1
I0
tp2406
a(I-1
I-1
tp2407
a(I-2
I-1
tp2408
a(I-3
I-1
tp2409
a(I-4
I-1
tp2410
a(I-4
I-2
tp2411
a(I-3
I-2
tp2412
a(I-2
I-2
tp2413
a(I-1
I-2
tp2414
a(I0
I-2
tp2415
a(I0
I-3
tp2416
a(I0
I-4
tp2417
a(I0
I-5
tp2418
a(I1
I-5
tp2419
aI0
tp2420
a((lp2421
g3
a(I-1
I0
tp2422
a(I-1
I-1
tp2423
a(I-2
I-1
tp2424
a(I-2
I0
tp2425
a(I-2
I1
tp2426
a(I-3
I1
tp2427
a(I-3
I0
tp2428
a(I-3
I-1
tp2429
a(I-3
I-2
tp2430
a(I-4
I-2
tp2431
a(I-5
I-2
tp2432
a(I-5
I-1
tp2433
a(I-5
I0
tp2434
a(I-6
I0
tp2435
a(I-6
I1
tp2436
a(I-7
I1
tp2437
a(I-7
I2
tp2438
a(I-7
I3
tp2439
a(I-6
I3
tp2440
a(I-6
I4
tp2441
a(I-5
I4
tp2442
a(I-4
I4
tp2443
a(I-4
I5
tp2444
a(I-4
I6
tp2445
aI0
tp2446
a((lp2447
g3
a(I0
I1
tp2448
a(I0
I2
tp2449
a(I1
I2
tp2450
a(I1
I3
tp2451
a(I1
I4
tp2452
a(I1
I5
tp2453
a(I1
I6
tp2454
a(I2
I6
tp2455
a(I2
I5
tp2456
a(I3
I5
tp2457
a(I4
I5
tp2458
a(I4
I6
tp2459
a(I5
I6
tp2460
a(I5
I5
tp2461
a(I5
I4
tp2462
a(I6
I4
tp2463
a(I7
I4
tp2464
a(I7
I3
tp2465
a(I8
I3
tp2466
a(I8
I2
tp2467
a(I9
I2
tp2468
a(I9
I1
tp2469
a(I10
I1
tp2470
a(I10
I2
tp2471
aI0
tp2472
a((lp2473
g3
a(I1
I0
tp2474
a(I1
I-1
tp2475
a(I1
I-2
tp2476
a(I1
I-3
tp2477
a(I2
I-3
tp2478
a(I3
I-3
tp2479
a(I3
I-4
tp2480
a(I4
I-4
tp2481
a(I5
I-4
tp2482
a(I5
I-3
tp2483
a(I6
I-3
tp2484
a(I6
I-2
tp2485
a(I5
I-2
tp2486
a(I4
I-2
tp2487
a(I3
I-2
tp2488
a(I3
I-1
tp2489
a(I2
I-1
tp2490
a(I2
I0
tp2491
a(I2
I1
tp2492
a(I2
I2
tp2493
a(I1
I2
tp2494
a(I0
I2
tp2495
a(I0
I3
tp2496
a(I1
I3
tp2497
aI0
tp2498
a((lp2499
g3
a(I-1
I0
tp2500
a(I-1
I-1
tp2501
a(I0
I-1
tp2502
a(I1
I-1
tp2503
a(I1
I0
tp2504
a(I1
I1
tp2505
a(I1
I2
tp2506
a(I1
I3
tp2507
a(I0
I3
tp2508
a(I0
I2
tp2509
a(I0
I1
tp2510
a(I-1
I1
tp2511
a(I-1
I2
tp2512
a(I-1
I3
tp2513
a(I-1
I4
tp2514
a(I-1
I5
tp2515
a(I0
I5
tp2516
a(I0
I4
tp2517
a(I1
I4
tp2518
a(I2
I4
tp2519
a(I2
I5
tp2520
a(I1
I5
tp2521
a(I1
I6
tp2522
a(I1
I7
tp2523
aI0
tp2524
a((lp2525
g3
a(I0
I-1
tp2526
a(I0
I-2
tp2527
a(I1
I-2
tp2528
a(I2
I-2
tp2529
a(I2
I-3
tp2530
a(I2
I-4
tp2531
a(I3
I-4
tp2532
a(I3
I-5
tp2533
a(I3
I-6
tp2534
a(I4
I-6
tp2535
a(I5
I-6
tp2536
a(I6
I-6
tp2537
a(I6
I-7
tp2538
a(I5
I-7
tp2539
a(I4
I-7
tp2540
a(I4
I-8
tp2541
a(I5
I-8
tp2542
a(I6
I-8
tp2543
a(I6
I-9
tp2544
a(I5
I-9
tp2545
a(I5
I-10
tp2546
a(I6
I-10
tp2547
a(I6
I-11
tp2548
a(I6
I-12
tp2549
aI0
tp2550
a((lp2551
g3
a(I0
I1
tp2552
a(I1
I1
tp2553
a(I1
I2
tp2554
a(I0
I2
tp2555
a(I0
I3
tp2556
a(I0
I4
tp2557
a(I0
I5
tp2558
a(I-1
I5
tp2559
a(I-1
I6
tp2560
a(I-2
I6
tp2561
a(I-2
I5
tp2562
a(I-3
I5
tp2563
a(I-3
I4
tp2564
a(I-2
I4
tp2565
a(I-2
I3
tp2566
a(I-1
I3
tp2567
a(I-1
I2
tp2568
a(I-2
I2
tp2569
a(I-2
I1
tp2570
a(I-1
I1
tp2571
a(I-1
I0
tp2572
a(I-1
I-1
tp2573
a(I0
I-1
tp2574
a(I0
I-2
tp2575
aI0
tp2576
a((lp2577
g3
a(I1
I0
tp2578
a(I2
I0
tp2579
a(I2
I1
tp2580
a(I1
I1
tp2581
a(I1
I2
tp2582
a(I2
I2
tp2583
a(I3
I2
tp2584
a(I4
I2
tp2585
a(I4
I3
tp2586
a(I4
I4
tp2587
a(I3
I4
tp2588
a(I3
I3
tp2589
a(I2
I3
tp2590
a(I1
I3
tp2591
a(I1
I4
tp2592
a(I2
I4
tp2593
a(I2
I5
tp2594
a(I2
I6
tp2595
a(I3
I6
tp2596
a(I3
I5
tp2597
a(I4
I5
tp2598
a(I5
I5
tp2599
a(I5
I6
tp2600
a(I6
I6
tp2601
aI0
tp2602
a((lp2603
g3
a(I-1
I0
tp2604
a(I-1
I1
tp2605
a(I0
I1
tp2606
a(I1
I1
tp2607
a(I1
I0
tp2608
a(I2
I0
tp2609
a(I2
I-1
tp2610
a(I3
I-1
tp2611
a(I3
I0
tp2612
a(I4
I0
tp2613
a(I4
I1
tp2614
a(I3
I1
tp2615
a(I2
I1
tp2616
a(I2
I2
tp2617
a(I2
I3
tp2618
a(I1
I3
tp2619
a(I0
I3
tp2620
a(I-1
I3
tp2621
a(I-2
I3
tp2622
a(I-2
I4
tp2623
a(I-2
I5
tp2624
a(I-2
I6
tp2625
a(I-2
I7
tp2626
a(I-1
I7
tp2627
aI0
tp2628
a((lp2629
g3
a(I0
I-1
tp2630
a(I-1
I-1
tp2631
a(I-2
I-1
tp2632
a(I-2
I0
tp2633
a(I-3
I0
tp2634
a(I-3
I-1
tp2635
a(I-3
I-2
tp2636
a(I-3
I-3
tp2637
a(I-4
I-3
tp2638
a(I-4
I-2
tp2639
a(I-5
I-2
tp2640
a(I-5
I-3
tp2641
a(I-6
I-3
tp2642
a(I-6
I-4
tp2643
a(I-6
I-5
tp2644
a(I-7
I-5
tp2645
a(I-7
I-6
tp2646
a(I-6
I-6
tp2647
a(I-5
I-6
tp2648
a(I-5
I-5
tp2649
a(I-4
I-5
tp2650
a(I-4
I-6
tp2651
a(I-4
I-7
tp2652
a(I-5
I-7
tp2653
aI0
tp2654
a((lp2655
g3
a(I0
I1
tp2656
a(I0
I2
tp2657
a(I1
I2
tp2658
a(I1
I3
tp2659
a(I0
I3
tp2660
a(I0
I4
tp2661
a(I0
I5
tp2662
a(I0
I6
tp2663
a(I0
I7
tp2664
a(I-1
I7
tp2665
a(I-1
I6
tp2666
a(I-1
I5
tp2667
a(I-2
I5
tp2668
a(I-2
I6
tp2669
a(I-3
I6
tp2670
a(I-3
I5
tp2671
a(I-4
I5
tp2672
a(I-4
I6
tp2673
a(I-4
I7
tp2674
a(I-5
I7
tp2675
a(I-5
I6
tp2676
a(I-5
I5
tp2677
a(I-5
I4
tp2678
a(I-6
I4
tp2679
aI0
tp2680
a((lp2681
g3
a(I0
I1
tp2682
a(I1
I1
tp2683
a(I1
I0
tp2684
a(I1
I-1
tp2685
a(I2
I-1
tp2686
a(I2
I0
tp2687
a(I3
I0
tp2688
a(I3
I-1
tp2689
a(I4
I-1
tp2690
a(I4
I-2
tp2691
a(I4
I-3
tp2692
a(I4
I-4
tp2693
a(I3
I-4
tp2694
a(I2
I-4
tp2695
a(I1
I-4
tp2696
a(I1
I-5
tp2697
a(I0
I-5
tp2698
a(I-1
I-5
tp2699
a(I-2
I-5
tp2700
a(I-3
I-5
tp2701
a(I-3
I-6
tp2702
a(I-4
I-6
tp2703
a(I-5
I-6
tp2704
a(I-5
I-5
tp2705
aI0
tp2706
a((lp2707
g3
a(I0
I1
tp2708
a(I1
I1
tp2709
a(I2
I1
tp2710
a(I2
I0
tp2711
a(I1
I0
tp2712
a(I1
I-1
tp2713
a(I0
I-1
tp2714
a(I0
I-2
tp2715
a(I1
I-2
tp2716
a(I2
I-2
tp2717
a(I3
I-2
tp2718
a(I3
I-1
tp2719
a(I4
I-1
tp2720
a(I4
I-2
tp2721
a(I5
I-2
tp2722
a(I6
I-2
tp2723
a(I6
I-3
tp2724
a(I6
I-4
tp2725
a(I7
I-4
tp2726
a(I7
I-5
tp2727
a(I6
I-5
tp2728
a(I5
I-5
tp2729
a(I5
I-4
tp2730
a(I4
I-4
tp2731
aI0
tp2732
a((lp2733
g3
a(I-1
I0
tp2734
a(I-1
I-1
tp2735
a(I-2
I-1
tp2736
a(I-2
I-2
tp2737
a(I-3
I-2
tp2738
a(I-3
I-3
tp2739
a(I-2
I-3
tp2740
a(I-1
I-3
tp2741
a(I-1
I-4
tp2742
a(I-2
I-4
tp2743
a(I-2
I-5
tp2744
a(I-2
I-6
tp2745
a(I-1
I-6
tp2746
a(I-1
I-7
tp2747
a(I0
I-7
tp2748
a(I0
I-8
tp2749
a(I1
I-8
tp2750
a(I2
I-8
tp2751
a(I2
I-9
tp2752
a(I2
I-10
tp2753
a(I2
I-11
tp2754
a(I3
I-11
tp2755
a(I3
I-12
tp2756
a(I3
I-13
tp2757
aI0
tp2758
a((lp2759
g3
a(I0
I1
tp2760
a(I-1
I1
tp2761
a(I-2
I1
tp2762
a(I-2
I2
tp2763
a(I-3
I2
tp2764
a(I-3
I3
tp2765
a(I-3
I4
tp2766
a(I-4
I4
tp2767
a(I-5
I4
tp2768
a(I-6
I4
tp2769
a(I-6
I5
tp2770
a(I-6
I6
tp2771
a(I-6
I7
tp2772
a(I-7
I7
tp2773
a(I-7
I6
tp2774
a(I-7
I5
tp2775
a(I-8
I5
tp2776
a(I-8
I6
tp2777
a(I-9
I6
tp2778
a(I-9
I5
tp2779
a(I-9
I4
tp2780
a(I-9
I3
tp2781
a(I-8
I3
tp2782
a(I-8
I2
tp2783
aI0
tp2784
a((lp2785
g3
a(I1
I0
tp2786
a(I2
I0
tp2787
a(I2
I1
tp2788
a(I1
I1
tp2789
a(I0
I1
tp2790
a(I0
I2
tp2791
a(I1
I2
tp2792
a(I1
I3
tp2793
a(I2
I3
tp2794
a(I2
I2
tp2795
a(I3
I2
tp2796
a(I4
I2
tp2797
a(I5
I2
tp2798
a(I5
I3
tp2799
a(I4
I3
tp2800
a(I4
I4
tp2801
a(I3
I4
tp2802
a(I2
I4
tp2803
a(I2
I5
tp2804
a(I1
I5
tp2805
a(I0
I5
tp2806
a(I0
I6
tp2807
a(I-1
I6
tp2808
a(I-1
I7
tp2809
aI0
tp2810
a((lp2811
g3
a(I0
I1
tp2812
a(I-1
I1
tp2813
a(I-1
I0
tp2814
a(I-1
I-1
tp2815
a(I-2
I-1
tp2816
a(I-2
I0
tp2817
a(I-2
I1
tp2818
a(I-3
I1
tp2819
a(I-3
I0
tp2820
a(I-3
I-1
tp2821
a(I-4
I-1
tp2822
a(I-5
I-1
tp2823
a(I-5
I0
tp2824
a(I-6
I0
tp2825
a(I-6
I1
tp2826
a(I-5
I1
tp2827
a(I-4
I1
tp2828
a(I-4
I2
tp2829
a(I-3
I2
tp2830
a(I-2
I2
tp2831
a(I-2
I3
tp2832
a(I-2
I4
tp2833
a(I-2
I5
tp2834
a(I-1
I5
tp2835
aI0
tp2836
a((lp2837
g3
a(I0
I1
tp2838
a(I0
I2
tp2839
a(I1
I2
tp2840
a(I1
I1
tp2841
a(I2
I1
tp2842
a(I2
I2
tp2843
a(I3
I2
tp2844
a(I3
I3
tp2845
a(I4
I3
tp2846
a(I4
I2
tp2847
a(I5
I2
tp2848
a(I6
I2
tp2849
a(I6
I3
tp2850
a(I6
I4
tp2851
a(I5
I4
tp2852
a(I5
I5
tp2853
a(I4
I5
tp2854
a(I3
I5
tp2855
a(I2
I5
tp2856
a(I2
I6
tp2857
a(I3
I6
tp2858
a(I3
I7
tp2859
a(I3
I8
tp2860
a(I3
I9
tp2861
aI0
tp2862
a((lp2863
g3
a(I1
I0
tp2864
a(I1
I1
tp2865
a(I2
I1
tp2866
a(I2
I0
tp2867
a(I2
I-1
tp2868
a(I2
I-2
tp2869
a(I1
I-2
tp2870
a(I1
I-1
tp2871
a(I0
I-1
tp2872
a(I-1
I-1
tp2873
a(I-1
I-2
tp2874
a(I-1
I-3
tp2875
a(I-1
I-4
tp2876
a(I-1
I-5
tp2877
a(I0
I-5
tp2878
a(I1
I-5
tp2879
a(I1
I-6
tp2880
a(I2
I-6
tp2881
a(I2
I-7
tp2882
a(I3
I-7
tp2883
a(I3
I-6
tp2884
a(I3
I-5
tp2885
a(I4
I-5
tp2886
a(I4
I-4
tp2887
aI0
tp2888
a((lp2889
g3
a(I1
I0
tp2890
a(I1
I1
tp2891
a(I1
I2
tp2892
a(I0
I2
tp2893
a(I0
I3
tp2894
a(I1
I3
tp2895
a(I2
I3
tp2896
a(I2
I2
tp2897
a(I2
I1
tp2898
a(I3
I1
tp2899
a(I3
I0
tp2900
a(I4
I0
tp2901
a(I4
I-1
tp2902
a(I3
I-1
tp2903
a(I2
I-1
tp2904
a(I1
I-1
tp2905
a(I1
I-2
tp2906
a(I0
I-2
tp2907
a(I-1
I-2
tp2908
a(I-1
I-3
tp2909
a(I-2
I-3
tp2910
a(I-2
I-2
tp2911
a(I-3
I-2
tp2912
a(I-3
I-1
tp2913
aI0
tp2914
a((lp2915
g3
a(I0
I-1
tp2916
a(I-1
I-1
tp2917
a(I-1
I-2
tp2918
a(I-2
I-2
tp2919
a(I-3
I-2
tp2920
a(I-3
I-3
tp2921
a(I-2
I-3
tp2922
a(I-2
I-4
tp2923
a(I-3
I-4
tp2924
a(I-3
I-5
tp2925
a(I-4
I-5
tp2926
a(I-4
I-6
tp2927
a(I-4
I-7
tp2928
a(I-5
I-7
tp2929
a(I-6
I-7
tp2930
a(I-6
I-6
tp2931
a(I-5
I-6
tp2932
a(I-5
I-5
tp2933
a(I-6
I-5
tp2934
a(I-7
I-5
tp2935
a(I-7
I-6
tp2936
a(I-7
I-7
tp2937
a(I-8
I-7
tp2938
a(I-9
I-7
tp2939
aI0
tp2940
a((lp2941
g3
a(I0
I-1
tp2942
a(I1
I-1
tp2943
a(I1
I-2
tp2944
a(I1
I-3
tp2945
a(I0
I-3
tp2946
a(I0
I-4
tp2947
a(I0
I-5
tp2948
a(I-1
I-5
tp2949
a(I-1
I-4
tp2950
a(I-1
I-3
tp2951
a(I-2
I-3
tp2952
a(I-2
I-2
tp2953
a(I-3
I-2
tp2954
a(I-3
I-1
tp2955
a(I-2
I-1
tp2956
a(I-1
I-1
tp2957
a(I-1
I0
tp2958
a(I-1
I1
tp2959
a(I-2
I1
tp2960
a(I-2
I0
tp2961
a(I-3
I0
tp2962
a(I-3
I1
tp2963
a(I-4
I1
tp2964
a(I-4
I0
tp2965
aI0
tp2966
a((lp2967
g3
a(I1
I0
tp2968
a(I1
I1
tp2969
a(I2
I1
tp2970
a(I2
I0
tp2971
a(I2
I-1
tp2972
a(I3
I-1
tp2973
a(I4
I-1
tp2974
a(I4
I-2
tp2975
a(I4
I-3
tp2976
a(I4
I-4
tp2977
a(I4
I-5
tp2978
a(I3
I-5
tp2979
a(I3
I-4
tp2980
a(I2
I-4
tp2981
a(I2
I-3
tp2982
a(I1
I-3
tp2983
a(I1
I-4
tp2984
a(I1
I-5
tp2985
a(I2
I-5
tp2986
a(I2
I-6
tp2987
a(I1
I-6
tp2988
a(I1
I-7
tp2989
a(I0
I-7
tp2990
a(I0
I-6
tp2991
aI0
tp2992
a((lp2993
g3
a(I-1
I0
tp2994
a(I-1
I-1
tp2995
a(I-2
I-1
tp2996
a(I-3
I-1
tp2997
a(I-4
I-1
tp2998
a(I-5
I-1
tp2999
a(I-6
I-1
tp3000
a(I-6
I-2
tp3001
a(I-5
I-2
tp3002
a(I-5
I-3
tp3003
a(I-4
I-3
tp3004
a(I-4
I-2
tp3005
a(I-3
I-2
tp3006
a(I-3
I-3
tp3007
a(I-2
I-3
tp3008
a(I-2
I-2
tp3009
a(I-1
I-2
tp3010
a(I-1
I-3
tp3011
a(I-1
I-4
tp3012
a(I-2
I-4
tp3013
a(I-3
I-4
tp3014
a(I-3
I-5
tp3015
a(I-4
I-5
tp3016
a(I-4
I-6
tp3017
aI0
tp3018
a((lp3019
g3
a(I0
I-1
tp3020
a(I0
I-2
tp3021
a(I0
I-3
tp3022
a(I0
I-4
tp3023
a(I-1
I-4
tp3024
a(I-2
I-4
tp3025
a(I-2
I-3
tp3026
a(I-3
I-3
tp3027
a(I-3
I-4
tp3028
a(I-4
I-4
tp3029
a(I-4
I-5
tp3030
a(I-4
I-6
tp3031
a(I-3
I-6
tp3032
a(I-3
I-5
tp3033
a(I-2
I-5
tp3034
a(I-1
I-5
tp3035
a(I-1
I-6
tp3036
a(I-2
I-6
tp3037
a(I-2
I-7
tp3038
a(I-3
I-7
tp3039
a(I-3
I-8
tp3040
a(I-3
I-9
tp3041
a(I-3
I-10
tp3042
a(I-4
I-10
tp3043
aI0
tp3044
a((lp3045
g3
a(I1
I0
tp3046
a(I1
I1
tp3047
a(I1
I2
tp3048
a(I1
I3
tp3049
a(I1
I4
tp3050
a(I0
I4
tp3051
a(I-1
I4
tp3052
a(I-1
I5
tp3053
a(I0
I5
tp3054
a(I1
I5
tp3055
a(I2
I5
tp3056
a(I3
I5
tp3057
a(I3
I6
tp3058
a(I3
I7
tp3059
a(I3
I8
tp3060
a(I2
I8
tp3061
a(I1
I8
tp3062
a(I1
I7
tp3063
a(I1
I6
tp3064
a(I0
I6
tp3065
a(I-1
I6
tp3066
a(I-1
I7
tp3067
a(I-1
I8
tp3068
a(I-2
I8
tp3069
aI0
tp3070
a((lp3071
g3
a(I1
I0
tp3072
a(I1
I1
tp3073
a(I2
I1
tp3074
a(I2
I2
tp3075
a(I3
I2
tp3076
a(I4
I2
tp3077
a(I4
I3
tp3078
a(I3
I3
tp3079
a(I2
I3
tp3080
a(I2
I4
tp3081
a(I1
I4
tp3082
a(I0
I4
tp3083
a(I0
I5
tp3084
a(I-1
I5
tp3085
a(I-1
I6
tp3086
a(I-1
I7
tp3087
a(I0
I7
tp3088
a(I0
I8
tp3089
a(I1
I8
tp3090
a(I1
I7
tp3091
a(I2
I7
tp3092
a(I3
I7
tp3093
a(I4
I7
tp3094
a(I5
I7
tp3095
aI0
tp3096
a((lp3097
g3
a(I-1
I0
tp3098
a(I-1
I-1
tp3099
a(I0
I-1
tp3100
a(I0
I-2
tp3101
a(I-1
I-2
tp3102
a(I-2
I-2
tp3103
a(I-2
I-3
tp3104
a(I-2
I-4
tp3105
a(I-3
I-4
tp3106
a(I-3
I-5
tp3107
a(I-2
I-5
tp3108
a(I-1
I-5
tp3109
a(I-1
I-6
tp3110
a(I-2
I-6
tp3111
a(I-3
I-6
tp3112
a(I-3
I-7
tp3113
a(I-3
I-8
tp3114
a(I-4
I-8
tp3115
a(I-4
I-9
tp3116
a(I-3
I-9
tp3117
a(I-3
I-10
tp3118
a(I-4
I-10
tp3119
a(I-5
I-10
tp3120
a(I-6
I-10
tp3121
aI0
tp3122
a((lp3123
g3
a(I0
I1
tp3124
a(I0
I2
tp3125
a(I0
I3
tp3126
a(I-1
I3
tp3127
a(I-1
I4
tp3128
a(I0
I4
tp3129
a(I0
I5
tp3130
a(I0
I6
tp3131
a(I1
I6
tp3132
a(I1
I5
tp3133
a(I2
I5
tp3134
a(I2
I4
tp3135
a(I3
I4
tp3136
a(I3
I3
tp3137
a(I3
I2
tp3138
a(I4
I2
tp3139
a(I4
I3
tp3140
a(I5
I3
tp3141
a(I6
I3
tp3142
a(I7
I3
tp3143
a(I7
I4
tp3144
a(I6
I4
tp3145
a(I6
I5
tp3146
a(I6
I6
tp3147
aI0
tp3148
a((lp3149
g3
a(I-1
I0
tp3150
a(I-1
I1
tp3151
a(I0
I1
tp3152
a(I1
I1
tp3153
a(I1
I0
tp3154
a(I2
I0
tp3155
a(I2
I-1
tp3156
a(I2
I-2
tp3157
a(I3
I-2
tp3158
a(I3
I-3
tp3159
a(I2
I-3
tp3160
a(I1
I-3
tp3161
a(I0
I-3
tp3162
a(I0
I-4
tp3163
a(I-1
I-4
tp3164
a(I-1
I-5
tp3165
a(I-1
I-6
tp3166
a(I-2
I-6
tp3167
a(I-2
I-5
tp3168
a(I-2
I-4
tp3169
a(I-2
I-3
tp3170
a(I-2
I-2
tp3171
a(I-3
I-2
tp3172
a(I-3
I-3
tp3173
aI0
tp3174
a((lp3175
g3
a(I1
I0
tp3176
a(I1
I-1
tp3177
a(I1
I-2
tp3178
a(I1
I-3
tp3179
a(I1
I-4
tp3180
a(I0
I-4
tp3181
a(I-1
I-4
tp3182
a(I-1
I-3
tp3183
a(I0
I-3
tp3184
a(I0
I-2
tp3185
a(I0
I-1
tp3186
a(I-1
I-1
tp3187
a(I-1
I-2
tp3188
a(I-2
I-2
tp3189
a(I-2
I-3
tp3190
a(I-2
I-4
tp3191
a(I-3
I-4
tp3192
a(I-4
I-4
tp3193
a(I-4
I-5
tp3194
a(I-4
I-6
tp3195
a(I-5
I-6
tp3196
a(I-5
I-5
tp3197
a(I-6
I-5
tp3198
a(I-6
I-4
tp3199
aI0
tp3200
a((lp3201
g3
a(I1
I0
tp3202
a(I2
I0
tp3203
a(I2
I-1
tp3204
a(I1
I-1
tp3205
a(I1
I-2
tp3206
a(I2
I-2
tp3207
a(I3
I-2
tp3208
a(I3
I-3
tp3209
a(I4
I-3
tp3210
a(I5
I-3
tp3211
a(I5
I-2
tp3212
a(I6
I-2
tp3213
a(I7
I-2
tp3214
a(I8
I-2
tp3215
a(I8
I-1
tp3216
a(I9
I-1
tp3217
a(I9
I-2
tp3218
a(I10
I-2
tp3219
a(I10
I-3
tp3220
a(I11
I-3
tp3221
a(I12
I-3
tp3222
a(I12
I-4
tp3223
a(I11
I-4
tp3224
a(I10
I-4
tp3225
aI0
tp3226
a((lp3227
g3
a(I0
I1
tp3228
a(I0
I2
tp3229
a(I1
I2
tp3230
a(I1
I3
tp3231
a(I2
I3
tp3232
a(I2
I2
tp3233
a(I2
I1
tp3234
a(I3
I1
tp3235
a(I3
I0
tp3236
a(I4
I0
tp3237
a(I4
I-1
tp3238
a(I3
I-1
tp3239
a(I2
I-1
tp3240
a(I2
I0
tp3241
a(I1
I0
tp3242
a(I1
I-1
tp3243
a(I1
I-2
tp3244
a(I2
I-2
tp3245
a(I3
I-2
tp3246
a(I3
I-3
tp3247
a(I3
I-4
tp3248
a(I3
I-5
tp3249
a(I4
I-5
tp3250
a(I5
I-5
tp3251
aI0
tp3252
a((lp3253
g3
a(I0
I-1
tp3254
a(I-1
I-1
tp3255
a(I-1
I-2
tp3256
a(I0
I-2
tp3257
a(I0
I-3
tp3258
a(I1
I-3
tp3259
a(I1
I-2
tp3260
a(I2
I-2
tp3261
a(I3
I-2
tp3262
a(I3
I-3
tp3263
a(I4
I-3
tp3264
a(I4
I-4
tp3265
a(I4
I-5
tp3266
a(I5
I-5
tp3267
a(I5
I-4
tp3268
a(I5
I-3
tp3269
a(I6
I-3
tp3270
a(I7
I-3
tp3271
a(I7
I-4
tp3272
a(I7
I-5
tp3273
a(I7
I-6
tp3274
a(I6
I-6
tp3275
a(I6
I-7
tp3276
a(I6
I-8
tp3277
aI0
tp3278
a((lp3279
g3
a(I-1
I0
tp3280
a(I-2
I0
tp3281
a(I-2
I1
tp3282
a(I-2
I2
tp3283
a(I-1
I2
tp3284
a(I0
I2
tp3285
a(I0
I1
tp3286
a(I1
I1
tp3287
a(I1
I2
tp3288
a(I2
I2
tp3289
a(I2
I3
tp3290
a(I1
I3
tp3291
a(I1
I4
tp3292
a(I1
I5
tp3293
a(I0
I5
tp3294
a(I-1
I5
tp3295
a(I-1
I6
tp3296
a(I-2
I6
tp3297
a(I-3
I6
tp3298
a(I-4
I6
tp3299
a(I-4
I5
tp3300
a(I-4
I4
tp3301
a(I-5
I4
tp3302
a(I-6
I4
tp3303
aI0
tp3304
a((lp3305
g3
a(I-1
I0
tp3306
a(I-1
I1
tp3307
a(I0
I1
tp3308
a(I0
I2
tp3309
a(I-1
I2
tp3310
a(I-2
I2
tp3311
a(I-2
I1
tp3312
a(I-2
I0
tp3313
a(I-2
I-1
tp3314
a(I-3
I-1
tp3315
a(I-3
I-2
tp3316
a(I-3
I-3
tp3317
a(I-4
I-3
tp3318
a(I-5
I-3
tp3319
a(I-5
I-2
tp3320
a(I-4
I-2
tp3321
a(I-4
I-1
tp3322
a(I-4
I0
tp3323
a(I-5
I0
tp3324
a(I-5
I1
tp3325
a(I-4
I1
tp3326
a(I-4
I2
tp3327
a(I-4
I3
tp3328
a(I-4
I4
tp3329
aI0
tp3330
a((lp3331
g3
a(I-1
I0
tp3332
a(I-1
I-1
tp3333
a(I-1
I-2
tp3334
a(I-1
I-3
tp3335
a(I-1
I-4
tp3336
a(I-1
I-5
tp3337
a(I0
I-5
tp3338
a(I0
I-4
tp3339
a(I1
I-4
tp3340
a(I1
I-5
tp3341
a(I2
I-5
tp3342
a(I2
I-6
tp3343
a(I1
I-6
tp3344
a(I1
I-7
tp3345
a(I0
I-7
tp3346
a(I0
I-8
tp3347
a(I0
I-9
tp3348
a(I1
I-9
tp3349
a(I1
I-8
tp3350
a(I2
I-8
tp3351
a(I2
I-9
tp3352
a(I2
I-10
tp3353
a(I3
I-10
tp3354
a(I4
I-10
tp3355
aI0
tp3356
a((lp3357
g3
a(I0
I-1
tp3358
a(I0
I-2
tp3359
a(I-1
I-2
tp3360
a(I-1
I-3
tp3361
a(I-1
I-4
tp3362
a(I-2
I-4
tp3363
a(I-2
I-5
tp3364
a(I-1
I-5
tp3365
a(I0
I-5
tp3366
a(I1
I-5
tp3367
a(I2
I-5
tp3368
a(I2
I-6
tp3369
a(I1
I-6
tp3370
a(I0
I-6
tp3371
a(I0
I-7
tp3372
a(I0
I-8
tp3373
a(I-1
I-8
tp3374
a(I-2
I-8
tp3375
a(I-2
I-7
tp3376
a(I-1
I-7
tp3377
a(I-1
I-6
tp3378
a(I-2
I-6
tp3379
a(I-3
I-6
tp3380
a(I-3
I-5
tp3381
aI0
tp3382
a((lp3383
g3
a(I0
I-1
tp3384
a(I0
I-2
tp3385
a(I1
I-2
tp3386
a(I1
I-1
tp3387
a(I2
I-1
tp3388
a(I2
I-2
tp3389
a(I3
I-2
tp3390
a(I3
I-3
tp3391
a(I4
I-3
tp3392
a(I5
I-3
tp3393
a(I5
I-4
tp3394
a(I4
I-4
tp3395
a(I4
I-5
tp3396
a(I5
I-5
tp3397
a(I6
I-5
tp3398
a(I6
I-6
tp3399
a(I5
I-6
tp3400
a(I5
I-7
tp3401
a(I4
I-7
tp3402
a(I3
I-7
tp3403
a(I3
I-6
tp3404
a(I3
I-5
tp3405
a(I2
I-5
tp3406
a(I2
I-4
tp3407
aI0
tp3408
a((lp3409
g3
a(I-1
I0
tp3410
a(I-1
I1
tp3411
a(I0
I1
tp3412
a(I0
I2
tp3413
a(I-1
I2
tp3414
a(I-1
I3
tp3415
a(I-1
I4
tp3416
a(I0
I4
tp3417
a(I0
I5
tp3418
a(I1
I5
tp3419
a(I1
I4
tp3420
a(I2
I4
tp3421
a(I2
I5
tp3422
a(I3
I5
tp3423
a(I3
I6
tp3424
a(I2
I6
tp3425
a(I1
I6
tp3426
a(I1
I7
tp3427
a(I2
I7
tp3428
a(I2
I8
tp3429
a(I2
I9
tp3430
a(I2
I10
tp3431
a(I1
I10
tp3432
a(I0
I10
tp3433
aI0
tp3434
a((lp3435
g3
a(I0
I1
tp3436
a(I0
I2
tp3437
a(I0
I3
tp3438
a(I0
I4
tp3439
a(I0
I5
tp3440
a(I0
I6
tp3441
a(I0
I7
tp3442
a(I0
I8
tp3443
a(I-1
I8
tp3444
a(I-2
I8
tp3445
a(I-2
I9
tp3446
a(I-1
I9
tp3447
a(I0
I9
tp3448
a(I0
I10
tp3449
a(I1
I10
tp3450
a(I2
I10
tp3451
a(I2
I9
tp3452
a(I3
I9
tp3453
a(I3
I8
tp3454
a(I3
I7
tp3455
a(I4
I7
tp3456
a(I4
I6
tp3457
a(I3
I6
tp3458
a(I2
I6
tp3459
aI0
tp3460
a((lp3461
g3
a(I0
I1
tp3462
a(I1
I1
tp3463
a(I2
I1
tp3464
a(I2
I0
tp3465
a(I1
I0
tp3466
a(I1
I-1
tp3467
a(I0
I-1
tp3468
a(I0
I-2
tp3469
a(I1
I-2
tp3470
a(I2
I-2
tp3471
a(I2
I-3
tp3472
a(I3
I-3
tp3473
a(I3
I-4
tp3474
a(I2
I-4
tp3475
a(I1
I-4
tp3476
a(I1
I-5
tp3477
a(I0
I-5
tp3478
a(I0
I-6
tp3479
a(I1
I-6
tp3480
a(I1
I-7
tp3481
a(I0
I-7
tp3482
a(I0
I-8
tp3483
a(I-1
I-8
tp3484
a(I-1
I-9
tp3485
aI0
tp3486
a((lp3487
g3
a(I0
I1
tp3488
a(I1
I1
tp3489
a(I2
I1
tp3490
a(I2
I2
tp3491
a(I2
I3
tp3492
a(I1
I3
tp3493
a(I0
I3
tp3494
a(I0
I2
tp3495
a(I-1
I2
tp3496
a(I-2
I2
tp3497
a(I-2
I3
tp3498
a(I-1
I3
tp3499
a(I-1
I4
tp3500
a(I-1
I5
tp3501
a(I0
I5
tp3502
a(I0
I4
tp3503
a(I1
I4
tp3504
a(I1
I5
tp3505
a(I2
I5
tp3506
a(I2
I4
tp3507
a(I3
I4
tp3508
a(I3
I3
tp3509
a(I4
I3
tp3510
a(I4
I2
tp3511
aI0
tp3512
a((lp3513
g3
a(I-1
I0
tp3514
a(I-1
I1
tp3515
a(I-1
I2
tp3516
a(I-1
I3
tp3517
a(I-1
I4
tp3518
a(I-1
I5
tp3519
a(I-2
I5
tp3520
a(I-3
I5
tp3521
a(I-3
I4
tp3522
a(I-4
I4
tp3523
a(I-4
I5
tp3524
a(I-5
I5
tp3525
a(I-5
I6
tp3526
a(I-4
I6
tp3527
a(I-3
I6
tp3528
a(I-3
I7
tp3529
a(I-2
I7
tp3530
a(I-2
I6
tp3531
a(I-1
I6
tp3532
a(I-1
I7
tp3533
a(I-1
I8
tp3534
a(I-1
I9
tp3535
a(I-2
I9
tp3536
a(I-2
I10
tp3537
aI0
tp3538
a((lp3539
g3
a(I-1
I0
tp3540
a(I-1
I1
tp3541
a(I-2
I1
tp3542
a(I-3
I1
tp3543
a(I-4
I1
tp3544
a(I-5
I1
tp3545
a(I-6
I1
tp3546
a(I-6
I2
tp3547
a(I-5
I2
tp3548
a(I-5
I3
tp3549
a(I-5
I4
tp3550
a(I-6
I4
tp3551
a(I-6
I3
tp3552
a(I-7
I3
tp3553
a(I-7
I4
tp3554
a(I-7
I5
tp3555
a(I-7
I6
tp3556
a(I-7
I7
tp3557
a(I-8
I7
tp3558
a(I-8
I8
tp3559
a(I-8
I9
tp3560
a(I-9
I9
tp3561
a(I-10
I9
tp3562
a(I-10
I10
tp3563
aI0
tp3564
a((lp3565
g3
a(I0
I1
tp3566
a(I1
I1
tp3567
a(I1
I2
tp3568
a(I0
I2
tp3569
a(I-1
I2
tp3570
a(I-1
I1
tp3571
a(I-1
I0
tp3572
a(I-2
I0
tp3573
a(I-3
I0
tp3574
a(I-3
I-1
tp3575
a(I-2
I-1
tp3576
a(I-1
I-1
tp3577
a(I-1
I-2
tp3578
a(I0
I-2
tp3579
a(I0
I-1
tp3580
a(I1
I-1
tp3581
a(I1
I0
tp3582
a(I2
I0
tp3583
a(I2
I-1
tp3584
a(I2
I-2
tp3585
a(I3
I-2
tp3586
a(I4
I-2
tp3587
a(I4
I-3
tp3588
a(I4
I-4
tp3589
aI0
tp3590
a((lp3591
g3
a(I0
I-1
tp3592
a(I1
I-1
tp3593
a(I1
I0
tp3594
a(I1
I1
tp3595
a(I2
I1
tp3596
a(I2
I0
tp3597
a(I2
I-1
tp3598
a(I3
I-1
tp3599
a(I3
I-2
tp3600
a(I4
I-2
tp3601
a(I4
I-1
tp3602
a(I4
I0
tp3603
a(I5
I0
tp3604
a(I6
I0
tp3605
a(I6
I-1
tp3606
a(I6
I-2
tp3607
a(I5
I-2
tp3608
a(I5
I-3
tp3609
a(I4
I-3
tp3610
a(I3
I-3
tp3611
a(I2
I-3
tp3612
a(I1
I-3
tp3613
a(I1
I-2
tp3614
a(I0
I-2
tp3615
aI0
tp3616
a((lp3617
g3
a(I-1
I0
tp3618
a(I-1
I1
tp3619
a(I0
I1
tp3620
a(I1
I1
tp3621
a(I2
I1
tp3622
a(I3
I1
tp3623
a(I3
I0
tp3624
a(I4
I0
tp3625
a(I4
I1
tp3626
a(I4
I2
tp3627
a(I4
I3
tp3628
a(I5
I3
tp3629
a(I5
I2
tp3630
a(I6
I2
tp3631
a(I6
I3
tp3632
a(I6
I4
tp3633
a(I7
I4
tp3634
a(I8
I4
tp3635
a(I8
I3
tp3636
a(I8
I2
tp3637
a(I9
I2
tp3638
a(I9
I3
tp3639
a(I9
I4
tp3640
a(I10
I4
tp3641
aI0
tp3642
a((lp3643
g3
a(I-1
I0
tp3644
a(I-1
I1
tp3645
a(I-1
I2
tp3646
a(I0
I2
tp3647
a(I1
I2
tp3648
a(I1
I1
tp3649
a(I2
I1
tp3650
a(I2
I2
tp3651
a(I2
I3
tp3652
a(I1
I3
tp3653
a(I0
I3
tp3654
a(I-1
I3
tp3655
a(I-2
I3
tp3656
a(I-2
I4
tp3657
a(I-3
I4
tp3658
a(I-4
I4
tp3659
a(I-4
I3
tp3660
a(I-4
I2
tp3661
a(I-3
I2
tp3662
a(I-3
I1
tp3663
a(I-3
I0
tp3664
a(I-3
I-1
tp3665
a(I-2
I-1
tp3666
a(I-2
I-2
tp3667
aI0
tp3668
a((lp3669
g3
a(I-1
I0
tp3670
a(I-1
I-1
tp3671
a(I0
I-1
tp3672
a(I1
I-1
tp3673
a(I1
I-2
tp3674
a(I2
I-2
tp3675
a(I2
I-1
tp3676
a(I2
I0
tp3677
a(I2
I1
tp3678
a(I2
I2
tp3679
a(I3
I2
tp3680
a(I3
I3
tp3681
a(I3
I4
tp3682
a(I3
I5
tp3683
a(I4
I5
tp3684
a(I4
I4
tp3685
a(I4
I3
tp3686
a(I4
I2
tp3687
a(I4
I1
tp3688
a(I5
I1
tp3689
a(I6
I1
tp3690
a(I6
I0
tp3691
a(I5
I0
tp3692
a(I4
I0
tp3693
aI0
tp3694
a((lp3695
g3
a(I1
I0
tp3696
a(I1
I-1
tp3697
a(I1
I-2
tp3698
a(I2
I-2
tp3699
a(I2
I-3
tp3700
a(I3
I-3
tp3701
a(I4
I-3
tp3702
a(I5
I-3
tp3703
a(I6
I-3
tp3704
a(I7
I-3
tp3705
a(I7
I-2
tp3706
a(I7
I-1
tp3707
a(I6
I-1
tp3708
a(I6
I0
tp3709
a(I5
I0
tp3710
a(I5
I1
tp3711
a(I6
I1
tp3712
a(I6
I2
tp3713
a(I6
I3
tp3714
a(I5
I3
tp3715
a(I5
I4
tp3716
a(I6
I4
tp3717
a(I7
I4
tp3718
a(I7
I5
tp3719
aI0
tp3720
a((lp3721
g3
a(I0
I1
tp3722
a(I-1
I1
tp3723
a(I-2
I1
tp3724
a(I-2
I2
tp3725
a(I-3
I2
tp3726
a(I-3
I1
tp3727
a(I-3
I0
tp3728
a(I-3
I-1
tp3729
a(I-2
I-1
tp3730
a(I-1
I-1
tp3731
a(I-1
I-2
tp3732
a(I-1
I-3
tp3733
a(I0
I-3
tp3734
a(I0
I-4
tp3735
a(I0
I-5
tp3736
a(I0
I-6
tp3737
a(I-1
I-6
tp3738
a(I-1
I-5
tp3739
a(I-2
I-5
tp3740
a(I-2
I-6
tp3741
a(I-3
I-6
tp3742
a(I-4
I-6
tp3743
a(I-5
I-6
tp3744
a(I-6
I-6
tp3745
aI0
tp3746
a((lp3747
g3
a(I1
I0
tp3748
a(I2
I0
tp3749
a(I3
I0
tp3750
a(I4
I0
tp3751
a(I5
I0
tp3752
a(I5
I1
tp3753
a(I4
I1
tp3754
a(I4
I2
tp3755
a(I5
I2
tp3756
a(I5
I3
tp3757
a(I6
I3
tp3758
a(I6
I4
tp3759
a(I7
I4
tp3760
a(I7
I3
tp3761
a(I7
I2
tp3762
a(I7
I1
tp3763
a(I7
I0
tp3764
a(I6
I0
tp3765
a(I6
I-1
tp3766
a(I7
I-1
tp3767
a(I7
I-2
tp3768
a(I6
I-2
tp3769
a(I6
I-3
tp3770
a(I5
I-3
tp3771
aI0
tp3772
a((lp3773
g3
a(I1
I0
tp3774
a(I2
I0
tp3775
a(I3
I0
tp3776
a(I3
I1
tp3777
a(I3
I2
tp3778
a(I2
I2
tp3779
a(I2
I1
tp3780
a(I1
I1
tp3781
a(I0
I1
tp3782
a(I0
I2
tp3783
a(I-1
I2
tp3784
a(I-1
I1
tp3785
a(I-1
I0
tp3786
a(I-1
I-1
tp3787
a(I-1
I-2
tp3788
a(I0
I-2
tp3789
a(I1
I-2
tp3790
a(I1
I-3
tp3791
a(I2
I-3
tp3792
a(I3
I-3
tp3793
a(I3
I-2
tp3794
a(I2
I-2
tp3795
a(I2
I-1
tp3796
a(I1
I-1
tp3797
aI0
tp3798
a((lp3799
g3
a(I0
I-1
tp3800
a(I0
I-2
tp3801
a(I-1
I-2
tp3802
a(I-2
I-2
tp3803
a(I-2
I-1
tp3804
a(I-3
I-1
tp3805
a(I-3
I-2
tp3806
a(I-3
I-3
tp3807
a(I-3
I-4
tp3808
a(I-3
I-5
tp3809
a(I-4
I-5
tp3810
a(I-4
I-4
tp3811
a(I-4
I-3
tp3812
a(I-5
I-3
tp3813
a(I-5
I-2
tp3814
a(I-4
I-2
tp3815
a(I-4
I-1
tp3816
a(I-5
I-1
tp3817
a(I-6
I-1
tp3818
a(I-6
I-2
tp3819
a(I-7
I-2
tp3820
a(I-8
I-2
tp3821
a(I-8
I-3
tp3822
a(I-8
I-4
tp3823
aI0
tp3824
a((lp3825
g3
a(I0
I-1
tp3826
a(I-1
I-1
tp3827
a(I-2
I-1
tp3828
a(I-2
I0
tp3829
a(I-1
I0
tp3830
a(I-1
I1
tp3831
a(I-1
I2
tp3832
a(I-1
I3
tp3833
a(I0
I3
tp3834
a(I1
I3
tp3835
a(I2
I3
tp3836
a(I2
I2
tp3837
a(I1
I2
tp3838
a(I1
I1
tp3839
a(I1
I0
tp3840
a(I1
I-1
tp3841
a(I1
I-2
tp3842
a(I1
I-3
tp3843
a(I2
I-3
tp3844
a(I3
I-3
tp3845
a(I3
I-4
tp3846
a(I2
I-4
tp3847
a(I1
I-4
tp3848
a(I1
I-5
tp3849
aI0
tp3850
a((lp3851
g3
a(I0
I-1
tp3852
a(I0
I-2
tp3853
a(I0
I-3
tp3854
a(I-1
I-3
tp3855
a(I-1
I-2
tp3856
a(I-1
I-1
tp3857
a(I-1
I0
tp3858
a(I-1
I1
tp3859
a(I-2
I1
tp3860
a(I-2
I0
tp3861
a(I-2
I-1
tp3862
a(I-2
I-2
tp3863
a(I-3
I-2
tp3864
a(I-4
I-2
tp3865
a(I-4
I-1
tp3866
a(I-5
I-1
tp3867
a(I-5
I-2
tp3868
a(I-5
I-3
tp3869
a(I-4
I-3
tp3870
a(I-4
I-4
tp3871
a(I-4
I-5
tp3872
a(I-5
I-5
tp3873
a(I-5
I-6
tp3874
a(I-6
I-6
tp3875
aI0
tp3876
a((lp3877
g3
a(I1
I0
tp3878
a(I1
I-1
tp3879
a(I2
I-1
tp3880
a(I2
I-2
tp3881
a(I3
I-2
tp3882
a(I4
I-2
tp3883
a(I4
I-3
tp3884
a(I5
I-3
tp3885
a(I5
I-4
tp3886
a(I6
I-4
tp3887
a(I6
I-5
tp3888
a(I5
I-5
tp3889
a(I5
I-6
tp3890
a(I6
I-6
tp3891
a(I7
I-6
tp3892
a(I7
I-7
tp3893
a(I6
I-7
tp3894
a(I6
I-8
tp3895
a(I6
I-9
tp3896
a(I5
I-9
tp3897
a(I4
I-9
tp3898
a(I4
I-8
tp3899
a(I3
I-8
tp3900
a(I3
I-9
tp3901
aI0
tp3902
a((lp3903
g3
a(I-1
I0
tp3904
a(I-2
I0
tp3905
a(I-2
I-1
tp3906
a(I-1
I-1
tp3907
a(I-1
I-2
tp3908
a(I-2
I-2
tp3909
a(I-2
I-3
tp3910
a(I-2
I-4
tp3911
a(I-2
I-5
tp3912
a(I-2
I-6
tp3913
a(I-3
I-6
tp3914
a(I-4
I-6
tp3915
a(I-4
I-5
tp3916
a(I-4
I-4
tp3917
a(I-5
I-4
tp3918
a(I-5
I-5
tp3919
a(I-5
I-6
tp3920
a(I-5
I-7
tp3921
a(I-5
I-8
tp3922
a(I-5
I-9
tp3923
a(I-6
I-9
tp3924
a(I-7
I-9
tp3925
a(I-7
I-10
tp3926
a(I-8
I-10
tp3927
aI0
tp3928
a((lp3929
g3
a(I0
I-1
tp3930
a(I-1
I-1
tp3931
a(I-2
I-1
tp3932
a(I-2
I0
tp3933
a(I-3
I0
tp3934
a(I-3
I-1
tp3935
a(I-3
I-2
tp3936
a(I-2
I-2
tp3937
a(I-2
I-3
tp3938
a(I-2
I-4
tp3939
a(I-3
I-4
tp3940
a(I-3
I-5
tp3941
a(I-2
I-5
tp3942
a(I-2
I-6
tp3943
a(I-3
I-6
tp3944
a(I-4
I-6
tp3945
a(I-4
I-7
tp3946
a(I-3
I-7
tp3947
a(I-3
I-8
tp3948
a(I-2
I-8
tp3949
a(I-2
I-9
tp3950
a(I-1
I-9
tp3951
a(I-1
I-10
tp3952
a(I0
I-10
tp3953
aI0
tp3954
a((lp3955
g3
a(I0
I1
tp3956
a(I1
I1
tp3957
a(I1
I2
tp3958
a(I2
I2
tp3959
a(I2
I3
tp3960
a(I2
I4
tp3961
a(I1
I4
tp3962
a(I0
I4
tp3963
a(I0
I3
tp3964
a(I-1
I3
tp3965
a(I-2
I3
tp3966
a(I-2
I2
tp3967
a(I-3
I2
tp3968
a(I-4
I2
tp3969
a(I-5
I2
tp3970
a(I-6
I2
tp3971
a(I-7
I2
tp3972
a(I-8
I2
tp3973
a(I-9
I2
tp3974
a(I-10
I2
tp3975
a(I-10
I1
tp3976
a(I-11
I1
tp3977
a(I-11
I0
tp3978
a(I-11
I-1
tp3979
aI0
tp3980
a((lp3981
g3
a(I-1
I0
tp3982
a(I-2
I0
tp3983
a(I-2
I-1
tp3984
a(I-3
I-1
tp3985
a(I-3
I-2
tp3986
a(I-4
I-2
tp3987
a(I-4
I-1
tp3988
a(I-5
I-1
tp3989
a(I-6
I-1
tp3990
a(I-6
I0
tp3991
a(I-5
I0
tp3992
a(I-5
I1
tp3993
a(I-4
I1
tp3994
a(I-4
I2
tp3995
a(I-5
I2
tp3996
a(I-5
I3
tp3997
a(I-4
I3
tp3998
a(I-3
I3
tp3999
a(I-3
I4
tp4000
a(I-3
I5
tp4001
a(I-3
I6
tp4002
a(I-3
I7
tp4003
a(I-2
I7
tp4004
a(I-2
I8
tp4005
aI0
tp4006
a((lp4007
g3
a(I0
I1
tp4008
a(I-1
I1
tp4009
a(I-1
I2
tp4010
a(I-1
I3
tp4011
a(I-2
I3
tp4012
a(I-2
I2
tp4013
a(I-2
I1
tp4014
a(I-3
I1
tp4015
a(I-3
I2
tp4016
a(I-3
I3
tp4017
a(I-3
I4
tp4018
a(I-4
I4
tp4019
a(I-4
I3
tp4020
a(I-4
I2
tp4021
a(I-4
I1
tp4022
a(I-5
I1
tp4023
a(I-5
I0
tp4024
a(I-4
I0
tp4025
a(I-4
I-1
tp4026
a(I-4
I-2
tp4027
a(I-5
I-2
tp4028
a(I-5
I-3
tp4029
a(I-4
I-3
tp4030
a(I-3
I-3
tp4031
aI0
tp4032
a((lp4033
g3
a(I0
I1
tp4034
a(I0
I2
tp4035
a(I-1
I2
tp4036
a(I-1
I1
tp4037
a(I-1
I0
tp4038
a(I-1
I-1
tp4039
a(I-1
I-2
tp4040
a(I-1
I-3
tp4041
a(I0
I-3
tp4042
a(I0
I-2
tp4043
a(I0
I-1
tp4044
a(I1
I-1
tp4045
a(I1
I0
tp4046
a(I2
I0
tp4047
a(I3
I0
tp4048
a(I3
I-1
tp4049
a(I4
I-1
tp4050
a(I4
I0
tp4051
a(I4
I1
tp4052
a(I3
I1
tp4053
a(I2
I1
tp4054
a(I1
I1
tp4055
a(I1
I2
tp4056
a(I2
I2
tp4057
aI0
tp4058
a((lp4059
g3
a(I0
I-1
tp4060
a(I0
I-2
tp4061
a(I0
I-3
tp4062
a(I0
I-4
tp4063
a(I0
I-5
tp4064
a(I-1
I-5
tp4065
a(I-2
I-5
tp4066
a(I-2
I-6
tp4067
a(I-2
I-7
tp4068
a(I-3
I-7
tp4069
a(I-3
I-8
tp4070
a(I-2
I-8
tp4071
a(I-1
I-8
tp4072
a(I-1
I-7
tp4073
a(I-1
I-6
tp4074
a(I0
I-6
tp4075
a(I1
I-6
tp4076
a(I1
I-7
tp4077
a(I1
I-8
tp4078
a(I1
I-9
tp4079
a(I0
I-9
tp4080
a(I0
I-10
tp4081
a(I0
I-11
tp4082
a(I0
I-12
tp4083
aI0
tp4084
a((lp4085
g3
a(I1
I0
tp4086
a(I2
I0
tp4087
a(I2
I-1
tp4088
a(I3
I-1
tp4089
a(I4
I-1
tp4090
a(I5
I-1
tp4091
a(I5
I-2
tp4092
a(I4
I-2
tp4093
a(I4
I-3
tp4094
a(I3
I-3
tp4095
a(I2
I-3
tp4096
a(I2
I-2
tp4097
a(I1
I-2
tp4098
a(I1
I-3
tp4099
a(I0
I-3
tp4100
a(I0
I-4
tp4101
a(I0
I-5
tp4102
a(I1
I-5
tp4103
a(I1
I-4
tp4104
a(I2
I-4
tp4105
a(I2
I-5
tp4106
a(I2
I-6
tp4107
a(I3
I-6
tp4108
a(I3
I-5
tp4109
aI0
tp4110
a((lp4111
g3
a(I0
I-1
tp4112
a(I-1
I-1
tp4113
a(I-2
I-1
tp4114
a(I-2
I-2
tp4115
a(I-3
I-2
tp4116
a(I-3
I-1
tp4117
a(I-3
I0
tp4118
a(I-4
I0
tp4119
a(I-4
I1
tp4120
a(I-5
I1
tp4121
a(I-5
I2
tp4122
a(I-4
I2
tp4123
a(I-4
I3
tp4124
a(I-3
I3
tp4125
a(I-2
I3
tp4126
a(I-1
I3
tp4127
a(I-1
I2
tp4128
a(I0
I2
tp4129
a(I0
I1
tp4130
a(I1
I1
tp4131
a(I2
I1
tp4132
a(I3
I1
tp4133
a(I3
I0
tp4134
a(I3
I-1
tp4135
aI0
tp4136
a((lp4137
g3
a(I0
I-1
tp4138
a(I-1
I-1
tp4139
a(I-1
I-2
tp4140
a(I-1
I-3
tp4141
a(I0
I-3
tp4142
a(I0
I-4
tp4143
a(I1
I-4
tp4144
a(I2
I-4
tp4145
a(I3
I-4
tp4146
a(I3
I-3
tp4147
a(I3
I-2
tp4148
a(I4
I-2
tp4149
a(I4
I-3
tp4150
a(I5
I-3
tp4151
a(I6
I-3
tp4152
a(I7
I-3
tp4153
a(I8
I-3
tp4154
a(I9
I-3
tp4155
a(I10
I-3
tp4156
a(I10
I-2
tp4157
a(I9
I-2
tp4158
a(I8
I-2
tp4159
a(I8
I-1
tp4160
a(I8
I0
tp4161
aI0
tp4162
a((lp4163
g3
a(I0
I-1
tp4164
a(I0
I-2
tp4165
a(I0
I-3
tp4166
a(I0
I-4
tp4167
a(I0
I-5
tp4168
a(I1
I-5
tp4169
a(I1
I-4
tp4170
a(I2
I-4
tp4171
a(I3
I-4
tp4172
a(I3
I-3
tp4173
a(I3
I-2
tp4174
a(I4
I-2
tp4175
a(I4
I-1
tp4176
a(I5
I-1
tp4177
a(I5
I-2
tp4178
a(I5
I-3
tp4179
a(I6
I-3
tp4180
a(I6
I-2
tp4181
a(I7
I-2
tp4182
a(I7
I-1
tp4183
a(I7
I0
tp4184
a(I7
I1
tp4185
a(I6
I1
tp4186
a(I5
I1
tp4187
aI0
tp4188
a((lp4189
g3
a(I0
I-1
tp4190
a(I0
I-2
tp4191
a(I0
I-3
tp4192
a(I1
I-3
tp4193
a(I1
I-2
tp4194
a(I1
I-1
tp4195
a(I1
I0
tp4196
a(I1
I1
tp4197
a(I1
I2
tp4198
a(I2
I2
tp4199
a(I2
I3
tp4200
a(I1
I3
tp4201
a(I1
I4
tp4202
a(I0
I4
tp4203
a(I0
I3
tp4204
a(I0
I2
tp4205
a(I-1
I2
tp4206
a(I-2
I2
tp4207
a(I-3
I2
tp4208
a(I-3
I1
tp4209
a(I-2
I1
tp4210
a(I-2
I0
tp4211
a(I-2
I-1
tp4212
a(I-3
I-1
tp4213
aI0
tp4214
a((lp4215
g3
a(I0
I1
tp4216
a(I1
I1
tp4217
a(I1
I0
tp4218
a(I1
I-1
tp4219
a(I1
I-2
tp4220
a(I0
I-2
tp4221
a(I0
I-3
tp4222
a(I0
I-4
tp4223
a(I0
I-5
tp4224
a(I-1
I-5
tp4225
a(I-2
I-5
tp4226
a(I-3
I-5
tp4227
a(I-3
I-4
tp4228
a(I-4
I-4
tp4229
a(I-4
I-5
tp4230
a(I-4
I-6
tp4231
a(I-4
I-7
tp4232
a(I-3
I-7
tp4233
a(I-2
I-7
tp4234
a(I-2
I-8
tp4235
a(I-3
I-8
tp4236
a(I-4
I-8
tp4237
a(I-4
I-9
tp4238
a(I-3
I-9
tp4239
aI0
tp4240
a((lp4241
g3
a(I0
I1
tp4242
a(I1
I1
tp4243
a(I2
I1
tp4244
a(I2
I2
tp4245
a(I2
I3
tp4246
a(I3
I3
tp4247
a(I3
I2
tp4248
a(I3
I1
tp4249
a(I4
I1
tp4250
a(I4
I0
tp4251
a(I3
I0
tp4252
a(I3
I-1
tp4253
a(I3
I-2
tp4254
a(I3
I-3
tp4255
a(I2
I-3
tp4256
a(I1
I-3
tp4257
a(I1
I-2
tp4258
a(I0
I-2
tp4259
a(I0
I-1
tp4260
a(I-1
I-1
tp4261
a(I-2
I-1
tp4262
a(I-2
I0
tp4263
a(I-2
I1
tp4264
a(I-1
I1
tp4265
aI0
tp4266
a((lp4267
g3
a(I0
I-1
tp4268
a(I-1
I-1
tp4269
a(I-1
I0
tp4270
a(I-2
I0
tp4271
a(I-3
I0
tp4272
a(I-4
I0
tp4273
a(I-4
I-1
tp4274
a(I-4
I-2
tp4275
a(I-4
I-3
tp4276
a(I-5
I-3
tp4277
a(I-6
I-3
tp4278
a(I-6
I-2
tp4279
a(I-6
I-1
tp4280
a(I-6
I0
tp4281
a(I-5
I0
tp4282
a(I-5
I1
tp4283
a(I-5
I2
tp4284
a(I-4
I2
tp4285
a(I-3
I2
tp4286
a(I-3
I1
tp4287
a(I-2
I1
tp4288
a(I-2
I2
tp4289
a(I-1
I2
tp4290
a(I-1
I3
tp4291
aI0
tp4292
a((lp4293
g3
a(I0
I-1
tp4294
a(I1
I-1
tp4295
a(I2
I-1
tp4296
a(I2
I0
tp4297
a(I2
I1
tp4298
a(I2
I2
tp4299
a(I1
I2
tp4300
a(I0
I2
tp4301
a(I0
I1
tp4302
a(I-1
I1
tp4303
a(I-1
I2
tp4304
a(I-2
I2
tp4305
a(I-2
I3
tp4306
a(I-3
I3
tp4307
a(I-4
I3
tp4308
a(I-4
I2
tp4309
a(I-5
I2
tp4310
a(I-6
I2
tp4311
a(I-6
I3
tp4312
a(I-7
I3
tp4313
a(I-7
I4
tp4314
a(I-8
I4
tp4315
a(I-9
I4
tp4316
a(I-9
I5
tp4317
aI0
tp4318
a((lp4319
g3
a(I1
I0
tp4320
a(I1
I-1
tp4321
a(I2
I-1
tp4322
a(I2
I0
tp4323
a(I3
I0
tp4324
a(I3
I-1
tp4325
a(I3
I-2
tp4326
a(I2
I-2
tp4327
a(I1
I-2
tp4328
a(I0
I-2
tp4329
a(I0
I-3
tp4330
a(I0
I-4
tp4331
a(I-1
I-4
tp4332
a(I-1
I-5
tp4333
a(I-1
I-6
tp4334
a(I0
I-6
tp4335
a(I0
I-7
tp4336
a(I1
I-7
tp4337
a(I2
I-7
tp4338
a(I2
I-6
tp4339
a(I2
I-5
tp4340
a(I2
I-4
tp4341
a(I3
I-4
tp4342
a(I3
I-5
tp4343
aI0
tp4344
a((lp4345
g3
a(I0
I-1
tp4346
a(I-1
I-1
tp4347
a(I-1
I-2
tp4348
a(I-1
I-3
tp4349
a(I0
I-3
tp4350
a(I0
I-2
tp4351
a(I1
I-2
tp4352
a(I1
I-3
tp4353
a(I2
I-3
tp4354
a(I2
I-2
tp4355
a(I3
I-2
tp4356
a(I3
I-1
tp4357
a(I4
I-1
tp4358
a(I5
I-1
tp4359
a(I5
I-2
tp4360
a(I6
I-2
tp4361
a(I6
I-1
tp4362
a(I6
I0
tp4363
a(I5
I0
tp4364
a(I4
I0
tp4365
a(I4
I1
tp4366
a(I5
I1
tp4367
a(I6
I1
tp4368
a(I6
I2
tp4369
aI0
tp4370
a((lp4371
g3
a(I1
I0
tp4372
a(I1
I-1
tp4373
a(I1
I-2
tp4374
a(I2
I-2
tp4375
a(I3
I-2
tp4376
a(I4
I-2
tp4377
a(I4
I-1
tp4378
a(I3
I-1
tp4379
a(I3
I0
tp4380
a(I4
I0
tp4381
a(I5
I0
tp4382
a(I6
I0
tp4383
a(I6
I1
tp4384
a(I7
I1
tp4385
a(I7
I0
tp4386
a(I8
I0
tp4387
a(I8
I1
tp4388
a(I8
I2
tp4389
a(I7
I2
tp4390
a(I6
I2
tp4391
a(I5
I2
tp4392
a(I5
I1
tp4393
a(I4
I1
tp4394
a(I4
I2
tp4395
aI0
tp4396
a((lp4397
g3
a(I1
I0
tp4398
a(I1
I1
tp4399
a(I0
I1
tp4400
a(I-1
I1
tp4401
a(I-1
I2
tp4402
a(I-1
I3
tp4403
a(I-1
I4
tp4404
a(I-2
I4
tp4405
a(I-2
I3
tp4406
a(I-2
I2
tp4407
a(I-2
I1
tp4408
a(I-2
I0
tp4409
a(I-1
I0
tp4410
a(I-1
I-1
tp4411
a(I0
I-1
tp4412
a(I0
I-2
tp4413
a(I1
I-2
tp4414
a(I1
I-3
tp4415
a(I1
I-4
tp4416
a(I2
I-4
tp4417
a(I2
I-3
tp4418
a(I2
I-2
tp4419
a(I2
I-1
tp4420
a(I1
I-1
tp4421
aI0
tp4422
a((lp4423
g3
a(I1
I0
tp4424
a(I1
I1
tp4425
a(I2
I1
tp4426
a(I3
I1
tp4427
a(I4
I1
tp4428
a(I4
I0
tp4429
a(I4
I-1
tp4430
a(I4
I-2
tp4431
a(I4
I-3
tp4432
a(I5
I-3
tp4433
a(I5
I-4
tp4434
a(I4
I-4
tp4435
a(I3
I-4
tp4436
a(I3
I-5
tp4437
a(I2
I-5
tp4438
a(I1
I-5
tp4439
a(I0
I-5
tp4440
a(I0
I-4
tp4441
a(I1
I-4
tp4442
a(I2
I-4
tp4443
a(I2
I-3
tp4444
a(I1
I-3
tp4445
a(I0
I-3
tp4446
a(I-1
I-3
tp4447
aI0
tp4448
a((lp4449
g3
a(I0
I1
tp4450
a(I1
I1
tp4451
a(I2
I1
tp4452
a(I2
I0
tp4453
a(I2
I-1
tp4454
a(I3
I-1
tp4455
a(I3
I-2
tp4456
a(I2
I-2
tp4457
a(I2
I-3
tp4458
a(I1
I-3
tp4459
a(I1
I-4
tp4460
a(I2
I-4
tp4461
a(I3
I-4
tp4462
a(I3
I-3
tp4463
a(I4
I-3
tp4464
a(I5
I-3
tp4465
a(I5
I-4
tp4466
a(I5
I-5
tp4467
a(I6
I-5
tp4468
a(I6
I-6
tp4469
a(I5
I-6
tp4470
a(I4
I-6
tp4471
a(I3
I-6
tp4472
a(I2
I-6
tp4473
aI0
tp4474
a((lp4475
g3
a(I-1
I0
tp4476
a(I-1
I-1
tp4477
a(I-1
I-2
tp4478
a(I-2
I-2
tp4479
a(I-3
I-2
tp4480
a(I-3
I-1
tp4481
a(I-4
I-1
tp4482
a(I-5
I-1
tp4483
a(I-5
I0
tp4484
a(I-4
I0
tp4485
a(I-3
I0
tp4486
a(I-2
I0
tp4487
a(I-2
I1
tp4488
a(I-3
I1
tp4489
a(I-4
I1
tp4490
a(I-4
I2
tp4491
a(I-3
I2
tp4492
a(I-3
I3
tp4493
a(I-3
I4
tp4494
a(I-2
I4
tp4495
a(I-2
I3
tp4496
a(I-1
I3
tp4497
a(I0
I3
tp4498
a(I0
I4
tp4499
aI0
tp4500
a((lp4501
g3
a(I-1
I0
tp4502
a(I-1
I1
tp4503
a(I-2
I1
tp4504
a(I-3
I1
tp4505
a(I-3
I0
tp4506
a(I-3
I-1
tp4507
a(I-4
I-1
tp4508
a(I-5
I-1
tp4509
a(I-6
I-1
tp4510
a(I-6
I-2
tp4511
a(I-5
I-2
tp4512
a(I-5
I-3
tp4513
a(I-5
I-4
tp4514
a(I-5
I-5
tp4515
a(I-4
I-5
tp4516
a(I-3
I-5
tp4517
a(I-3
I-4
tp4518
a(I-2
I-4
tp4519
a(I-1
I-4
tp4520
a(I-1
I-3
tp4521
a(I-2
I-3
tp4522
a(I-3
I-3
tp4523
a(I-4
I-3
tp4524
a(I-4
I-2
tp4525
aI0
tp4526
a((lp4527
g3
a(I0
I-1
tp4528
a(I-1
I-1
tp4529
a(I-2
I-1
tp4530
a(I-2
I0
tp4531
a(I-1
I0
tp4532
a(I-1
I1
tp4533
a(I-1
I2
tp4534
a(I0
I2
tp4535
a(I1
I2
tp4536
a(I1
I3
tp4537
a(I2
I3
tp4538
a(I2
I4
tp4539
a(I2
I5
tp4540
a(I3
I5
tp4541
a(I3
I4
tp4542
a(I4
I4
tp4543
a(I4
I3
tp4544
a(I5
I3
tp4545
a(I5
I2
tp4546
a(I4
I2
tp4547
a(I3
I2
tp4548
a(I3
I1
tp4549
a(I3
I0
tp4550
a(I3
I-1
tp4551
aI0
tp4552
a((lp4553
g3
a(I-1
I0
tp4554
a(I-1
I1
tp4555
a(I-1
I2
tp4556
a(I0
I2
tp4557
a(I0
I1
tp4558
a(I1
I1
tp4559
a(I1
I0
tp4560
a(I2
I0
tp4561
a(I2
I-1
tp4562
a(I2
I-2
tp4563
a(I3
I-2
tp4564
a(I3
I-1
tp4565
a(I3
I0
tp4566
a(I4
I0
tp4567
a(I4
I1
tp4568
a(I3
I1
tp4569
a(I2
I1
tp4570
a(I2
I2
tp4571
a(I3
I2
tp4572
a(I3
I3
tp4573
a(I4
I3
tp4574
a(I4
I4
tp4575
a(I5
I4
tp4576
a(I5
I3
tp4577
aI0
tp4578
a((lp4579
g3
a(I1
I0
tp4580
a(I2
I0
tp4581
a(I2
I1
tp4582
a(I2
I2
tp4583
a(I1
I2
tp4584
a(I0
I2
tp4585
a(I0
I3
tp4586
a(I1
I3
tp4587
a(I2
I3
tp4588
a(I3
I3
tp4589
a(I3
I2
tp4590
a(I3
I1
tp4591
a(I3
I0
tp4592
a(I3
I-1
tp4593
a(I2
I-1
tp4594
a(I2
I-2
tp4595
a(I1
I-2
tp4596
a(I0
I-2
tp4597
a(I0
I-3
tp4598
a(I-1
I-3
tp4599
a(I-2
I-3
tp4600
a(I-3
I-3
tp4601
a(I-3
I-2
tp4602
a(I-3
I-1
tp4603
aI0
tp4604
a((lp4605
g3
a(I1
I0
tp4606
a(I1
I-1
tp4607
a(I2
I-1
tp4608
a(I2
I0
tp4609
a(I2
I1
tp4610
a(I2
I2
tp4611
a(I1
I2
tp4612
a(I1
I1
tp4613
a(I0
I1
tp4614
a(I0
I2
tp4615
a(I-1
I2
tp4616
a(I-1
I3
tp4617
a(I-2
I3
tp4618
a(I-2
I2
tp4619
a(I-2
I1
tp4620
a(I-1
I1
tp4621
a(I-1
I0
tp4622
a(I-2
I0
tp4623
a(I-2
I-1
tp4624
a(I-3
I-1
tp4625
a(I-3
I-2
tp4626
a(I-3
I-3
tp4627
a(I-2
I-3
tp4628
a(I-2
I-4
tp4629
aI0
tp4630
a((lp4631
g3
a(I-1
I0
tp4632
a(I-2
I0
tp4633
a(I-2
I-1
tp4634
a(I-1
I-1
tp4635
a(I-1
I-2
tp4636
a(I-2
I-2
tp4637
a(I-3
I-2
tp4638
a(I-4
I-2
tp4639
a(I-4
I-1
tp4640
a(I-3
I-1
tp4641
a(I-3
I0
tp4642
a(I-3
I1
tp4643
a(I-3
I2
tp4644
a(I-4
I2
tp4645
a(I-4
I1
tp4646
a(I-5
I1
tp4647
a(I-5
I2
tp4648
a(I-6
I2
tp4649
a(I-6
I1
tp4650
a(I-6
I0
tp4651
a(I-5
I0
tp4652
a(I-5
I-1
tp4653
a(I-5
I-2
tp4654
a(I-6
I-2
tp4655
aI0
tp4656
a((lp4657
g3
a(I0
I1
tp4658
a(I-1
I1
tp4659
a(I-1
I0
tp4660
a(I-1
I-1
tp4661
a(I-1
I-2
tp4662
a(I-2
I-2
tp4663
a(I-3
I-2
tp4664
a(I-4
I-2
tp4665
a(I-5
I-2
tp4666
a(I-6
I-2
tp4667
a(I-6
I-1
tp4668
a(I-7
I-1
tp4669
a(I-8
I-1
tp4670
a(I-8
I0
tp4671
a(I-8
I1
tp4672
a(I-7
I1
tp4673
a(I-6
I1
tp4674
a(I-5
I1
tp4675
a(I-5
I2
tp4676
a(I-4
I2
tp4677
a(I-4
I1
tp4678
a(I-3
I1
tp4679
a(I-3
I2
tp4680
a(I-3
I3
tp4681
aI0
tp4682
a((lp4683
g3
a(I0
I-1
tp4684
a(I-1
I-1
tp4685
a(I-2
I-1
tp4686
a(I-2
I-2
tp4687
a(I-1
I-2
tp4688
a(I-1
I-3
tp4689
a(I-2
I-3
tp4690
a(I-3
I-3
tp4691
a(I-3
I-2
tp4692
a(I-4
I-2
tp4693
a(I-5
I-2
tp4694
a(I-6
I-2
tp4695
a(I-7
I-2
tp4696
a(I-7
I-1
tp4697
a(I-8
I-1
tp4698
a(I-9
I-1
tp4699
a(I-10
I-1
tp4700
a(I-10
I0
tp4701
a(I-10
I1
tp4702
a(I-10
I2
tp4703
a(I-9
I2
tp4704
a(I-8
I2
tp4705
a(I-8
I3
tp4706
a(I-9
I3
tp4707
aI0
tp4708
a((lp4709
g3
a(I1
I0
tp4710
a(I1
I1
tp4711
a(I2
I1
tp4712
a(I2
I0
tp4713
a(I3
I0
tp4714
a(I3
I1
tp4715
a(I3
I2
tp4716
a(I4
I2
tp4717
a(I5
I2
tp4718
a(I6
I2
tp4719
a(I6
I1
tp4720
a(I5
I1
tp4721
a(I4
I1
tp4722
a(I4
I0
tp4723
a(I4
I-1
tp4724
a(I3
I-1
tp4725
a(I2
I-1
tp4726
a(I1
I-1
tp4727
a(I1
I-2
tp4728
a(I2
I-2
tp4729
a(I2
I-3
tp4730
a(I2
I-4
tp4731
a(I3
I-4
tp4732
a(I3
I-5
tp4733
aI0
tp4734
a((lp4735
g3
a(I0
I1
tp4736
a(I-1
I1
tp4737
a(I-1
I2
tp4738
a(I0
I2
tp4739
a(I1
I2
tp4740
a(I1
I3
tp4741
a(I0
I3
tp4742
a(I0
I4
tp4743
a(I-1
I4
tp4744
a(I-1
I5
tp4745
a(I-1
I6
tp4746
a(I-2
I6
tp4747
a(I-3
I6
tp4748
a(I-3
I7
tp4749
a(I-2
I7
tp4750
a(I-2
I8
tp4751
a(I-2
I9
tp4752
a(I-2
I10
tp4753
a(I-1
I10
tp4754
a(I-1
I11
tp4755
a(I0
I11
tp4756
a(I0
I12
tp4757
a(I0
I13
tp4758
a(I-1
I13
tp4759
aI0
tp4760
a((lp4761
g3
a(I-1
I0
tp4762
a(I-2
I0
tp4763
a(I-3
I0
tp4764
a(I-4
I0
tp4765
a(I-5
I0
tp4766
a(I-5
I1
tp4767
a(I-4
I1
tp4768
a(I-4
I2
tp4769
a(I-5
I2
tp4770
a(I-5
I3
tp4771
a(I-5
I4
tp4772
a(I-5
I5
tp4773
a(I-6
I5
tp4774
a(I-7
I5
tp4775
a(I-7
I6
tp4776
a(I-6
I6
tp4777
a(I-6
I7
tp4778
a(I-6
I8
tp4779
a(I-6
I9
tp4780
a(I-5
I9
tp4781
a(I-4
I9
tp4782
a(I-3
I9
tp4783
a(I-3
I10
tp4784
a(I-2
I10
tp4785
aI0
tp4786
a((lp4787
g3
a(I0
I-1
tp4788
a(I0
I-2
tp4789
a(I-1
I-2
tp4790
a(I-1
I-3
tp4791
a(I-2
I-3
tp4792
a(I-2
I-4
tp4793
a(I-3
I-4
tp4794
a(I-3
I-5
tp4795
a(I-4
I-5
tp4796
a(I-4
I-6
tp4797
a(I-5
I-6
tp4798
a(I-6
I-6
tp4799
a(I-7
I-6
tp4800
a(I-7
I-5
tp4801
a(I-6
I-5
tp4802
a(I-5
I-5
tp4803
a(I-5
I-4
tp4804
a(I-6
I-4
tp4805
a(I-7
I-4
tp4806
a(I-8
I-4
tp4807
a(I-8
I-5
tp4808
a(I-8
I-6
tp4809
a(I-9
I-6
tp4810
a(I-10
I-6
tp4811
aI0
tp4812
a((lp4813
g3
a(I1
I0
tp4814
a(I2
I0
tp4815
a(I2
I1
tp4816
a(I1
I1
tp4817
a(I0
I1
tp4818
a(I-1
I1
tp4819
a(I-2
I1
tp4820
a(I-2
I2
tp4821
a(I-1
I2
tp4822
a(I0
I2
tp4823
a(I0
I3
tp4824
a(I-1
I3
tp4825
a(I-1
I4
tp4826
a(I0
I4
tp4827
a(I0
I5
tp4828
a(I0
I6
tp4829
a(I0
I7
tp4830
a(I-1
I7
tp4831
a(I-1
I6
tp4832
a(I-1
I5
tp4833
a(I-2
I5
tp4834
a(I-2
I6
tp4835
a(I-3
I6
tp4836
a(I-4
I6
tp4837
aI0
tp4838
a((lp4839
g3
a(I0
I1
tp4840
a(I0
I2
tp4841
a(I-1
I2
tp4842
a(I-1
I3
tp4843
a(I0
I3
tp4844
a(I1
I3
tp4845
a(I1
I2
tp4846
a(I1
I1
tp4847
a(I2
I1
tp4848
a(I3
I1
tp4849
a(I3
I2
tp4850
a(I4
I2
tp4851
a(I4
I1
tp4852
a(I4
I0
tp4853
a(I4
I-1
tp4854
a(I3
I-1
tp4855
a(I3
I0
tp4856
a(I2
I0
tp4857
a(I2
I-1
tp4858
a(I2
I-2
tp4859
a(I1
I-2
tp4860
a(I0
I-2
tp4861
a(I0
I-1
tp4862
a(I1
I-1
tp4863
aI0
tp4864
a((lp4865
g3
a(I1
I0
tp4866
a(I1
I1
tp4867
a(I0
I1
tp4868
a(I0
I2
tp4869
a(I0
I3
tp4870
a(I-1
I3
tp4871
a(I-1
I4
tp4872
a(I0
I4
tp4873
a(I1
I4
tp4874
a(I2
I4
tp4875
a(I3
I4
tp4876
a(I3
I5
tp4877
a(I2
I5
tp4878
a(I1
I5
tp4879
a(I0
I5
tp4880
a(I-1
I5
tp4881
a(I-2
I5
tp4882
a(I-2
I4
tp4883
a(I-3
I4
tp4884
a(I-3
I5
tp4885
a(I-4
I5
tp4886
a(I-4
I4
tp4887
a(I-5
I4
tp4888
a(I-6
I4
tp4889
aI0
tp4890
a((lp4891
g3
a(I1
I0
tp4892
a(I1
I-1
tp4893
a(I1
I-2
tp4894
a(I2
I-2
tp4895
a(I3
I-2
tp4896
a(I3
I-3
tp4897
a(I2
I-3
tp4898
a(I2
I-4
tp4899
a(I3
I-4
tp4900
a(I4
I-4
tp4901
a(I4
I-5
tp4902
a(I4
I-6
tp4903
a(I3
I-6
tp4904
a(I3
I-5
tp4905
a(I2
I-5
tp4906
a(I2
I-6
tp4907
a(I2
I-7
tp4908
a(I1
I-7
tp4909
a(I1
I-8
tp4910
a(I1
I-9
tp4911
a(I2
I-9
tp4912
a(I2
I-8
tp4913
a(I3
I-8
tp4914
a(I3
I-7
tp4915
aI0
tp4916
a((lp4917
g3
a(I1
I0
tp4918
a(I1
I1
tp4919
a(I0
I1
tp4920
a(I-1
I1
tp4921
a(I-1
I0
tp4922
a(I-1
I-1
tp4923
a(I-1
I-2
tp4924
a(I-1
I-3
tp4925
a(I-2
I-3
tp4926
a(I-2
I-4
tp4927
a(I-1
I-4
tp4928
a(I-1
I-5
tp4929
a(I-1
I-6
tp4930
a(I-1
I-7
tp4931
a(I-2
I-7
tp4932
a(I-2
I-6
tp4933
a(I-2
I-5
tp4934
a(I-3
I-5
tp4935
a(I-4
I-5
tp4936
a(I-5
I-5
tp4937
a(I-5
I-6
tp4938
a(I-6
I-6
tp4939
a(I-7
I-6
tp4940
a(I-7
I-7
tp4941
aI0
tp4942
a((lp4943
g3
a(I1
I0
tp4944
a(I2
I0
tp4945
a(I2
I-1
tp4946
a(I3
I-1
tp4947
a(I3
I0
tp4948
a(I4
I0
tp4949
a(I5
I0
tp4950
a(I5
I1
tp4951
a(I6
I1
tp4952
a(I6
I2
tp4953
a(I6
I3
tp4954
a(I7
I3
tp4955
a(I7
I2
tp4956
a(I8
I2
tp4957
a(I8
I3
tp4958
a(I8
I4
tp4959
a(I9
I4
tp4960
a(I9
I3
tp4961
a(I10
I3
tp4962
a(I10
I2
tp4963
a(I11
I2
tp4964
a(I11
I1
tp4965
a(I10
I1
tp4966
a(I9
I1
tp4967
aI0
tp4968
a((lp4969
g3
a(I0
I1
tp4970
a(I1
I1
tp4971
a(I2
I1
tp4972
a(I2
I0
tp4973
a(I1
I0
tp4974
a(I1
I-1
tp4975
a(I1
I-2
tp4976
a(I1
I-3
tp4977
a(I1
I-4
tp4978
a(I1
I-5
tp4979
a(I0
I-5
tp4980
a(I0
I-4
tp4981
a(I0
I-3
tp4982
a(I-1
I-3
tp4983
a(I-2
I-3
tp4984
a(I-3
I-3
tp4985
a(I-4
I-3
tp4986
a(I-4
I-4
tp4987
a(I-3
I-4
tp4988
a(I-2
I-4
tp4989
a(I-1
I-4
tp4990
a(I-1
I-5
tp4991
a(I-2
I-5
tp4992
a(I-2
I-6
tp4993
aI0
tp4994
a((lp4995
g3
a(I-1
I0
tp4996
a(I-1
I1
tp4997
a(I-1
I2
tp4998
a(I-1
I3
tp4999
a(I-1
I4
tp5000
a(I-2
I4
tp5001
a(I-3
I4
tp5002
a(I-3
I5
tp5003
a(I-3
I6
tp5004
a(I-4
I6
tp5005
a(I-4
I7
tp5006
a(I-4
I8
tp5007
a(I-4
I9
tp5008
a(I-5
I9
tp5009
a(I-5
I8
tp5010
a(I-5
I7
tp5011
a(I-6
I7
tp5012
a(I-7
I7
tp5013
a(I-8
I7
tp5014
a(I-8
I8
tp5015
a(I-8
I9
tp5016
a(I-7
I9
tp5017
a(I-6
I9
tp5018
a(I-6
I8
tp5019
aI0
tp5020
a((lp5021
g3
a(I1
I0
tp5022
a(I2
I0
tp5023
a(I2
I1
tp5024
a(I1
I1
tp5025
a(I0
I1
tp5026
a(I0
I2
tp5027
a(I0
I3
tp5028
a(I1
I3
tp5029
a(I1
I2
tp5030
a(I2
I2
tp5031
a(I2
I3
tp5032
a(I2
I4
tp5033
a(I3
I4
tp5034
a(I3
I5
tp5035
a(I3
I6
tp5036
a(I3
I7
tp5037
a(I4
I7
tp5038
a(I4
I6
tp5039
a(I4
I5
tp5040
a(I5
I5
tp5041
a(I5
I4
tp5042
a(I4
I4
tp5043
a(I4
I3
tp5044
a(I3
I3
tp5045
aI0
tp5046
a((lp5047
g3
a(I-1
I0
tp5048
a(I-2
I0
tp5049
a(I-3
I0
tp5050
a(I-4
I0
tp5051
a(I-4
I1
tp5052
a(I-5
I1
tp5053
a(I-6
I1
tp5054
a(I-6
I0
tp5055
a(I-7
I0
tp5056
a(I-8
I0
tp5057
a(I-8
I-1
tp5058
a(I-9
I-1
tp5059
a(I-10
I-1
tp5060
a(I-11
I-1
tp5061
a(I-11
I-2
tp5062
a(I-12
I-2
tp5063
a(I-12
I-3
tp5064
a(I-11
I-3
tp5065
a(I-10
I-3
tp5066
a(I-10
I-2
tp5067
a(I-9
I-2
tp5068
a(I-8
I-2
tp5069
a(I-7
I-2
tp5070
a(I-6
I-2
tp5071
aI0
tp5072
a((lp5073
g3
a(I1
I0
tp5074
a(I2
I0
tp5075
a(I2
I-1
tp5076
a(I2
I-2
tp5077
a(I2
I-3
tp5078
a(I2
I-4
tp5079
a(I3
I-4
tp5080
a(I3
I-3
tp5081
a(I4
I-3
tp5082
a(I5
I-3
tp5083
a(I5
I-2
tp5084
a(I6
I-2
tp5085
a(I6
I-1
tp5086
a(I6
I0
tp5087
a(I5
I0
tp5088
a(I4
I0
tp5089
a(I3
I0
tp5090
a(I3
I1
tp5091
a(I2
I1
tp5092
a(I1
I1
tp5093
a(I0
I1
tp5094
a(I-1
I1
tp5095
a(I-2
I1
tp5096
a(I-2
I2
tp5097
aI0
tp5098
a((lp5099
g3
a(I1
I0
tp5100
a(I2
I0
tp5101
a(I3
I0
tp5102
a(I3
I1
tp5103
a(I4
I1
tp5104
a(I5
I1
tp5105
a(I5
I0
tp5106
a(I5
I-1
tp5107
a(I5
I-2
tp5108
a(I5
I-3
tp5109
a(I4
I-3
tp5110
a(I4
I-2
tp5111
a(I3
I-2
tp5112
a(I3
I-3
tp5113
a(I2
I-3
tp5114
a(I2
I-4
tp5115
a(I3
I-4
tp5116
a(I4
I-4
tp5117
a(I5
I-4
tp5118
a(I5
I-5
tp5119
a(I6
I-5
tp5120
a(I7
I-5
tp5121
a(I8
I-5
tp5122
a(I8
I-6
tp5123
aI0
tp5124
a((lp5125
g3
a(I1
I0
tp5126
a(I1
I-1
tp5127
a(I0
I-1
tp5128
a(I-1
I-1
tp5129
a(I-1
I-2
tp5130
a(I-1
I-3
tp5131
a(I-2
I-3
tp5132
a(I-2
I-4
tp5133
a(I-3
I-4
tp5134
a(I-3
I-5
tp5135
a(I-4
I-5
tp5136
a(I-5
I-5
tp5137
a(I-5
I-4
tp5138
a(I-6
I-4
tp5139
a(I-6
I-5
tp5140
a(I-6
I-6
tp5141
a(I-7
I-6
tp5142
a(I-8
I-6
tp5143
a(I-9
I-6
tp5144
a(I-10
I-6
tp5145
a(I-11
I-6
tp5146
a(I-11
I-5
tp5147
a(I-11
I-4
tp5148
a(I-10
I-4
tp5149
aI0
tp5150
a((lp5151
g3
a(I0
I-1
tp5152
a(I0
I-2
tp5153
a(I0
I-3
tp5154
a(I1
I-3
tp5155
a(I2
I-3
tp5156
a(I2
I-2
tp5157
a(I2
I-1
tp5158
a(I3
I-1
tp5159
a(I3
I-2
tp5160
a(I3
I-3
tp5161
a(I3
I-4
tp5162
a(I3
I-5
tp5163
a(I2
I-5
tp5164
a(I2
I-4
tp5165
a(I1
I-4
tp5166
a(I0
I-4
tp5167
a(I-1
I-4
tp5168
a(I-1
I-3
tp5169
a(I-2
I-3
tp5170
a(I-3
I-3
tp5171
a(I-4
I-3
tp5172
a(I-5
I-3
tp5173
a(I-6
I-3
tp5174
a(I-6
I-2
tp5175
aI0
tp5176
a((lp5177
g3
a(I0
I1
tp5178
a(I0
I2
tp5179
a(I1
I2
tp5180
a(I1
I3
tp5181
a(I0
I3
tp5182
a(I0
I4
tp5183
a(I0
I5
tp5184
a(I-1
I5
tp5185
a(I-1
I6
tp5186
a(I0
I6
tp5187
a(I0
I7
tp5188
a(I1
I7
tp5189
a(I1
I6
tp5190
a(I2
I6
tp5191
a(I2
I7
tp5192
a(I2
I8
tp5193
a(I1
I8
tp5194
a(I0
I8
tp5195
a(I0
I9
tp5196
a(I0
I10
tp5197
a(I1
I10
tp5198
a(I1
I11
tp5199
a(I0
I11
tp5200
a(I0
I12
tp5201
aI0
tp5202
a.