(lp1
((lp2
(I0
I0
tp3
a(I-1
I0
tp4
a(I-2
I0
tp5
a(I-3
I0
tp6
a(I-3
I1
tp7
a(I-3
I2
tp8
a(I-4
I2
tp9
a(I-5
I2
tp10
a(I-6
I2
tp11
a(I-7
I2
tp12
a(I-7
I1
tp13
a(I-7
I0
tp14
a(I-7
I-1
tp15
a(I-8
I-1
tp16
a(I-8
I-2
tp17
a(I-7
I-2
tp18
a(I-7
I-3
tp19
a(I-6
I-3
tp20
a(I-6
I-4
tp21
a(I-7
I-4
tp22
a(I-7
I-5
tp23
a(I-7
I-6
tp24
a(I-8
I-6
tp25
a(I-9
I-6
tp26
a(I-9
I-5
tp27
a(I-8
I-5
tp28
a(I-8
I-4
tp29
a(I-8
I-3
tp30
a(I-9
I-3
tp31
a(I-10
I-3
tp32
a(I-11
I-3
tp33
a(I-11
I-2
tp34
a(I-10
I-2
tp35
a(I-10
I-1
tp36
a(I-11
I-1
tp37
a(I-11
I0
tp38
aI0
tp39
a((lp40
g3
a(I0
I1
tp41
a(I-1
I1
tp42
a(I-1
I0
tp43
a(I-1
I-1
tp44
a(I-2
I-1
tp45
a(I-3
I-1
tp46
a(I-3
I-2
tp47
a(I-2
I-2
tp48
a(I-2
I-3
tp49
a(I-2
I-4
tp50
a(I-1
I-4
tp51
a(I-1
I-5
tp52
a(I-1
I-6
tp53
a(I-1
I-7
tp54
a(I-2
I-7
tp55
a(I-2
I-8
tp56
a(I-1
I-8
tp57
a(I0
I-8
tp58
a(I1
I-8
tp59
a(I1
I-7
tp60
a(I2
I-7
tp61
a(I2
I-6
tp62
a(I3
I-6
tp63
a(I4
I-6
tp64
a(I4
I-7
tp65
a(I5
I-7
tp66
a(I5
I-8
tp67
a(I4
I-8
tp68
a(I3
I-8
tp69
a(I2
I-8
tp70
a(I2
I-9
tp71
a(I2
I-10
tp72
a(I1
I-10
tp73
a(I0
I-10
tp74
a(I0
I-9
tp75
aI0
tp76
a((lp77
g3
a(I-1
I0
tp78
a(I-1
I-1
tp79
a(I-1
I-2
tp80
a(I-1
I-3
tp81
a(I-1
I-4
tp82
a(I-1
I-5
tp83
a(I-1
I-6
tp84
a(I0
I-6
tp85
a(I0
I-5
tp86
a(I1
I-5
tp87
a(I2
I-5
tp88
a(I2
I-6
tp89
a(I2
I-7
tp90
a(I2
I-8
tp91
a(I3
I-8
tp92
a(I3
I-7
tp93
a(I4
I-7
tp94
a(I4
I-8
tp95
a(I4
I-9
tp96
a(I3
I-9
tp97
a(I3
I-10
tp98
a(I2
I-10
tp99
a(I2
I-11
tp100
a(I3
I-11
tp101
a(I4
I-11
tp102
a(I4
I-10
tp103
a(I5
I-10
tp104
a(I5
I-11
tp105
a(I5
I-12
tp106
a(I6
I-12
tp107
a(I6
I-11
tp108
a(I6
I-10
tp109
a(I7
I-10
tp110
a(I7
I-11
tp111
a(I8
I-11
tp112
aI0
tp113
a((lp114
g3
a(I0
I1
tp115
a(I1
I1
tp116
a(I1
I0
tp117
a(I1
I-1
tp118
a(I2
I-1
tp119
a(I3
I-1
tp120
a(I3
I0
tp121
a(I2
I0
tp122
a(I2
I1
tp123
a(I3
I1
tp124
a(I3
I2
tp125
a(I2
I2
tp126
a(I1
I2
tp127
a(I0
I2
tp128
a(I0
I3
tp129
a(I1
I3
tp130
a(I1
I4
tp131
a(I0
I4
tp132
a(I-1
I4
tp133
a(I-1
I5
tp134
a(I-1
I6
tp135
a(I-1
I7
tp136
a(I-1
I8
tp137
a(I0
I8
tp138
a(I1
I8
tp139
a(I1
I9
tp140
a(I1
I10
tp141
a(I2
I10
tp142
a(I3
I10
tp143
a(I4
I10
tp144
a(I4
I11
tp145
a(I4
I12
tp146
a(I5
I12
tp147
a(I5
I13
tp148
a(I4
I13
tp149
aI0
tp150
a((lp151
g3
a(I0
I1
tp152
a(I-1
I1
tp153
a(I-2
I1
tp154
a(I-2
I0
tp155
a(I-1
I0
tp156
a(I-1
I-1
tp157
a(I-2
I-1
tp158
a(I-2
I-2
tp159
a(I-1
I-2
tp160
a(I-1
I-3
tp161
a(I0
I-3
tp162
a(I0
I-2
tp163
a(I0
I-1
tp164
a(I1
I-1
tp165
a(I2
I-1
tp166
a(I3
I-1
tp167
a(I3
I-2
tp168
a(I4
I-2
tp169
a(I4
I-3
tp170
a(I5
I-3
tp171
a(I5
I-2
tp172
a(I6
I-2
tp173
a(I6
I-1
tp174
a(I6
I0
tp175
a(I6
I1
tp176
a(I5
I1
tp177
a(I4
I1
tp178
a(I4
I0
tp179
a(I3
I0
tp180
a(I3
I1
tp181
a(I3
I2
tp182
a(I4
I2
tp183
a(I4
I3
tp184
a(I3
I3
tp185
a(I2
I3
tp186
aI0
tp187
a((lp188
g3
a(I0
I1
tp189
a(I0
I2
tp190
a(I0
I3
tp191
a(I-1
I3
tp192
a(I-1
I4
tp193
a(I0
I4
tp194
a(I1
I4
tp195
a(I1
I3
tp196
a(I2
I3
tp197
a(I2
I4
tp198
a(I3
I4
tp199
a(I3
I3
tp200
a(I4
I3
tp201
a(I4
I2
tp202
a(I5
I2
tp203
a(I5
I1
tp204
a(I5
I0
tp205
a(I4
I0
tp206
a(I4
I-1
tp207
a(I3
I-1
tp208
a(I2
I-1
tp209
a(I1
I-1
tp210
a(I1
I-2
tp211
a(I1
I-3
tp212
a(I2
I-3
tp213
a(I2
I-4
tp214
a(I1
I-4
tp215
a(I0
I-4
tp216
a(I0
I-5
tp217
a(I0
I-6
tp218
a(I0
I-7
tp219
a(I1
I-7
tp220
a(I2
I-7
tp221
a(I2
I-6
tp222
a(I1
I-6
tp223
aI0
tp224
a((lp225
g3
a(I0
I1
tp226
a(I-1
I1
tp227
a(I-1
I2
tp228
a(I-2
I2
tp229
a(I-3
I2
tp230
a(I-3
I1
tp231
a(I-3
I0
tp232
a(I-2
I0
tp233
a(I-1
I0
tp234
a(I-1
I-1
tp235
a(I-2
I-1
tp236
a(I-3
I-1
tp237
a(I-4
I-1
tp238
a(I-4
I-2
tp239
a(I-4
I-3
tp240
a(I-5
I-3
tp241
a(I-6
I-3
tp242
a(I-6
I-4
tp243
a(I-5
I-4
tp244
a(I-5
I-5
tp245
a(I-4
I-5
tp246
a(I-4
I-4
tp247
a(I-3
I-4
tp248
a(I-3
I-3
tp249
a(I-3
I-2
tp250
a(I-2
I-2
tp251
a(I-2
I-3
tp252
a(I-2
I-4
tp253
a(I-2
I-5
tp254
a(I-1
I-5
tp255
a(I-1
I-6
tp256
a(I-2
I-6
tp257
a(I-2
I-7
tp258
a(I-2
I-8
tp259
a(I-2
I-9
tp260
aI0
tp261
a((lp262
g3
a(I0
I-1
tp263
a(I-1
I-1
tp264
a(I-2
I-1
tp265
a(I-2
I0
tp266
a(I-2
I1
tp267
a(I-2
I2
tp268
a(I-3
I2
tp269
a(I-3
I3
tp270
a(I-4
I3
tp271
a(I-5
I3
tp272
a(I-5
I2
tp273
a(I-4
I2
tp274
a(I-4
I1
tp275
a(I-3
I1
tp276
a(I-3
I0
tp277
a(I-4
I0
tp278
a(I-4
I-1
tp279
a(I-5
I-1
tp280
a(I-5
I-2
tp281
a(I-5
I-3
tp282
a(I-5
I-4
tp283
a(I-4
I-4
tp284
a(I-4
I-5
tp285
a(I-4
I-6
tp286
a(I-4
I-7
tp287
a(I-5
I-7
tp288
a(I-5
I-8
tp289
a(I-6
I-8
tp290
a(I-6
I-7
tp291
a(I-7
I-7
tp292
a(I-8
I-7
tp293
a(I-9
I-7
tp294
a(I-9
I-8
tp295
a(I-10
I-8
tp296
a(I-11
I-8
tp297
aI0
tp298
a((lp299
g3
a(I-1
I0
tp300
a(I-1
I1
tp301
a(I0
I1
tp302
a(I1
I1
tp303
a(I1
I0
tp304
a(I1
I-1
tp305
a(I0
I-1
tp306
a(I-1
I-1
tp307
a(I-1
I-2
tp308
a(I-1
I-3
tp309
a(I-1
I-4
tp310
a(I0
I-4
tp311
a(I0
I-3
tp312
a(I1
I-3
tp313
a(I1
I-2
tp314
a(I2
I-2
tp315
a(I3
I-2
tp316
a(I3
I-1
tp317
a(I3
I0
tp318
a(I2
I0
tp319
a(I2
I1
tp320
a(I3
I1
tp321
a(I4
I1
tp322
a(I4
I2
tp323
a(I5
I2
tp324
a(I5
I1
tp325
a(I6
I1
tp326
a(I6
I2
tp327
a(I7
I2
tp328
a(I7
I3
tp329
a(I8
I3
tp330
a(I8
I4
tp331
a(I9
I4
tp332
a(I10
I4
tp333
a(I10
I3
tp334
aI0
tp335
a((lp336
g3
a(I1
I0
tp337
a(I1
I-1
tp338
a(I2
I-1
tp339
a(I2
I0
tp340
a(I3
I0
tp341
a(I4
I0
tp342
a(I4
I1
tp343
a(I3
I1
tp344
a(I3
I2
tp345
a(I4
I2
tp346
a(I4
I3
tp347
a(I3
I3
tp348
a(I2
I3
tp349
a(I2
I4
tp350
a(I1
I4
tp351
a(I1
I3
tp352
a(I0
I3
tp353
a(I0
I4
tp354
a(I0
I5
tp355
a(I1
I5
tp356
a(I1
I6
tp357
a(I1
I7
tp358
a(I1
I8
tp359
a(I2
I8
tp360
a(I2
I9
tp361
a(I1
I9
tp362
a(I1
I10
tp363
a(I1
I11
tp364
a(I0
I11
tp365
a(I0
I12
tp366
a(I0
I13
tp367
a(I1
I13
tp368
a(I1
I14
tp369
a(I0
I14
tp370
a(I0
I15
tp371
aI0
tp372
a((lp373
g3
a(I0
I-1
tp374
a(I1
I-1
tp375
a(I1
I-2
tp376
a(I2
I-2
tp377
a(I3
I-2
tp378
a(I3
I-3
tp379
a(I4
I-3
tp380
a(I5
I-3
tp381
a(I6
I-3
tp382
a(I6
I-2
tp383
a(I6
I-1
tp384
a(I5
I-1
tp385
a(I4
I-1
tp386
a(I3
I-1
tp387
a(I2
I-1
tp388
a(I2
I0
tp389
a(I3
I0
tp390
a(I3
I1
tp391
a(I3
I2
tp392
a(I2
I2
tp393
a(I2
I3
tp394
a(I1
I3
tp395
a(I1
I4
tp396
a(I2
I4
tp397
a(I2
I5
tp398
a(I1
I5
tp399
a(I0
I5
tp400
a(I0
I6
tp401
a(I0
I7
tp402
a(I0
I8
tp403
a(I0
I9
tp404
a(I-1
I9
tp405
a(I-1
I8
tp406
a(I-1
I7
tp407
a(I-1
I6
tp408
aI0
tp409
a((lp410
g3
a(I0
I1
tp411
a(I-1
I1
tp412
a(I-1
I2
tp413
a(I-2
I2
tp414
a(I-3
I2
tp415
a(I-3
I3
tp416
a(I-2
I3
tp417
a(I-1
I3
tp418
a(I-1
I4
tp419
a(I-2
I4
tp420
a(I-2
I5
tp421
a(I-2
I6
tp422
a(I-1
I6
tp423
a(I-1
I5
tp424
a(I0
I5
tp425
a(I0
I4
tp426
a(I0
I3
tp427
a(I1
I3
tp428
a(I1
I4
tp429
a(I2
I4
tp430
a(I2
I3
tp431
a(I3
I3
tp432
a(I3
I2
tp433
a(I2
I2
tp434
a(I2
I1
tp435
a(I2
I0
tp436
a(I1
I0
tp437
a(I1
I-1
tp438
a(I2
I-1
tp439
a(I3
I-1
tp440
a(I3
I-2
tp441
a(I4
I-2
tp442
a(I5
I-2
tp443
a(I5
I-1
tp444
a(I4
I-1
tp445
aI0
tp446
a((lp447
g3
a(I-1
I0
tp448
a(I-2
I0
tp449
a(I-2
I-1
tp450
a(I-3
I-1
tp451
a(I-3
I0
tp452
a(I-4
I0
tp453
a(I-5
I0
tp454
a(I-6
I0
tp455
a(I-6
I-1
tp456
a(I-7
I-1
tp457
a(I-7
I0
tp458
a(I-8
I0
tp459
a(I-9
I0
tp460
a(I-10
I0
tp461
a(I-10
I-1
tp462
a(I-11
I-1
tp463
a(I-11
I0
tp464
a(I-12
I0
tp465
a(I-12
I-1
tp466
a(I-12
I-2
tp467
a(I-11
I-2
tp468
a(I-10
I-2
tp469
a(I-9
I-2
tp470
a(I-9
I-1
tp471
a(I-8
I-1
tp472
a(I-8
I-2
tp473
a(I-8
I-3
tp474
a(I-7
I-3
tp475
a(I-7
I-2
tp476
a(I-6
I-2
tp477
a(I-6
I-3
tp478
a(I-6
I-4
tp479
a(I-5
I-4
tp480
a(I-5
I-5
tp481
a(I-6
I-5
tp482
aI0
tp483
a((lp484
g3
a(I0
I1
tp485
a(I-1
I1
tp486
a(I-2
I1
tp487
a(I-2
I0
tp488
a(I-3
I0
tp489
a(I-3
I-1
tp490
a(I-2
I-1
tp491
a(I-1
I-1
tp492
a(I-1
I-2
tp493
a(I0
I-2
tp494
a(I0
I-1
tp495
a(I1
I-1
tp496
a(I1
I0
tp497
a(I2
I0
tp498
a(I2
I1
tp499
a(I3
I1
tp500
a(I3
I2
tp501
a(I3
I3
tp502
a(I3
I4
tp503
a(I4
I4
tp504
a(I4
I3
tp505
a(I4
I2
tp506
a(I5
I2
tp507
a(I5
I1
tp508
a(I4
I1
tp509
a(I4
I0
tp510
a(I5
I0
tp511
a(I5
I-1
tp512
a(I4
I-1
tp513
a(I3
I-1
tp514
a(I2
I-1
tp515
a(I2
I-2
tp516
a(I1
I-2
tp517
a(I1
I-3
tp518
a(I2
I-3
tp519
aI0
tp520
a((lp521
g3
a(I0
I1
tp522
a(I1
I1
tp523
a(I1
I0
tp524
a(I2
I0
tp525
a(I2
I-1
tp526
a(I1
I-1
tp527
a(I0
I-1
tp528
a(I0
I-2
tp529
a(I-1
I-2
tp530
a(I-2
I-2
tp531
a(I-2
I-3
tp532
a(I-3
I-3
tp533
a(I-3
I-4
tp534
a(I-2
I-4
tp535
a(I-1
I-4
tp536
a(I0
I-4
tp537
a(I0
I-3
tp538
a(I1
I-3
tp539
a(I1
I-4
tp540
a(I1
I-5
tp541
a(I2
I-5
tp542
a(I2
I-4
tp543
a(I3
I-4
tp544
a(I3
I-3
tp545
a(I2
I-3
tp546
a(I2
I-2
tp547
a(I3
I-2
tp548
a(I4
I-2
tp549
a(I4
I-3
tp550
a(I4
I-4
tp551
a(I5
I-4
tp552
a(I6
I-4
tp553
a(I6
I-3
tp554
a(I5
I-3
tp555
a(I5
I-2
tp556
aI0
tp557
a((lp558
g3
a(I-1
I0
tp559
a(I-2
I0
tp560
a(I-3
I0
tp561
a(I-4
I0
tp562
a(I-4
I-1
tp563
a(I-5
I-1
tp564
a(I-6
I-1
tp565
a(I-7
I-1
tp566
a(I-7
I0
tp567
a(I-6
I0
tp568
a(I-6
I1
tp569
a(I-7
I1
tp570
a(I-8
I1
tp571
a(I-9
I1
tp572
a(I-9
I0
tp573
a(I-8
I0
tp574
a(I-8
I-1
tp575
a(I-9
I-1
tp576
a(I-10
I-1
tp577
a(I-10
I0
tp578
a(I-11
I0
tp579
a(I-12
I0
tp580
a(I-13
I0
tp581
a(I-13
I-1
tp582
a(I-14
I-1
tp583
a(I-15
I-1
tp584
a(I-15
I-2
tp585
a(I-15
I-3
tp586
a(I-15
I-4
tp587
a(I-14
I-4
tp588
a(I-13
I-4
tp589
a(I-12
I-4
tp590
a(I-12
I-3
tp591
a(I-13
I-3
tp592
a(I-13
I-2
tp593
aI0
tp594
a((lp595
g3
a(I0
I-1
tp596
a(I0
I-2
tp597
a(I-1
I-2
tp598
a(I-1
I-1
tp599
a(I-2
I-1
tp600
a(I-2
I0
tp601
a(I-1
I0
tp602
a(I-1
I1
tp603
a(I0
I1
tp604
a(I1
I1
tp605
a(I1
I0
tp606
a(I1
I-1
tp607
a(I1
I-2
tp608
a(I2
I-2
tp609
a(I3
I-2
tp610
a(I3
I-3
tp611
a(I4
I-3
tp612
a(I5
I-3
tp613
a(I5
I-2
tp614
a(I5
I-1
tp615
a(I6
I-1
tp616
a(I6
I-2
tp617
a(I7
I-2
tp618
a(I7
I-3
tp619
a(I6
I-3
tp620
a(I6
I-4
tp621
a(I6
I-5
tp622
a(I7
I-5
tp623
a(I7
I-6
tp624
a(I8
I-6
tp625
a(I9
I-6
tp626
a(I9
I-5
tp627
a(I10
I-5
tp628
a(I10
I-4
tp629
a(I9
I-4
tp630
aI0
tp631
a((lp632
g3
a(I-1
I0
tp633
a(I-1
I-1
tp634
a(I-1
I-2
tp635
a(I0
I-2
tp636
a(I1
I-2
tp637
a(I1
I-3
tp638
a(I2
I-3
tp639
a(I2
I-4
tp640
a(I3
I-4
tp641
a(I3
I-5
tp642
a(I2
I-5
tp643
a(I1
I-5
tp644
a(I1
I-6
tp645
a(I1
I-7
tp646
a(I0
I-7
tp647
a(I-1
I-7
tp648
a(I-2
I-7
tp649
a(I-2
I-6
tp650
a(I-2
I-5
tp651
a(I-2
I-4
tp652
a(I-2
I-3
tp653
a(I-3
I-3
tp654
a(I-3
I-2
tp655
a(I-3
I-1
tp656
a(I-2
I-1
tp657
a(I-2
I0
tp658
a(I-2
I1
tp659
a(I-1
I1
tp660
a(I-1
I2
tp661
a(I-2
I2
tp662
a(I-2
I3
tp663
a(I-3
I3
tp664
a(I-3
I2
tp665
a(I-3
I1
tp666
a(I-4
I1
tp667
aI0
tp668
a((lp669
g3
a(I1
I0
tp670
a(I1
I1
tp671
a(I0
I1
tp672
a(I0
I2
tp673
a(I1
I2
tp674
a(I2
I2
tp675
a(I2
I3
tp676
a(I1
I3
tp677
a(I1
I4
tp678
a(I1
I5
tp679
a(I2
I5
tp680
a(I2
I6
tp681
a(I3
I6
tp682
a(I3
I7
tp683
a(I3
I8
tp684
a(I3
I9
tp685
a(I3
I10
tp686
a(I4
I10
tp687
a(I5
I10
tp688
a(I5
I9
tp689
a(I6
I9
tp690
a(I6
I8
tp691
a(I7
I8
tp692
a(I8
I8
tp693
a(I9
I8
tp694
a(I9
I7
tp695
a(I9
I6
tp696
a(I9
I5
tp697
a(I9
I4
tp698
a(I8
I4
tp699
a(I8
I5
tp700
a(I8
I6
tp701
a(I8
I7
tp702
a(I7
I7
tp703
a(I7
I6
tp704
aI0
tp705
a((lp706
g3
a(I0
I1
tp707
a(I1
I1
tp708
a(I1
I2
tp709
a(I1
I3
tp710
a(I1
I4
tp711
a(I0
I4
tp712
a(I0
I3
tp713
a(I-1
I3
tp714
a(I-2
I3
tp715
a(I-2
I2
tp716
a(I-3
I2
tp717
a(I-3
I3
tp718
a(I-4
I3
tp719
a(I-4
I4
tp720
a(I-3
I4
tp721
a(I-3
I5
tp722
a(I-2
I5
tp723
a(I-1
I5
tp724
a(I0
I5
tp725
a(I1
I5
tp726
a(I2
I5
tp727
a(I2
I6
tp728
a(I2
I7
tp729
a(I3
I7
tp730
a(I3
I6
tp731
a(I3
I5
tp732
a(I3
I4
tp733
a(I3
I3
tp734
a(I3
I2
tp735
a(I4
I2
tp736
a(I5
I2
tp737
a(I5
I3
tp738
a(I4
I3
tp739
a(I4
I4
tp740
a(I5
I4
tp741
aI0
tp742
a((lp743
g3
a(I0
I1
tp744
a(I0
I2
tp745
a(I1
I2
tp746
a(I1
I1
tp747
a(I1
I0
tp748
a(I1
I-1
tp749
a(I0
I-1
tp750
a(I-1
I-1
tp751
a(I-1
I0
tp752
a(I-2
I0
tp753
a(I-3
I0
tp754
a(I-3
I1
tp755
a(I-2
I1
tp756
a(I-1
I1
tp757
a(I-1
I2
tp758
a(I-2
I2
tp759
a(I-2
I3
tp760
a(I-2
I4
tp761
a(I-2
I5
tp762
a(I-3
I5
tp763
a(I-3
I4
tp764
a(I-3
I3
tp765
a(I-3
I2
tp766
a(I-4
I2
tp767
a(I-4
I1
tp768
a(I-4
I0
tp769
a(I-5
I0
tp770
a(I-5
I1
tp771
a(I-6
I1
tp772
a(I-7
I1
tp773
a(I-7
I0
tp774
a(I-6
I0
tp775
a(I-6
I-1
tp776
a(I-7
I-1
tp777
a(I-7
I-2
tp778
aI0
tp779
a((lp780
g3
a(I1
I0
tp781
a(I1
I-1
tp782
a(I2
I-1
tp783
a(I3
I-1
tp784
a(I4
I-1
tp785
a(I4
I-2
tp786
a(I5
I-2
tp787
a(I6
I-2
tp788
a(I7
I-2
tp789
a(I7
I-3
tp790
a(I7
I-4
tp791
a(I8
I-4
tp792
a(I9
I-4
tp793
a(I10
I-4
tp794
a(I10
I-5
tp795
a(I10
I-6
tp796
a(I11
I-6
tp797
a(I12
I-6
tp798
a(I12
I-7
tp799
a(I11
I-7
tp800
a(I10
I-7
tp801
a(I10
I-8
tp802
a(I10
I-9
tp803
a(I11
I-9
tp804
a(I11
I-8
tp805
a(I12
I-8
tp806
a(I13
I-8
tp807
a(I14
I-8
tp808
a(I14
I-7
tp809
a(I15
I-7
tp810
a(I15
I-6
tp811
a(I16
I-6
tp812
a(I16
I-5
tp813
a(I15
I-5
tp814
a(I14
I-5
tp815
aI0
tp816
a((lp817
g3
a(I0
I-1
tp818
a(I0
I-2
tp819
a(I0
I-3
tp820
a(I0
I-4
tp821
a(I-1
I-4
tp822
a(I-1
I-3
tp823
a(I-2
I-3
tp824
a(I-2
I-4
tp825
a(I-3
I-4
tp826
a(I-3
I-5
tp827
a(I-2
I-5
tp828
a(I-2
I-6
tp829
a(I-2
I-7
tp830
a(I-3
I-7
tp831
a(I-3
I-6
tp832
a(I-4
I-6
tp833
a(I-4
I-5
tp834
a(I-5
I-5
tp835
a(I-5
I-4
tp836
a(I-6
I-4
tp837
a(I-7
I-4
tp838
a(I-8
I-4
tp839
a(I-8
I-5
tp840
a(I-7
I-5
tp841
a(I-7
I-6
tp842
a(I-6
I-6
tp843
a(I-5
I-6
tp844
a(I-5
I-7
tp845
a(I-4
I-7
tp846
a(I-4
I-8
tp847
a(I-4
I-9
tp848
a(I-5
I-9
tp849
a(I-5
I-10
tp850
a(I-6
I-10
tp851
a(I-6
I-11
tp852
aI0
tp853
a((lp854
g3
a(I-1
I0
tp855
a(I-1
I-1
tp856
a(I-1
I-2
tp857
a(I-2
I-2
tp858
a(I-2
I-3
tp859
a(I-3
I-3
tp860
a(I-4
I-3
tp861
a(I-4
I-2
tp862
a(I-5
I-2
tp863
a(I-5
I-1
tp864
a(I-4
I-1
tp865
a(I-3
I-1
tp866
a(I-2
I-1
tp867
a(I-2
I0
tp868
a(I-3
I0
tp869
a(I-3
I1
tp870
a(I-3
I2
tp871
a(I-2
I2
tp872
a(I-2
I3
tp873
a(I-1
I3
tp874
a(I0
I3
tp875
a(I0
I4
tp876
a(I0
I5
tp877
a(I0
I6
tp878
a(I1
I6
tp879
a(I2
I6
tp880
a(I3
I6
tp881
a(I4
I6
tp882
a(I5
I6
tp883
a(I5
I5
tp884
a(I4
I5
tp885
a(I4
I4
tp886
a(I5
I4
tp887
a(I6
I4
tp888
a(I6
I3
tp889
aI0
tp890
a((lp891
g3
a(I0
I-1
tp892
a(I0
I-2
tp893
a(I1
I-2
tp894
a(I1
I-1
tp895
a(I2
I-1
tp896
a(I2
I-2
tp897
a(I3
I-2
tp898
a(I3
I-1
tp899
a(I4
I-1
tp900
a(I4
I-2
tp901
a(I4
I-3
tp902
a(I5
I-3
tp903
a(I6
I-3
tp904
a(I6
I-2
tp905
a(I7
I-2
tp906
a(I7
I-1
tp907
a(I8
I-1
tp908
a(I9
I-1
tp909
a(I10
I-1
tp910
a(I10
I-2
tp911
a(I11
I-2
tp912
a(I11
I-1
tp913
a(I12
I-1
tp914
a(I13
I-1
tp915
a(I13
I-2
tp916
a(I13
I-3
tp917
a(I14
I-3
tp918
a(I14
I-4
tp919
a(I15
I-4
tp920
a(I16
I-4
tp921
a(I16
I-5
tp922
a(I16
I-6
tp923
a(I16
I-7
tp924
a(I15
I-7
tp925
a(I14
I-7
tp926
aI0
tp927
a((lp928
g3
a(I1
I0
tp929
a(I1
I1
tp930
a(I0
I1
tp931
a(I-1
I1
tp932
a(I-1
I0
tp933
a(I-1
I-1
tp934
a(I0
I-1
tp935
a(I1
I-1
tp936
a(I2
I-1
tp937
a(I2
I-2
tp938
a(I2
I-3
tp939
a(I2
I-4
tp940
a(I3
I-4
tp941
a(I3
I-3
tp942
a(I4
I-3
tp943
a(I5
I-3
tp944
a(I6
I-3
tp945
a(I6
I-2
tp946
a(I7
I-2
tp947
a(I8
I-2
tp948
a(I8
I-3
tp949
a(I9
I-3
tp950
a(I9
I-2
tp951
a(I10
I-2
tp952
a(I11
I-2
tp953
a(I12
I-2
tp954
a(I12
I-3
tp955
a(I13
I-3
tp956
a(I14
I-3
tp957
a(I15
I-3
tp958
a(I15
I-2
tp959
a(I15
I-1
tp960
a(I16
I-1
tp961
a(I16
I0
tp962
a(I15
I0
tp963
aI0
tp964
a((lp965
g3
a(I0
I1
tp966
a(I0
I2
tp967
a(I1
I2
tp968
a(I1
I1
tp969
a(I1
I0
tp970
a(I2
I0
tp971
a(I3
I0
tp972
a(I3
I-1
tp973
a(I2
I-1
tp974
a(I1
I-1
tp975
a(I1
I-2
tp976
a(I0
I-2
tp977
a(I0
I-1
tp978
a(I-1
I-1
tp979
a(I-1
I0
tp980
a(I-1
I1
tp981
a(I-1
I2
tp982
a(I-1
I3
tp983
a(I-2
I3
tp984
a(I-2
I4
tp985
a(I-3
I4
tp986
a(I-3
I5
tp987
a(I-2
I5
tp988
a(I-2
I6
tp989
a(I-1
I6
tp990
a(I-1
I7
tp991
a(I-2
I7
tp992
a(I-3
I7
tp993
a(I-3
I8
tp994
a(I-2
I8
tp995
a(I-1
I8
tp996
a(I0
I8
tp997
a(I0
I7
tp998
a(I1
I7
tp999
a(I1
I8
tp1000
aI0
tp1001
a((lp1002
g3
a(I0
I1
tp1003
a(I-1
I1
tp1004
a(I-1
I2
tp1005
a(I0
I2
tp1006
a(I1
I2
tp1007
a(I1
I3
tp1008
a(I2
I3
tp1009
a(I3
I3
tp1010
a(I3
I4
tp1011
a(I4
I4
tp1012
a(I4
I5
tp1013
a(I5
I5
tp1014
a(I6
I5
tp1015
a(I7
I5
tp1016
a(I7
I6
tp1017
a(I7
I7
tp1018
a(I6
I7
tp1019
a(I5
I7
tp1020
a(I4
I7
tp1021
a(I4
I8
tp1022
a(I4
I9
tp1023
a(I4
I10
tp1024
a(I4
I11
tp1025
a(I3
I11
tp1026
a(I3
I10
tp1027
a(I3
I9
tp1028
a(I2
I9
tp1029
a(I2
I10
tp1030
a(I2
I11
tp1031
a(I1
I11
tp1032
a(I1
I10
tp1033
a(I1
I9
tp1034
a(I1
I8
tp1035
a(I1
I7
tp1036
a(I0
I7
tp1037
aI0
tp1038
a((lp1039
g3
a(I0
I-1
tp1040
a(I1
I-1
tp1041
a(I1
I0
tp1042
a(I1
I1
tp1043
a(I0
I1
tp1044
a(I0
I2
tp1045
a(I1
I2
tp1046
a(I2
I2
tp1047
a(I2
I1
tp1048
a(I2
I0
tp1049
a(I2
I-1
tp1050
a(I3
I-1
tp1051
a(I4
I-1
tp1052
a(I4
I0
tp1053
a(I3
I0
tp1054
a(I3
I1
tp1055
a(I3
I2
tp1056
a(I4
I2
tp1057
a(I4
I1
tp1058
a(I5
I1
tp1059
a(I5
I0
tp1060
a(I5
I-1
tp1061
a(I6
I-1
tp1062
a(I6
I-2
tp1063
a(I5
I-2
tp1064
a(I5
I-3
tp1065
a(I5
I-4
tp1066
a(I5
I-5
tp1067
a(I6
I-5
tp1068
a(I6
I-6
tp1069
a(I6
I-7
tp1070
a(I7
I-7
tp1071
a(I7
I-8
tp1072
a(I8
I-8
tp1073
a(I8
I-9
tp1074
aI0
tp1075
a((lp1076
g3
a(I-1
I0
tp1077
a(I-2
I0
tp1078
a(I-3
I0
tp1079
a(I-4
I0
tp1080
a(I-4
I-1
tp1081
a(I-4
I-2
tp1082
a(I-4
I-3
tp1083
a(I-3
I-3
tp1084
a(I-2
I-3
tp1085
a(I-2
I-2
tp1086
a(I-2
I-1
tp1087
a(I-1
I-1
tp1088
a(I0
I-1
tp1089
a(I1
I-1
tp1090
a(I1
I0
tp1091
a(I1
I1
tp1092
a(I2
I1
tp1093
a(I2
I2
tp1094
a(I1
I2
tp1095
a(I1
I3
tp1096
a(I1
I4
tp1097
a(I1
I5
tp1098
a(I2
I5
tp1099
a(I2
I4
tp1100
a(I2
I3
tp1101
a(I3
I3
tp1102
a(I3
I2
tp1103
a(I3
I1
tp1104
a(I4
I1
tp1105
a(I4
I0
tp1106
a(I3
I0
tp1107
a(I2
I0
tp1108
a(I2
I-1
tp1109
a(I2
I-2
tp1110
a(I1
I-2
tp1111
aI0
tp1112
a((lp1113
g3
a(I0
I-1
tp1114
a(I-1
I-1
tp1115
a(I-1
I0
tp1116
a(I-2
I0
tp1117
a(I-2
I1
tp1118
a(I-1
I1
tp1119
a(I0
I1
tp1120
a(I0
I2
tp1121
a(I-1
I2
tp1122
a(I-2
I2
tp1123
a(I-2
I3
tp1124
a(I-2
I4
tp1125
a(I-2
I5
tp1126
a(I-2
I6
tp1127
a(I-1
I6
tp1128
a(I-1
I7
tp1129
a(I-1
I8
tp1130
a(I0
I8
tp1131
a(I0
I7
tp1132
a(I0
I6
tp1133
a(I1
I6
tp1134
a(I1
I7
tp1135
a(I1
I8
tp1136
a(I2
I8
tp1137
a(I2
I7
tp1138
a(I2
I6
tp1139
a(I2
I5
tp1140
a(I1
I5
tp1141
a(I1
I4
tp1142
a(I1
I3
tp1143
a(I2
I3
tp1144
a(I2
I4
tp1145
a(I3
I4
tp1146
a(I4
I4
tp1147
a(I5
I4
tp1148
aI0
tp1149
a((lp1150
g3
a(I1
I0
tp1151
a(I1
I1
tp1152
a(I1
I2
tp1153
a(I0
I2
tp1154
a(I0
I1
tp1155
a(I-1
I1
tp1156
a(I-1
I2
tp1157
a(I-2
I2
tp1158
a(I-2
I1
tp1159
a(I-3
I1
tp1160
a(I-3
I2
tp1161
a(I-4
I2
tp1162
a(I-5
I2
tp1163
a(I-5
I1
tp1164
a(I-6
I1
tp1165
a(I-6
I0
tp1166
a(I-5
I0
tp1167
a(I-5
I-1
tp1168
a(I-5
I-2
tp1169
a(I-6
I-2
tp1170
a(I-6
I-1
tp1171
a(I-7
I-1
tp1172
a(I-8
I-1
tp1173
a(I-8
I0
tp1174
a(I-8
I1
tp1175
a(I-7
I1
tp1176
a(I-7
I2
tp1177
a(I-7
I3
tp1178
a(I-6
I3
tp1179
a(I-6
I4
tp1180
a(I-7
I4
tp1181
a(I-7
I5
tp1182
a(I-6
I5
tp1183
a(I-6
I6
tp1184
a(I-6
I7
tp1185
aI0
tp1186
a((lp1187
g3
a(I-1
I0
tp1188
a(I-1
I-1
tp1189
a(I-2
I-1
tp1190
a(I-2
I-2
tp1191
a(I-1
I-2
tp1192
a(I0
I-2
tp1193
a(I0
I-1
tp1194
a(I1
I-1
tp1195
a(I1
I0
tp1196
a(I2
I0
tp1197
a(I2
I-1
tp1198
a(I2
I-2
tp1199
a(I1
I-2
tp1200
a(I1
I-3
tp1201
a(I0
I-3
tp1202
a(I-1
I-3
tp1203
a(I-1
I-4
tp1204
a(I0
I-4
tp1205
a(I0
I-5
tp1206
a(I1
I-5
tp1207
a(I1
I-6
tp1208
a(I0
I-6
tp1209
a(I-1
I-6
tp1210
a(I-1
I-5
tp1211
a(I-2
I-5
tp1212
a(I-3
I-5
tp1213
a(I-4
I-5
tp1214
a(I-5
I-5
tp1215
a(I-5
I-4
tp1216
a(I-4
I-4
tp1217
a(I-4
I-3
tp1218
a(I-5
I-3
tp1219
a(I-5
I-2
tp1220
a(I-4
I-2
tp1221
a(I-3
I-2
tp1222
aI0
tp1223
a((lp1224
g3
a(I0
I1
tp1225
a(I-1
I1
tp1226
a(I-1
I0
tp1227
a(I-1
I-1
tp1228
a(I0
I-1
tp1229
a(I1
I-1
tp1230
a(I2
I-1
tp1231
a(I3
I-1
tp1232
a(I3
I0
tp1233
a(I3
I1
tp1234
a(I2
I1
tp1235
a(I2
I0
tp1236
a(I1
I0
tp1237
a(I1
I1
tp1238
a(I1
I2
tp1239
a(I2
I2
tp1240
a(I2
I3
tp1241
a(I3
I3
tp1242
a(I3
I2
tp1243
a(I4
I2
tp1244
a(I4
I3
tp1245
a(I4
I4
tp1246
a(I5
I4
tp1247
a(I5
I3
tp1248
a(I5
I2
tp1249
a(I5
I1
tp1250
a(I4
I1
tp1251
a(I4
I0
tp1252
a(I4
I-1
tp1253
a(I4
I-2
tp1254
a(I4
I-3
tp1255
a(I4
I-4
tp1256
a(I5
I-4
tp1257
a(I5
I-3
tp1258
a(I5
I-2
tp1259
aI0
tp1260
a((lp1261
g3
a(I0
I-1
tp1262
a(I0
I-2
tp1263
a(I-1
I-2
tp1264
a(I-2
I-2
tp1265
a(I-2
I-3
tp1266
a(I-3
I-3
tp1267
a(I-3
I-4
tp1268
a(I-2
I-4
tp1269
a(I-1
I-4
tp1270
a(I0
I-4
tp1271
a(I1
I-4
tp1272
a(I1
I-5
tp1273
a(I1
I-6
tp1274
a(I0
I-6
tp1275
a(I0
I-5
tp1276
a(I-1
I-5
tp1277
a(I-2
I-5
tp1278
a(I-3
I-5
tp1279
a(I-3
I-6
tp1280
a(I-4
I-6
tp1281
a(I-5
I-6
tp1282
a(I-6
I-6
tp1283
a(I-6
I-5
tp1284
a(I-5
I-5
tp1285
a(I-4
I-5
tp1286
a(I-4
I-4
tp1287
a(I-4
I-3
tp1288
a(I-5
I-3
tp1289
a(I-5
I-2
tp1290
a(I-4
I-2
tp1291
a(I-4
I-1
tp1292
a(I-5
I-1
tp1293
a(I-6
I-1
tp1294
a(I-7
I-1
tp1295
a(I-7
I0
tp1296
aI0
tp1297
a((lp1298
g3
a(I0
I1
tp1299
a(I0
I2
tp1300
a(I0
I3
tp1301
a(I0
I4
tp1302
a(I0
I5
tp1303
a(I1
I5
tp1304
a(I1
I6
tp1305
a(I2
I6
tp1306
a(I3
I6
tp1307
a(I3
I5
tp1308
a(I3
I4
tp1309
a(I3
I3
tp1310
a(I2
I3
tp1311
a(I2
I2
tp1312
a(I2
I1
tp1313
a(I1
I1
tp1314
a(I1
I0
tp1315
a(I2
I0
tp1316
a(I3
I0
tp1317
a(I3
I-1
tp1318
a(I4
I-1
tp1319
a(I4
I0
tp1320
a(I5
I0
tp1321
a(I5
I1
tp1322
a(I6
I1
tp1323
a(I6
I0
tp1324
a(I7
I0
tp1325
a(I7
I1
tp1326
a(I8
I1
tp1327
a(I8
I0
tp1328
a(I9
I0
tp1329
a(I9
I-1
tp1330
a(I9
I-2
tp1331
a(I10
I-2
tp1332
a(I10
I-3
tp1333
aI0
tp1334
a((lp1335
g3
a(I-1
I0
tp1336
a(I-1
I-1
tp1337
a(I-1
I-2
tp1338
a(I0
I-2
tp1339
a(I0
I-1
tp1340
a(I1
I-1
tp1341
a(I1
I0
tp1342
a(I2
I0
tp1343
a(I3
I0
tp1344
a(I3
I-1
tp1345
a(I3
I-2
tp1346
a(I3
I-3
tp1347
a(I3
I-4
tp1348
a(I2
I-4
tp1349
a(I1
I-4
tp1350
a(I1
I-5
tp1351
a(I2
I-5
tp1352
a(I3
I-5
tp1353
a(I3
I-6
tp1354
a(I2
I-6
tp1355
a(I1
I-6
tp1356
a(I0
I-6
tp1357
a(I0
I-7
tp1358
a(I-1
I-7
tp1359
a(I-1
I-6
tp1360
a(I-2
I-6
tp1361
a(I-3
I-6
tp1362
a(I-3
I-7
tp1363
a(I-3
I-8
tp1364
a(I-3
I-9
tp1365
a(I-4
I-9
tp1366
a(I-4
I-8
tp1367
a(I-5
I-8
tp1368
a(I-5
I-9
tp1369
a(I-5
I-10
tp1370
aI0
tp1371
a((lp1372
g3
a(I-1
I0
tp1373
a(I-2
I0
tp1374
a(I-2
I-1
tp1375
a(I-1
I-1
tp1376
a(I-1
I-2
tp1377
a(I-1
I-3
tp1378
a(I-2
I-3
tp1379
a(I-2
I-2
tp1380
a(I-3
I-2
tp1381
a(I-3
I-1
tp1382
a(I-4
I-1
tp1383
a(I-4
I-2
tp1384
a(I-4
I-3
tp1385
a(I-5
I-3
tp1386
a(I-5
I-2
tp1387
a(I-5
I-1
tp1388
a(I-6
I-1
tp1389
a(I-6
I0
tp1390
a(I-7
I0
tp1391
a(I-8
I0
tp1392
a(I-8
I-1
tp1393
a(I-7
I-1
tp1394
a(I-7
I-2
tp1395
a(I-8
I-2
tp1396
a(I-8
I-3
tp1397
a(I-8
I-4
tp1398
a(I-9
I-4
tp1399
a(I-9
I-5
tp1400
a(I-8
I-5
tp1401
a(I-7
I-5
tp1402
a(I-6
I-5
tp1403
a(I-6
I-4
tp1404
a(I-6
I-3
tp1405
a(I-7
I-3
tp1406
a(I-7
I-4
tp1407
aI0
tp1408
a((lp1409
g3
a(I0
I1
tp1410
a(I-1
I1
tp1411
a(I-1
I2
tp1412
a(I0
I2
tp1413
a(I0
I3
tp1414
a(I1
I3
tp1415
a(I1
I2
tp1416
a(I1
I1
tp1417
a(I2
I1
tp1418
a(I2
I0
tp1419
a(I3
I0
tp1420
a(I3
I1
tp1421
a(I4
I1
tp1422
a(I4
I2
tp1423
a(I3
I2
tp1424
a(I3
I3
tp1425
a(I4
I3
tp1426
a(I5
I3
tp1427
a(I5
I4
tp1428
a(I6
I4
tp1429
a(I7
I4
tp1430
a(I7
I3
tp1431
a(I6
I3
tp1432
a(I6
I2
tp1433
a(I7
I2
tp1434
a(I8
I2
tp1435
a(I8
I3
tp1436
a(I8
I4
tp1437
a(I9
I4
tp1438
a(I10
I4
tp1439
a(I10
I5
tp1440
a(I10
I6
tp1441
a(I11
I6
tp1442
a(I11
I5
tp1443
a(I12
I5
tp1444
aI0
tp1445
a((lp1446
g3
a(I-1
I0
tp1447
a(I-1
I-1
tp1448
a(I-2
I-1
tp1449
a(I-3
I-1
tp1450
a(I-3
I0
tp1451
a(I-2
I0
tp1452
a(I-2
I1
tp1453
a(I-3
I1
tp1454
a(I-4
I1
tp1455
a(I-4
I0
tp1456
a(I-5
I0
tp1457
a(I-5
I-1
tp1458
a(I-5
I-2
tp1459
a(I-6
I-2
tp1460
a(I-7
I-2
tp1461
a(I-8
I-2
tp1462
a(I-8
I-3
tp1463
a(I-9
I-3
tp1464
a(I-9
I-2
tp1465
a(I-9
I-1
tp1466
a(I-9
I0
tp1467
a(I-9
I1
tp1468
a(I-9
I2
tp1469
a(I-10
I2
tp1470
a(I-11
I2
tp1471
a(I-11
I3
tp1472
a(I-10
I3
tp1473
a(I-10
I4
tp1474
a(I-11
I4
tp1475
a(I-12
I4
tp1476
a(I-12
I3
tp1477
a(I-12
I2
tp1478
a(I-13
I2
tp1479
a(I-14
I2
tp1480
a(I-14
I1
tp1481
aI0
tp1482
a((lp1483
g3
a(I1
I0
tp1484
a(I1
I1
tp1485
a(I1
I2
tp1486
a(I2
I2
tp1487
a(I2
I3
tp1488
a(I1
I3
tp1489
a(I0
I3
tp1490
a(I0
I4
tp1491
a(I0
I5
tp1492
a(I-1
I5
tp1493
a(I-1
I4
tp1494
a(I-1
I3
tp1495
a(I-1
I2
tp1496
a(I-1
I1
tp1497
a(I-2
I1
tp1498
a(I-3
I1
tp1499
a(I-3
I2
tp1500
a(I-4
I2
tp1501
a(I-4
I1
tp1502
a(I-4
I0
tp1503
a(I-5
I0
tp1504
a(I-5
I-1
tp1505
a(I-5
I-2
tp1506
a(I-4
I-2
tp1507
a(I-4
I-3
tp1508
a(I-5
I-3
tp1509
a(I-5
I-4
tp1510
a(I-6
I-4
tp1511
a(I-6
I-5
tp1512
a(I-5
I-5
tp1513
a(I-4
I-5
tp1514
a(I-4
I-6
tp1515
a(I-5
I-6
tp1516
a(I-6
I-6
tp1517
a(I-7
I-6
tp1518
aI0
tp1519
a((lp1520
g3
a(I1
I0
tp1521
a(I1
I1
tp1522
a(I0
I1
tp1523
a(I0
I2
tp1524
a(I1
I2
tp1525
a(I2
I2
tp1526
a(I3
I2
tp1527
a(I3
I3
tp1528
a(I2
I3
tp1529
a(I2
I4
tp1530
a(I2
I5
tp1531
a(I2
I6
tp1532
a(I3
I6
tp1533
a(I3
I7
tp1534
a(I3
I8
tp1535
a(I4
I8
tp1536
a(I4
I7
tp1537
a(I5
I7
tp1538
a(I5
I6
tp1539
a(I4
I6
tp1540
a(I4
I5
tp1541
a(I5
I5
tp1542
a(I5
I4
tp1543
a(I6
I4
tp1544
a(I7
I4
tp1545
a(I7
I5
tp1546
a(I8
I5
tp1547
a(I8
I6
tp1548
a(I9
I6
tp1549
a(I9
I5
tp1550
a(I10
I5
tp1551
a(I11
I5
tp1552
a(I11
I6
tp1553
a(I10
I6
tp1554
a(I10
I7
tp1555
aI0
tp1556
a((lp1557
g3
a(I0
I1
tp1558
a(I0
I2
tp1559
a(I-1
I2
tp1560
a(I-2
I2
tp1561
a(I-3
I2
tp1562
a(I-3
I1
tp1563
a(I-4
I1
tp1564
a(I-4
I0
tp1565
a(I-4
I-1
tp1566
a(I-3
I-1
tp1567
a(I-3
I0
tp1568
a(I-2
I0
tp1569
a(I-2
I1
tp1570
a(I-1
I1
tp1571
a(I-1
I0
tp1572
a(I-1
I-1
tp1573
a(I0
I-1
tp1574
a(I0
I-2
tp1575
a(I-1
I-2
tp1576
a(I-2
I-2
tp1577
a(I-2
I-3
tp1578
a(I-1
I-3
tp1579
a(I0
I-3
tp1580
a(I1
I-3
tp1581
a(I1
I-4
tp1582
a(I0
I-4
tp1583
a(I-1
I-4
tp1584
a(I-2
I-4
tp1585
a(I-2
I-5
tp1586
a(I-1
I-5
tp1587
a(I0
I-5
tp1588
a(I1
I-5
tp1589
a(I1
I-6
tp1590
a(I0
I-6
tp1591
a(I0
I-7
tp1592
aI0
tp1593
a((lp1594
g3
a(I1
I0
tp1595
a(I2
I0
tp1596
a(I2
I-1
tp1597
a(I1
I-1
tp1598
a(I1
I-2
tp1599
a(I0
I-2
tp1600
a(I0
I-3
tp1601
a(I1
I-3
tp1602
a(I2
I-3
tp1603
a(I2
I-4
tp1604
a(I3
I-4
tp1605
a(I3
I-3
tp1606
a(I4
I-3
tp1607
a(I4
I-4
tp1608
a(I5
I-4
tp1609
a(I6
I-4
tp1610
a(I6
I-5
tp1611
a(I7
I-5
tp1612
a(I8
I-5
tp1613
a(I8
I-4
tp1614
a(I9
I-4
tp1615
a(I9
I-5
tp1616
a(I9
I-6
tp1617
a(I9
I-7
tp1618
a(I10
I-7
tp1619
a(I11
I-7
tp1620
a(I12
I-7
tp1621
a(I12
I-6
tp1622
a(I11
I-6
tp1623
a(I10
I-6
tp1624
a(I10
I-5
tp1625
a(I11
I-5
tp1626
a(I11
I-4
tp1627
a(I11
I-3
tp1628
a(I11
I-2
tp1629
aI0
tp1630
a((lp1631
g3
a(I0
I-1
tp1632
a(I0
I-2
tp1633
a(I-1
I-2
tp1634
a(I-1
I-1
tp1635
a(I-1
I0
tp1636
a(I-1
I1
tp1637
a(I-2
I1
tp1638
a(I-3
I1
tp1639
a(I-3
I0
tp1640
a(I-4
I0
tp1641
a(I-4
I-1
tp1642
a(I-3
I-1
tp1643
a(I-3
I-2
tp1644
a(I-3
I-3
tp1645
a(I-3
I-4
tp1646
a(I-2
I-4
tp1647
a(I-2
I-3
tp1648
a(I-1
I-3
tp1649
a(I-1
I-4
tp1650
a(I0
I-4
tp1651
a(I1
I-4
tp1652
a(I1
I-5
tp1653
a(I0
I-5
tp1654
a(I-1
I-5
tp1655
a(I-1
I-6
tp1656
a(I-2
I-6
tp1657
a(I-2
I-7
tp1658
a(I-1
I-7
tp1659
a(I0
I-7
tp1660
a(I0
I-8
tp1661
a(I1
I-8
tp1662
a(I2
I-8
tp1663
a(I3
I-8
tp1664
a(I3
I-9
tp1665
a(I4
I-9
tp1666
aI0
tp1667
a((lp1668
g3
a(I1
I0
tp1669
a(I1
I1
tp1670
a(I1
I2
tp1671
a(I1
I3
tp1672
a(I2
I3
tp1673
a(I2
I4
tp1674
a(I3
I4
tp1675
a(I3
I3
tp1676
a(I3
I2
tp1677
a(I2
I2
tp1678
a(I2
I1
tp1679
a(I3
I1
tp1680
a(I3
I0
tp1681
a(I3
I-1
tp1682
a(I4
I-1
tp1683
a(I5
I-1
tp1684
a(I5
I0
tp1685
a(I6
I0
tp1686
a(I7
I0
tp1687
a(I8
I0
tp1688
a(I9
I0
tp1689
a(I10
I0
tp1690
a(I10
I1
tp1691
a(I9
I1
tp1692
a(I9
I2
tp1693
a(I9
I3
tp1694
a(I10
I3
tp1695
a(I10
I2
tp1696
a(I11
I2
tp1697
a(I11
I1
tp1698
a(I12
I1
tp1699
a(I12
I0
tp1700
a(I13
I0
tp1701
a(I14
I0
tp1702
a(I14
I1
tp1703
aI0
tp1704
a((lp1705
g3
a(I1
I0
tp1706
a(I2
I0
tp1707
a(I3
I0
tp1708
a(I3
I1
tp1709
a(I2
I1
tp1710
a(I1
I1
tp1711
a(I0
I1
tp1712
a(I0
I2
tp1713
a(I0
I3
tp1714
a(I0
I4
tp1715
a(I0
I5
tp1716
a(I-1
I5
tp1717
a(I-1
I6
tp1718
a(I-1
I7
tp1719
a(I-1
I8
tp1720
a(I0
I8
tp1721
a(I0
I7
tp1722
a(I0
I6
tp1723
a(I1
I6
tp1724
a(I2
I6
tp1725
a(I3
I6
tp1726
a(I3
I5
tp1727
a(I2
I5
tp1728
a(I1
I5
tp1729
a(I1
I4
tp1730
a(I1
I3
tp1731
a(I1
I2
tp1732
a(I2
I2
tp1733
a(I3
I2
tp1734
a(I4
I2
tp1735
a(I4
I1
tp1736
a(I4
I0
tp1737
a(I4
I-1
tp1738
a(I3
I-1
tp1739
a(I3
I-2
tp1740
aI0
tp1741
a((lp1742
g3
a(I0
I-1
tp1743
a(I-1
I-1
tp1744
a(I-1
I-2
tp1745
a(I-1
I-3
tp1746
a(I-2
I-3
tp1747
a(I-2
I-2
tp1748
a(I-2
I-1
tp1749
a(I-2
I0
tp1750
a(I-3
I0
tp1751
a(I-3
I1
tp1752
a(I-2
I1
tp1753
a(I-2
I2
tp1754
a(I-3
I2
tp1755
a(I-3
I3
tp1756
a(I-4
I3
tp1757
a(I-4
I4
tp1758
a(I-3
I4
tp1759
a(I-2
I4
tp1760
a(I-1
I4
tp1761
a(I0
I4
tp1762
a(I1
I4
tp1763
a(I1
I3
tp1764
a(I0
I3
tp1765
a(I-1
I3
tp1766
a(I-1
I2
tp1767
a(I0
I2
tp1768
a(I0
I1
tp1769
a(I1
I1
tp1770
a(I1
I0
tp1771
a(I1
I-1
tp1772
a(I2
I-1
tp1773
a(I3
I-1
tp1774
a(I3
I0
tp1775
a(I3
I1
tp1776
a(I2
I1
tp1777
aI0
tp1778
a((lp1779
g3
a(I0
I1
tp1780
a(I0
I2
tp1781
a(I0
I3
tp1782
a(I0
I4
tp1783
a(I1
I4
tp1784
a(I1
I3
tp1785
a(I1
I2
tp1786
a(I1
I1
tp1787
a(I1
I0
tp1788
a(I1
I-1
tp1789
a(I2
I-1
tp1790
a(I3
I-1
tp1791
a(I3
I0
tp1792
a(I4
I0
tp1793
a(I4
I1
tp1794
a(I3
I1
tp1795
a(I2
I1
tp1796
a(I2
I2
tp1797
a(I2
I3
tp1798
a(I3
I3
tp1799
a(I3
I2
tp1800
a(I4
I2
tp1801
a(I5
I2
tp1802
a(I5
I1
tp1803
a(I5
I0
tp1804
a(I6
I0
tp1805
a(I6
I1
tp1806
a(I7
I1
tp1807
a(I8
I1
tp1808
a(I8
I2
tp1809
a(I9
I2
tp1810
a(I10
I2
tp1811
a(I10
I3
tp1812
a(I10
I4
tp1813
a(I9
I4
tp1814
aI0
tp1815
a((lp1816
g3
a(I1
I0
tp1817
a(I1
I-1
tp1818
a(I2
I-1
tp1819
a(I3
I-1
tp1820
a(I3
I0
tp1821
a(I4
I0
tp1822
a(I5
I0
tp1823
a(I5
I1
tp1824
a(I4
I1
tp1825
a(I3
I1
tp1826
a(I2
I1
tp1827
a(I2
I2
tp1828
a(I2
I3
tp1829
a(I1
I3
tp1830
a(I1
I2
tp1831
a(I0
I2
tp1832
a(I-1
I2
tp1833
a(I-1
I1
tp1834
a(I-2
I1
tp1835
a(I-2
I0
tp1836
a(I-3
I0
tp1837
a(I-3
I1
tp1838
a(I-3
I2
tp1839
a(I-3
I3
tp1840
a(I-4
I3
tp1841
a(I-5
I3
tp1842
a(I-5
I4
tp1843
a(I-6
I4
tp1844
a(I-7
I4
tp1845
a(I-7
I3
tp1846
a(I-8
I3
tp1847
a(I-9
I3
tp1848
a(I-9
I4
tp1849
a(I-10
I4
tp1850
a(I-10
I3
tp1851
aI0
tp1852
a((lp1853
g3
a(I1
I0
tp1854
a(I1
I1
tp1855
a(I1
I2
tp1856
a(I2
I2
tp1857
a(I2
I1
tp1858
a(I3
I1
tp1859
a(I3
I2
tp1860
a(I3
I3
tp1861
a(I3
I4
tp1862
a(I4
I4
tp1863
a(I4
I3
tp1864
a(I4
I2
tp1865
a(I5
I2
tp1866
a(I6
I2
tp1867
a(I7
I2
tp1868
a(I8
I2
tp1869
a(I9
I2
tp1870
a(I9
I3
tp1871
a(I8
I3
tp1872
a(I7
I3
tp1873
a(I6
I3
tp1874
a(I6
I4
tp1875
a(I5
I4
tp1876
a(I5
I5
tp1877
a(I6
I5
tp1878
a(I7
I5
tp1879
a(I7
I6
tp1880
a(I6
I6
tp1881
a(I5
I6
tp1882
a(I5
I7
tp1883
a(I5
I8
tp1884
a(I5
I9
tp1885
a(I6
I9
tp1886
a(I7
I9
tp1887
a(I7
I8
tp1888
aI0
tp1889
a((lp1890
g3
a(I1
I0
tp1891
a(I1
I-1
tp1892
a(I0
I-1
tp1893
a(I0
I-2
tp1894
a(I0
I-3
tp1895
a(I1
I-3
tp1896
a(I2
I-3
tp1897
a(I2
I-4
tp1898
a(I3
I-4
tp1899
a(I3
I-5
tp1900
a(I2
I-5
tp1901
a(I2
I-6
tp1902
a(I1
I-6
tp1903
a(I0
I-6
tp1904
a(I0
I-7
tp1905
a(I1
I-7
tp1906
a(I2
I-7
tp1907
a(I2
I-8
tp1908
a(I1
I-8
tp1909
a(I1
I-9
tp1910
a(I0
I-9
tp1911
a(I-1
I-9
tp1912
a(I-1
I-10
tp1913
a(I-2
I-10
tp1914
a(I-3
I-10
tp1915
a(I-4
I-10
tp1916
a(I-4
I-9
tp1917
a(I-5
I-9
tp1918
a(I-6
I-9
tp1919
a(I-7
I-9
tp1920
a(I-7
I-10
tp1921
a(I-6
I-10
tp1922
a(I-6
I-11
tp1923
a(I-7
I-11
tp1924
a(I-7
I-12
tp1925
aI0
tp1926
a((lp1927
g3
a(I1
I0
tp1928
a(I2
I0
tp1929
a(I2
I1
tp1930
a(I1
I1
tp1931
a(I1
I2
tp1932
a(I2
I2
tp1933
a(I3
I2
tp1934
a(I3
I1
tp1935
a(I3
I0
tp1936
a(I3
I-1
tp1937
a(I4
I-1
tp1938
a(I4
I-2
tp1939
a(I5
I-2
tp1940
a(I6
I-2
tp1941
a(I6
I-3
tp1942
a(I6
I-4
tp1943
a(I7
I-4
tp1944
a(I7
I-5
tp1945
a(I6
I-5
tp1946
a(I6
I-6
tp1947
a(I5
I-6
tp1948
a(I4
I-6
tp1949
a(I4
I-7
tp1950
a(I3
I-7
tp1951
a(I3
I-8
tp1952
a(I4
I-8
tp1953
a(I4
I-9
tp1954
a(I3
I-9
tp1955
a(I2
I-9
tp1956
a(I2
I-10
tp1957
a(I1
I-10
tp1958
a(I1
I-9
tp1959
a(I1
I-8
tp1960
a(I2
I-8
tp1961
a(I2
I-7
tp1962
aI0
tp1963
a((lp1964
g3
a(I-1
I0
tp1965
a(I-2
I0
tp1966
a(I-2
I1
tp1967
a(I-2
I2
tp1968
a(I-2
I3
tp1969
a(I-2
I4
tp1970
a(I-3
I4
tp1971
a(I-3
I3
tp1972
a(I-3
I2
tp1973
a(I-4
I2
tp1974
a(I-4
I3
tp1975
a(I-4
I4
tp1976
a(I-4
I5
tp1977
a(I-4
I6
tp1978
a(I-3
I6
tp1979
a(I-3
I7
tp1980
a(I-3
I8
tp1981
a(I-4
I8
tp1982
a(I-4
I7
tp1983
a(I-5
I7
tp1984
a(I-5
I8
tp1985
a(I-5
I9
tp1986
a(I-4
I9
tp1987
a(I-4
I10
tp1988
a(I-5
I10
tp1989
a(I-5
I11
tp1990
a(I-6
I11
tp1991
a(I-7
I11
tp1992
a(I-8
I11
tp1993
a(I-8
I10
tp1994
a(I-8
I9
tp1995
a(I-7
I9
tp1996
a(I-6
I9
tp1997
a(I-6
I8
tp1998
a(I-6
I7
tp1999
aI0
tp2000
a((lp2001
g3
a(I0
I-1
tp2002
a(I-1
I-1
tp2003
a(I-1
I-2
tp2004
a(I-1
I-3
tp2005
a(I-2
I-3
tp2006
a(I-2
I-4
tp2007
a(I-2
I-5
tp2008
a(I-1
I-5
tp2009
a(I-1
I-4
tp2010
a(I0
I-4
tp2011
a(I1
I-4
tp2012
a(I1
I-3
tp2013
a(I0
I-3
tp2014
a(I0
I-2
tp2015
a(I1
I-2
tp2016
a(I1
I-1
tp2017
a(I1
I0
tp2018
a(I2
I0
tp2019
a(I3
I0
tp2020
a(I4
I0
tp2021
a(I5
I0
tp2022
a(I5
I1
tp2023
a(I6
I1
tp2024
a(I6
I2
tp2025
a(I6
I3
tp2026
a(I6
I4
tp2027
a(I6
I5
tp2028
a(I6
I6
tp2029
a(I5
I6
tp2030
a(I5
I7
tp2031
a(I6
I7
tp2032
a(I6
I8
tp2033
a(I6
I9
tp2034
a(I5
I9
tp2035
a(I5
I8
tp2036
aI0
tp2037
a((lp2038
g3
a(I-1
I0
tp2039
a(I-1
I1
tp2040
a(I-2
I1
tp2041
a(I-3
I1
tp2042
a(I-4
I1
tp2043
a(I-5
I1
tp2044
a(I-5
I0
tp2045
a(I-6
I0
tp2046
a(I-6
I1
tp2047
a(I-7
I1
tp2048
a(I-7
I2
tp2049
a(I-6
I2
tp2050
a(I-5
I2
tp2051
a(I-5
I3
tp2052
a(I-6
I3
tp2053
a(I-7
I3
tp2054
a(I-7
I4
tp2055
a(I-7
I5
tp2056
a(I-6
I5
tp2057
a(I-5
I5
tp2058
a(I-4
I5
tp2059
a(I-4
I4
tp2060
a(I-4
I3
tp2061
a(I-3
I3
tp2062
a(I-3
I2
tp2063
a(I-2
I2
tp2064
a(I-1
I2
tp2065
a(I0
I2
tp2066
a(I0
I3
tp2067
a(I0
I4
tp2068
a(I1
I4
tp2069
a(I1
I3
tp2070
a(I1
I2
tp2071
a(I1
I1
tp2072
a(I0
I1
tp2073
aI0
tp2074
a((lp2075
g3
a(I0
I-1
tp2076
a(I-1
I-1
tp2077
a(I-2
I-1
tp2078
a(I-2
I0
tp2079
a(I-1
I0
tp2080
a(I-1
I1
tp2081
a(I0
I1
tp2082
a(I0
I2
tp2083
a(I-1
I2
tp2084
a(I-2
I2
tp2085
a(I-2
I3
tp2086
a(I-2
I4
tp2087
a(I-1
I4
tp2088
a(I-1
I5
tp2089
a(I-1
I6
tp2090
a(I-2
I6
tp2091
a(I-2
I5
tp2092
a(I-3
I5
tp2093
a(I-3
I6
tp2094
a(I-3
I7
tp2095
a(I-4
I7
tp2096
a(I-4
I8
tp2097
a(I-5
I8
tp2098
a(I-5
I9
tp2099
a(I-4
I9
tp2100
a(I-4
I10
tp2101
a(I-4
I11
tp2102
a(I-3
I11
tp2103
a(I-3
I10
tp2104
a(I-2
I10
tp2105
a(I-2
I11
tp2106
a(I-2
I12
tp2107
a(I-2
I13
tp2108
a(I-2
I14
tp2109
a(I-1
I14
tp2110
aI0
tp2111
a((lp2112
g3
a(I1
I0
tp2113
a(I1
I-1
tp2114
a(I0
I-1
tp2115
a(I0
I-2
tp2116
a(I0
I-3
tp2117
a(I0
I-4
tp2118
a(I0
I-5
tp2119
a(I0
I-6
tp2120
a(I-1
I-6
tp2121
a(I-2
I-6
tp2122
a(I-2
I-7
tp2123
a(I-2
I-8
tp2124
a(I-1
I-8
tp2125
a(I-1
I-7
tp2126
a(I0
I-7
tp2127
a(I0
I-8
tp2128
a(I1
I-8
tp2129
a(I1
I-7
tp2130
a(I2
I-7
tp2131
a(I2
I-6
tp2132
a(I3
I-6
tp2133
a(I3
I-7
tp2134
a(I3
I-8
tp2135
a(I2
I-8
tp2136
a(I2
I-9
tp2137
a(I2
I-10
tp2138
a(I3
I-10
tp2139
a(I4
I-10
tp2140
a(I4
I-11
tp2141
a(I3
I-11
tp2142
a(I3
I-12
tp2143
a(I2
I-12
tp2144
a(I2
I-11
tp2145
a(I1
I-11
tp2146
a(I1
I-12
tp2147
aI0
tp2148
a((lp2149
g3
a(I1
I0
tp2150
a(I1
I-1
tp2151
a(I0
I-1
tp2152
a(I0
I-2
tp2153
a(I0
I-3
tp2154
a(I0
I-4
tp2155
a(I1
I-4
tp2156
a(I2
I-4
tp2157
a(I3
I-4
tp2158
a(I4
I-4
tp2159
a(I5
I-4
tp2160
a(I6
I-4
tp2161
a(I7
I-4
tp2162
a(I7
I-5
tp2163
a(I6
I-5
tp2164
a(I6
I-6
tp2165
a(I5
I-6
tp2166
a(I5
I-5
tp2167
a(I4
I-5
tp2168
a(I4
I-6
tp2169
a(I4
I-7
tp2170
a(I4
I-8
tp2171
a(I5
I-8
tp2172
a(I5
I-7
tp2173
a(I6
I-7
tp2174
a(I6
I-8
tp2175
a(I7
I-8
tp2176
a(I7
I-7
tp2177
a(I8
I-7
tp2178
a(I9
I-7
tp2179
a(I9
I-6
tp2180
a(I10
I-6
tp2181
a(I11
I-6
tp2182
a(I12
I-6
tp2183
a(I12
I-7
tp2184
aI0
tp2185
a((lp2186
g3
a(I0
I-1
tp2187
a(I0
I-2
tp2188
a(I1
I-2
tp2189
a(I2
I-2
tp2190
a(I2
I-3
tp2191
a(I2
I-4
tp2192
a(I3
I-4
tp2193
a(I3
I-5
tp2194
a(I3
I-6
tp2195
a(I4
I-6
tp2196
a(I4
I-5
tp2197
a(I5
I-5
tp2198
a(I5
I-6
tp2199
a(I6
I-6
tp2200
a(I7
I-6
tp2201
a(I7
I-7
tp2202
a(I6
I-7
tp2203
a(I5
I-7
tp2204
a(I4
I-7
tp2205
a(I4
I-8
tp2206
a(I4
I-9
tp2207
a(I4
I-10
tp2208
a(I4
I-11
tp2209
a(I4
I-12
tp2210
a(I5
I-12
tp2211
a(I6
I-12
tp2212
a(I6
I-13
tp2213
a(I5
I-13
tp2214
a(I4
I-13
tp2215
a(I3
I-13
tp2216
a(I3
I-12
tp2217
a(I3
I-11
tp2218
a(I2
I-11
tp2219
a(I1
I-11
tp2220
a(I0
I-11
tp2221
aI0
tp2222
a((lp2223
g3
a(I0
I1
tp2224
a(I-1
I1
tp2225
a(I-1
I2
tp2226
a(I-2
I2
tp2227
a(I-3
I2
tp2228
a(I-3
I3
tp2229
a(I-2
I3
tp2230
a(I-1
I3
tp2231
a(I0
I3
tp2232
a(I1
I3
tp2233
a(I2
I3
tp2234
a(I2
I2
tp2235
a(I1
I2
tp2236
a(I1
I1
tp2237
a(I1
I0
tp2238
a(I2
I0
tp2239
a(I3
I0
tp2240
a(I3
I-1
tp2241
a(I4
I-1
tp2242
a(I5
I-1
tp2243
a(I5
I-2
tp2244
a(I4
I-2
tp2245
a(I4
I-3
tp2246
a(I4
I-4
tp2247
a(I4
I-5
tp2248
a(I3
I-5
tp2249
a(I3
I-4
tp2250
a(I3
I-3
tp2251
a(I3
I-2
tp2252
a(I2
I-2
tp2253
a(I1
I-2
tp2254
a(I1
I-1
tp2255
a(I0
I-1
tp2256
a(I-1
I-1
tp2257
a(I-1
I0
tp2258
aI0
tp2259
a((lp2260
g3
a(I0
I-1
tp2261
a(I1
I-1
tp2262
a(I2
I-1
tp2263
a(I3
I-1
tp2264
a(I4
I-1
tp2265
a(I4
I0
tp2266
a(I3
I0
tp2267
a(I3
I1
tp2268
a(I3
I2
tp2269
a(I3
I3
tp2270
a(I2
I3
tp2271
a(I2
I4
tp2272
a(I1
I4
tp2273
a(I0
I4
tp2274
a(I0
I3
tp2275
a(I-1
I3
tp2276
a(I-1
I2
tp2277
a(I-1
I1
tp2278
a(I-1
I0
tp2279
a(I-1
I-1
tp2280
a(I-1
I-2
tp2281
a(I-1
I-3
tp2282
a(I-2
I-3
tp2283
a(I-2
I-2
tp2284
a(I-2
I-1
tp2285
a(I-2
I0
tp2286
a(I-3
I0
tp2287
a(I-3
I-1
tp2288
a(I-4
I-1
tp2289
a(I-5
I-1
tp2290
a(I-6
I-1
tp2291
a(I-6
I0
tp2292
a(I-6
I1
tp2293
a(I-7
I1
tp2294
a(I-7
I2
tp2295
aI0
tp2296
a((lp2297
g3
a(I1
I0
tp2298
a(I1
I1
tp2299
a(I2
I1
tp2300
a(I2
I2
tp2301
a(I2
I3
tp2302
a(I2
I4
tp2303
a(I2
I5
tp2304
a(I2
I6
tp2305
a(I2
I7
tp2306
a(I2
I8
tp2307
a(I3
I8
tp2308
a(I3
I7
tp2309
a(I3
I6
tp2310
a(I3
I5
tp2311
a(I4
I5
tp2312
a(I5
I5
tp2313
a(I5
I4
tp2314
a(I5
I3
tp2315
a(I5
I2
tp2316
a(I5
I1
tp2317
a(I6
I1
tp2318
a(I6
I2
tp2319
a(I6
I3
tp2320
a(I6
I4
tp2321
a(I7
I4
tp2322
a(I7
I3
tp2323
a(I8
I3
tp2324
a(I8
I4
tp2325
a(I8
I5
tp2326
a(I9
I5
tp2327
a(I9
I6
tp2328
a(I9
I7
tp2329
a(I9
I8
tp2330
a(I8
I8
tp2331
a(I8
I7
tp2332
aI0
tp2333
a((lp2334
g3
a(I0
I-1
tp2335
a(I-1
I-1
tp2336
a(I-1
I-2
tp2337
a(I-2
I-2
tp2338
a(I-3
I-2
tp2339
a(I-4
I-2
tp2340
a(I-4
I-3
tp2341
a(I-3
I-3
tp2342
a(I-2
I-3
tp2343
a(I-2
I-4
tp2344
a(I-2
I-5
tp2345
a(I-3
I-5
tp2346
a(I-4
I-5
tp2347
a(I-4
I-6
tp2348
a(I-5
I-6
tp2349
a(I-5
I-7
tp2350
a(I-4
I-7
tp2351
a(I-4
I-8
tp2352
a(I-5
I-8
tp2353
a(I-6
I-8
tp2354
a(I-7
I-8
tp2355
a(I-7
I-9
tp2356
a(I-8
I-9
tp2357
a(I-8
I-8
tp2358
a(I-8
I-7
tp2359
a(I-8
I-6
tp2360
a(I-9
I-6
tp2361
a(I-10
I-6
tp2362
a(I-10
I-5
tp2363
a(I-11
I-5
tp2364
a(I-11
I-6
tp2365
a(I-12
I-6
tp2366
a(I-13
I-6
tp2367
a(I-13
I-5
tp2368
a(I-12
I-5
tp2369
aI0
tp2370
a((lp2371
g3
a(I-1
I0
tp2372
a(I-2
I0
tp2373
a(I-2
I-1
tp2374
a(I-2
I-2
tp2375
a(I-1
I-2
tp2376
a(I0
I-2
tp2377
a(I1
I-2
tp2378
a(I1
I-1
tp2379
a(I2
I-1
tp2380
a(I2
I0
tp2381
a(I2
I1
tp2382
a(I3
I1
tp2383
a(I4
I1
tp2384
a(I4
I2
tp2385
a(I3
I2
tp2386
a(I3
I3
tp2387
a(I4
I3
tp2388
a(I5
I3
tp2389
a(I6
I3
tp2390
a(I7
I3
tp2391
a(I7
I4
tp2392
a(I6
I4
tp2393
a(I5
I4
tp2394
a(I4
I4
tp2395
a(I3
I4
tp2396
a(I2
I4
tp2397
a(I1
I4
tp2398
a(I0
I4
tp2399
a(I-1
I4
tp2400
a(I-1
I5
tp2401
a(I-1
I6
tp2402
a(I-2
I6
tp2403
a(I-2
I5
tp2404
a(I-3
I5
tp2405
a(I-3
I6
tp2406
aI0
tp2407
a((lp2408
g3
a(I0
I1
tp2409
a(I-1
I1
tp2410
a(I-1
I2
tp2411
a(I0
I2
tp2412
a(I0
I3
tp2413
a(I0
I4
tp2414
a(I0
I5
tp2415
a(I-1
I5
tp2416
a(I-1
I4
tp2417
a(I-1
I3
tp2418
a(I-2
I3
tp2419
a(I-2
I4
tp2420
a(I-3
I4
tp2421
a(I-4
I4
tp2422
a(I-4
I5
tp2423
a(I-4
I6
tp2424
a(I-5
I6
tp2425
a(I-6
I6
tp2426
a(I-6
I5
tp2427
a(I-5
I5
tp2428
a(I-5
I4
tp2429
a(I-6
I4
tp2430
a(I-6
I3
tp2431
a(I-5
I3
tp2432
a(I-4
I3
tp2433
a(I-3
I3
tp2434
a(I-3
I2
tp2435
a(I-4
I2
tp2436
a(I-5
I2
tp2437
a(I-5
I1
tp2438
a(I-4
I1
tp2439
a(I-3
I1
tp2440
a(I-2
I1
tp2441
a(I-2
I0
tp2442
a(I-2
I-1
tp2443
aI0
tp2444
a((lp2445
g3
a(I0
I-1
tp2446
a(I1
I-1
tp2447
a(I1
I-2
tp2448
a(I1
I-3
tp2449
a(I1
I-4
tp2450
a(I2
I-4
tp2451
a(I2
I-5
tp2452
a(I1
I-5
tp2453
a(I0
I-5
tp2454
a(I0
I-4
tp2455
a(I-1
I-4
tp2456
a(I-1
I-3
tp2457
a(I-2
I-3
tp2458
a(I-2
I-2
tp2459
a(I-3
I-2
tp2460
a(I-4
I-2
tp2461
a(I-5
I-2
tp2462
a(I-5
I-1
tp2463
a(I-6
I-1
tp2464
a(I-6
I-2
tp2465
a(I-7
I-2
tp2466
a(I-7
I-1
tp2467
a(I-8
I-1
tp2468
a(I-8
I-2
tp2469
a(I-9
I-2
tp2470
a(I-10
I-2
tp2471
a(I-11
I-2
tp2472
a(I-11
I-3
tp2473
a(I-10
I-3
tp2474
a(I-9
I-3
tp2475
a(I-8
I-3
tp2476
a(I-7
I-3
tp2477
a(I-6
I-3
tp2478
a(I-6
I-4
tp2479
a(I-5
I-4
tp2480
aI0
tp2481
a((lp2482
g3
a(I0
I1
tp2483
a(I1
I1
tp2484
a(I1
I0
tp2485
a(I1
I-1
tp2486
a(I0
I-1
tp2487
a(I0
I-2
tp2488
a(I0
I-3
tp2489
a(I0
I-4
tp2490
a(I-1
I-4
tp2491
a(I-1
I-3
tp2492
a(I-2
I-3
tp2493
a(I-2
I-4
tp2494
a(I-2
I-5
tp2495
a(I-3
I-5
tp2496
a(I-3
I-6
tp2497
a(I-2
I-6
tp2498
a(I-1
I-6
tp2499
a(I0
I-6
tp2500
a(I1
I-6
tp2501
a(I1
I-5
tp2502
a(I1
I-4
tp2503
a(I2
I-4
tp2504
a(I3
I-4
tp2505
a(I3
I-3
tp2506
a(I4
I-3
tp2507
a(I4
I-2
tp2508
a(I3
I-2
tp2509
a(I2
I-2
tp2510
a(I2
I-1
tp2511
a(I2
I0
tp2512
a(I3
I0
tp2513
a(I3
I1
tp2514
a(I3
I2
tp2515
a(I2
I2
tp2516
a(I2
I3
tp2517
aI0
tp2518
a((lp2519
g3
a(I0
I1
tp2520
a(I-1
I1
tp2521
a(I-1
I2
tp2522
a(I-2
I2
tp2523
a(I-2
I1
tp2524
a(I-2
I0
tp2525
a(I-1
I0
tp2526
a(I-1
I-1
tp2527
a(I-2
I-1
tp2528
a(I-3
I-1
tp2529
a(I-3
I0
tp2530
a(I-4
I0
tp2531
a(I-4
I1
tp2532
a(I-5
I1
tp2533
a(I-5
I0
tp2534
a(I-6
I0
tp2535
a(I-6
I1
tp2536
a(I-7
I1
tp2537
a(I-8
I1
tp2538
a(I-8
I0
tp2539
a(I-9
I0
tp2540
a(I-10
I0
tp2541
a(I-10
I-1
tp2542
a(I-9
I-1
tp2543
a(I-8
I-1
tp2544
a(I-7
I-1
tp2545
a(I-7
I-2
tp2546
a(I-8
I-2
tp2547
a(I-8
I-3
tp2548
a(I-7
I-3
tp2549
a(I-6
I-3
tp2550
a(I-5
I-3
tp2551
a(I-5
I-2
tp2552
a(I-5
I-1
tp2553
a(I-4
I-1
tp2554
aI0
tp2555
a((lp2556
g3
a(I1
I0
tp2557
a(I1
I1
tp2558
a(I0
I1
tp2559
a(I0
I2
tp2560
a(I1
I2
tp2561
a(I2
I2
tp2562
a(I3
I2
tp2563
a(I3
I1
tp2564
a(I2
I1
tp2565
a(I2
I0
tp2566
a(I3
I0
tp2567
a(I3
I-1
tp2568
a(I4
I-1
tp2569
a(I5
I-1
tp2570
a(I5
I-2
tp2571
a(I5
I-3
tp2572
a(I4
I-3
tp2573
a(I3
I-3
tp2574
a(I3
I-4
tp2575
a(I2
I-4
tp2576
a(I2
I-5
tp2577
a(I2
I-6
tp2578
a(I3
I-6
tp2579
a(I3
I-7
tp2580
a(I4
I-7
tp2581
a(I5
I-7
tp2582
a(I6
I-7
tp2583
a(I6
I-8
tp2584
a(I6
I-9
tp2585
a(I7
I-9
tp2586
a(I7
I-10
tp2587
a(I6
I-10
tp2588
a(I6
I-11
tp2589
a(I5
I-11
tp2590
a(I5
I-12
tp2591
aI0
tp2592
a((lp2593
g3
a(I0
I1
tp2594
a(I-1
I1
tp2595
a(I-1
I0
tp2596
a(I-1
I-1
tp2597
a(I-1
I-2
tp2598
a(I-2
I-2
tp2599
a(I-3
I-2
tp2600
a(I-4
I-2
tp2601
a(I-5
I-2
tp2602
a(I-6
I-2
tp2603
a(I-6
I-3
tp2604
a(I-6
I-4
tp2605
a(I-7
I-4
tp2606
a(I-8
I-4
tp2607
a(I-8
I-3
tp2608
a(I-9
I-3
tp2609
a(I-9
I-4
tp2610
a(I-10
I-4
tp2611
a(I-11
I-4
tp2612
a(I-11
I-5
tp2613
a(I-10
I-5
tp2614
a(I-9
I-5
tp2615
a(I-8
I-5
tp2616
a(I-7
I-5
tp2617
a(I-7
I-6
tp2618
a(I-7
I-7
tp2619
a(I-8
I-7
tp2620
a(I-8
I-8
tp2621
a(I-9
I-8
tp2622
a(I-10
I-8
tp2623
a(I-10
I-7
tp2624
a(I-10
I-6
tp2625
a(I-11
I-6
tp2626
a(I-11
I-7
tp2627
a(I-11
I-8
tp2628
aI0
tp2629
a((lp2630
g3
a(I0
I1
tp2631
a(I1
I1
tp2632
a(I1
I0
tp2633
a(I1
I-1
tp2634
a(I2
I-1
tp2635
a(I3
I-1
tp2636
a(I3
I-2
tp2637
a(I2
I-2
tp2638
a(I1
I-2
tp2639
a(I1
I-3
tp2640
a(I0
I-3
tp2641
a(I-1
I-3
tp2642
a(I-2
I-3
tp2643
a(I-2
I-4
tp2644
a(I-1
I-4
tp2645
a(I-1
I-5
tp2646
a(I0
I-5
tp2647
a(I0
I-6
tp2648
a(I0
I-7
tp2649
a(I0
I-8
tp2650
a(I1
I-8
tp2651
a(I1
I-7
tp2652
a(I2
I-7
tp2653
a(I2
I-8
tp2654
a(I3
I-8
tp2655
a(I4
I-8
tp2656
a(I5
I-8
tp2657
a(I5
I-7
tp2658
a(I4
I-7
tp2659
a(I3
I-7
tp2660
a(I3
I-6
tp2661
a(I2
I-6
tp2662
a(I1
I-6
tp2663
a(I1
I-5
tp2664
a(I2
I-5
tp2665
aI0
tp2666
a((lp2667
g3
a(I-1
I0
tp2668
a(I-2
I0
tp2669
a(I-2
I1
tp2670
a(I-3
I1
tp2671
a(I-4
I1
tp2672
a(I-4
I0
tp2673
a(I-4
I-1
tp2674
a(I-4
I-2
tp2675
a(I-5
I-2
tp2676
a(I-5
I-3
tp2677
a(I-6
I-3
tp2678
a(I-6
I-4
tp2679
a(I-6
I-5
tp2680
a(I-6
I-6
tp2681
a(I-6
I-7
tp2682
a(I-6
I-8
tp2683
a(I-6
I-9
tp2684
a(I-7
I-9
tp2685
a(I-7
I-8
tp2686
a(I-8
I-8
tp2687
a(I-9
I-8
tp2688
a(I-9
I-7
tp2689
a(I-9
I-6
tp2690
a(I-9
I-5
tp2691
a(I-9
I-4
tp2692
a(I-8
I-4
tp2693
a(I-8
I-5
tp2694
a(I-8
I-6
tp2695
a(I-8
I-7
tp2696
a(I-7
I-7
tp2697
a(I-7
I-6
tp2698
a(I-7
I-5
tp2699
a(I-7
I-4
tp2700
a(I-7
I-3
tp2701
a(I-7
I-2
tp2702
aI0
tp2703
a((lp2704
g3
a(I-1
I0
tp2705
a(I-1
I1
tp2706
a(I-1
I2
tp2707
a(I-2
I2
tp2708
a(I-3
I2
tp2709
a(I-3
I1
tp2710
a(I-2
I1
tp2711
a(I-2
I0
tp2712
a(I-2
I-1
tp2713
a(I-2
I-2
tp2714
a(I-2
I-3
tp2715
a(I-3
I-3
tp2716
a(I-3
I-2
tp2717
a(I-4
I-2
tp2718
a(I-4
I-3
tp2719
a(I-5
I-3
tp2720
a(I-5
I-2
tp2721
a(I-6
I-2
tp2722
a(I-6
I-3
tp2723
a(I-7
I-3
tp2724
a(I-8
I-3
tp2725
a(I-8
I-4
tp2726
a(I-7
I-4
tp2727
a(I-6
I-4
tp2728
a(I-6
I-5
tp2729
a(I-6
I-6
tp2730
a(I-5
I-6
tp2731
a(I-4
I-6
tp2732
a(I-3
I-6
tp2733
a(I-3
I-5
tp2734
a(I-2
I-5
tp2735
a(I-2
I-6
tp2736
a(I-2
I-7
tp2737
a(I-1
I-7
tp2738
a(I-1
I-6
tp2739
aI0
tp2740
a((lp2741
g3
a(I1
I0
tp2742
a(I1
I-1
tp2743
a(I0
I-1
tp2744
a(I0
I-2
tp2745
a(I1
I-2
tp2746
a(I2
I-2
tp2747
a(I2
I-1
tp2748
a(I2
I0
tp2749
a(I2
I1
tp2750
a(I1
I1
tp2751
a(I0
I1
tp2752
a(I0
I2
tp2753
a(I1
I2
tp2754
a(I2
I2
tp2755
a(I3
I2
tp2756
a(I4
I2
tp2757
a(I4
I3
tp2758
a(I3
I3
tp2759
a(I2
I3
tp2760
a(I2
I4
tp2761
a(I3
I4
tp2762
a(I4
I4
tp2763
a(I5
I4
tp2764
a(I6
I4
tp2765
a(I6
I5
tp2766
a(I7
I5
tp2767
a(I7
I6
tp2768
a(I7
I7
tp2769
a(I8
I7
tp2770
a(I9
I7
tp2771
a(I10
I7
tp2772
a(I11
I7
tp2773
a(I11
I8
tp2774
a(I10
I8
tp2775
a(I10
I9
tp2776
aI0
tp2777
a((lp2778
g3
a(I1
I0
tp2779
a(I2
I0
tp2780
a(I2
I1
tp2781
a(I1
I1
tp2782
a(I1
I2
tp2783
a(I2
I2
tp2784
a(I3
I2
tp2785
a(I4
I2
tp2786
a(I4
I1
tp2787
a(I4
I0
tp2788
a(I5
I0
tp2789
a(I6
I0
tp2790
a(I6
I-1
tp2791
a(I7
I-1
tp2792
a(I7
I0
tp2793
a(I8
I0
tp2794
a(I9
I0
tp2795
a(I9
I1
tp2796
a(I8
I1
tp2797
a(I8
I2
tp2798
a(I9
I2
tp2799
a(I9
I3
tp2800
a(I9
I4
tp2801
a(I9
I5
tp2802
a(I8
I5
tp2803
a(I7
I5
tp2804
a(I7
I4
tp2805
a(I7
I3
tp2806
a(I6
I3
tp2807
a(I6
I2
tp2808
a(I7
I2
tp2809
a(I7
I1
tp2810
a(I6
I1
tp2811
a(I5
I1
tp2812
a(I5
I2
tp2813
aI0
tp2814
a((lp2815
g3
a(I0
I-1
tp2816
a(I-1
I-1
tp2817
a(I-1
I-2
tp2818
a(I0
I-2
tp2819
a(I0
I-3
tp2820
a(I0
I-4
tp2821
a(I-1
I-4
tp2822
a(I-2
I-4
tp2823
a(I-2
I-5
tp2824
a(I-1
I-5
tp2825
a(I-1
I-6
tp2826
a(I-2
I-6
tp2827
a(I-2
I-7
tp2828
a(I-1
I-7
tp2829
a(I0
I-7
tp2830
a(I1
I-7
tp2831
a(I1
I-6
tp2832
a(I2
I-6
tp2833
a(I2
I-5
tp2834
a(I2
I-4
tp2835
a(I2
I-3
tp2836
a(I3
I-3
tp2837
a(I3
I-2
tp2838
a(I2
I-2
tp2839
a(I2
I-1
tp2840
a(I3
I-1
tp2841
a(I3
I0
tp2842
a(I4
I0
tp2843
a(I4
I-1
tp2844
a(I5
I-1
tp2845
a(I5
I-2
tp2846
a(I5
I-3
tp2847
a(I4
I-3
tp2848
a(I4
I-4
tp2849
a(I3
I-4
tp2850
aI0
tp2851
a((lp2852
g3
a(I0
I-1
tp2853
a(I-1
I-1
tp2854
a(I-2
I-1
tp2855
a(I-2
I-2
tp2856
a(I-3
I-2
tp2857
a(I-4
I-2
tp2858
a(I-4
I-3
tp2859
a(I-4
I-4
tp2860
a(I-4
I-5
tp2861
a(I-5
I-5
tp2862
a(I-5
I-6
tp2863
a(I-6
I-6
tp2864
a(I-6
I-5
tp2865
a(I-6
I-4
tp2866
a(I-7
I-4
tp2867
a(I-7
I-3
tp2868
a(I-7
I-2
tp2869
a(I-7
I-1
tp2870
a(I-6
I-1
tp2871
a(I-6
I0
tp2872
a(I-5
I0
tp2873
a(I-4
I0
tp2874
a(I-3
I0
tp2875
a(I-3
I1
tp2876
a(I-3
I2
tp2877
a(I-2
I2
tp2878
a(I-1
I2
tp2879
a(I-1
I1
tp2880
a(I0
I1
tp2881
a(I0
I2
tp2882
a(I0
I3
tp2883
a(I1
I3
tp2884
a(I1
I2
tp2885
a(I2
I2
tp2886
a(I2
I1
tp2887
aI0
tp2888
a((lp2889
g3
a(I0
I1
tp2890
a(I-1
I1
tp2891
a(I-1
I2
tp2892
a(I-1
I3
tp2893
a(I-1
I4
tp2894
a(I-1
I5
tp2895
a(I0
I5
tp2896
a(I0
I6
tp2897
a(I0
I7
tp2898
a(I-1
I7
tp2899
a(I-2
I7
tp2900
a(I-2
I6
tp2901
a(I-2
I5
tp2902
a(I-2
I4
tp2903
a(I-2
I3
tp2904
a(I-2
I2
tp2905
a(I-3
I2
tp2906
a(I-4
I2
tp2907
a(I-4
I3
tp2908
a(I-3
I3
tp2909
a(I-3
I4
tp2910
a(I-3
I5
tp2911
a(I-3
I6
tp2912
a(I-4
I6
tp2913
a(I-4
I5
tp2914
a(I-4
I4
tp2915
a(I-5
I4
tp2916
a(I-5
I5
tp2917
a(I-5
I6
tp2918
a(I-6
I6
tp2919
a(I-7
I6
tp2920
a(I-8
I6
tp2921
a(I-9
I6
tp2922
a(I-9
I5
tp2923
a(I-10
I5
tp2924
aI0
tp2925
a((lp2926
g3
a(I-1
I0
tp2927
a(I-2
I0
tp2928
a(I-2
I-1
tp2929
a(I-2
I-2
tp2930
a(I-2
I-3
tp2931
a(I-1
I-3
tp2932
a(I0
I-3
tp2933
a(I0
I-4
tp2934
a(I1
I-4
tp2935
a(I1
I-5
tp2936
a(I1
I-6
tp2937
a(I0
I-6
tp2938
a(I0
I-5
tp2939
a(I-1
I-5
tp2940
a(I-2
I-5
tp2941
a(I-3
I-5
tp2942
a(I-3
I-4
tp2943
a(I-4
I-4
tp2944
a(I-4
I-5
tp2945
a(I-5
I-5
tp2946
a(I-5
I-6
tp2947
a(I-4
I-6
tp2948
a(I-3
I-6
tp2949
a(I-2
I-6
tp2950
a(I-2
I-7
tp2951
a(I-3
I-7
tp2952
a(I-3
I-8
tp2953
a(I-3
I-9
tp2954
a(I-4
I-9
tp2955
a(I-4
I-10
tp2956
a(I-4
I-11
tp2957
a(I-4
I-12
tp2958
a(I-5
I-12
tp2959
a(I-6
I-12
tp2960
a(I-6
I-13
tp2961
aI0
tp2962
a((lp2963
g3
a(I0
I-1
tp2964
a(I1
I-1
tp2965
a(I2
I-1
tp2966
a(I3
I-1
tp2967
a(I3
I-2
tp2968
a(I3
I-3
tp2969
a(I2
I-3
tp2970
a(I1
I-3
tp2971
a(I1
I-4
tp2972
a(I0
I-4
tp2973
a(I-1
I-4
tp2974
a(I-1
I-3
tp2975
a(I-1
I-2
tp2976
a(I-1
I-1
tp2977
a(I-1
I0
tp2978
a(I-2
I0
tp2979
a(I-3
I0
tp2980
a(I-4
I0
tp2981
a(I-5
I0
tp2982
a(I-6
I0
tp2983
a(I-6
I1
tp2984
a(I-5
I1
tp2985
a(I-4
I1
tp2986
a(I-3
I1
tp2987
a(I-2
I1
tp2988
a(I-1
I1
tp2989
a(I0
I1
tp2990
a(I0
I2
tp2991
a(I-1
I2
tp2992
a(I-1
I3
tp2993
a(I-1
I4
tp2994
a(I0
I4
tp2995
a(I0
I5
tp2996
a(I0
I6
tp2997
a(I1
I6
tp2998
aI0
tp2999
a((lp3000
g3
a(I0
I-1
tp3001
a(I0
I-2
tp3002
a(I-1
I-2
tp3003
a(I-1
I-3
tp3004
a(I-2
I-3
tp3005
a(I-2
I-2
tp3006
a(I-2
I-1
tp3007
a(I-1
I-1
tp3008
a(I-1
I0
tp3009
a(I-1
I1
tp3010
a(I0
I1
tp3011
a(I1
I1
tp3012
a(I2
I1
tp3013
a(I2
I2
tp3014
a(I1
I2
tp3015
a(I0
I2
tp3016
a(I-1
I2
tp3017
a(I-1
I3
tp3018
a(I-1
I4
tp3019
a(I-1
I5
tp3020
a(I0
I5
tp3021
a(I1
I5
tp3022
a(I1
I4
tp3023
a(I1
I3
tp3024
a(I2
I3
tp3025
a(I2
I4
tp3026
a(I2
I5
tp3027
a(I3
I5
tp3028
a(I3
I4
tp3029
a(I3
I3
tp3030
a(I4
I3
tp3031
a(I4
I2
tp3032
a(I5
I2
tp3033
a(I6
I2
tp3034
a(I6
I1
tp3035
aI0
tp3036
a((lp3037
g3
a(I1
I0
tp3038
a(I1
I1
tp3039
a(I0
I1
tp3040
a(I-1
I1
tp3041
a(I-1
I2
tp3042
a(I-2
I2
tp3043
a(I-2
I1
tp3044
a(I-2
I0
tp3045
a(I-2
I-1
tp3046
a(I-3
I-1
tp3047
a(I-3
I-2
tp3048
a(I-2
I-2
tp3049
a(I-2
I-3
tp3050
a(I-1
I-3
tp3051
a(I-1
I-2
tp3052
a(I-1
I-1
tp3053
a(I0
I-1
tp3054
a(I1
I-1
tp3055
a(I1
I-2
tp3056
a(I2
I-2
tp3057
a(I2
I-1
tp3058
a(I2
I0
tp3059
a(I3
I0
tp3060
a(I3
I1
tp3061
a(I3
I2
tp3062
a(I4
I2
tp3063
a(I4
I1
tp3064
a(I5
I1
tp3065
a(I5
I0
tp3066
a(I6
I0
tp3067
a(I6
I1
tp3068
a(I7
I1
tp3069
a(I7
I0
tp3070
a(I8
I0
tp3071
a(I8
I1
tp3072
aI0
tp3073
a((lp3074
g3
a(I1
I0
tp3075
a(I1
I-1
tp3076
a(I1
I-2
tp3077
a(I1
I-3
tp3078
a(I0
I-3
tp3079
a(I0
I-2
tp3080
a(I-1
I-2
tp3081
a(I-1
I-3
tp3082
a(I-2
I-3
tp3083
a(I-2
I-4
tp3084
a(I-2
I-5
tp3085
a(I-3
I-5
tp3086
a(I-4
I-5
tp3087
a(I-4
I-4
tp3088
a(I-3
I-4
tp3089
a(I-3
I-3
tp3090
a(I-4
I-3
tp3091
a(I-4
I-2
tp3092
a(I-3
I-2
tp3093
a(I-2
I-2
tp3094
a(I-2
I-1
tp3095
a(I-2
I0
tp3096
a(I-1
I0
tp3097
a(I-1
I1
tp3098
a(I-1
I2
tp3099
a(I0
I2
tp3100
a(I1
I2
tp3101
a(I1
I3
tp3102
a(I2
I3
tp3103
a(I2
I2
tp3104
a(I3
I2
tp3105
a(I3
I3
tp3106
a(I3
I4
tp3107
a(I2
I4
tp3108
a(I1
I4
tp3109
aI0
tp3110
a((lp3111
g3
a(I-1
I0
tp3112
a(I-1
I-1
tp3113
a(I-2
I-1
tp3114
a(I-3
I-1
tp3115
a(I-3
I-2
tp3116
a(I-2
I-2
tp3117
a(I-2
I-3
tp3118
a(I-2
I-4
tp3119
a(I-2
I-5
tp3120
a(I-2
I-6
tp3121
a(I-3
I-6
tp3122
a(I-3
I-5
tp3123
a(I-4
I-5
tp3124
a(I-4
I-4
tp3125
a(I-5
I-4
tp3126
a(I-5
I-3
tp3127
a(I-6
I-3
tp3128
a(I-7
I-3
tp3129
a(I-7
I-2
tp3130
a(I-7
I-1
tp3131
a(I-8
I-1
tp3132
a(I-9
I-1
tp3133
a(I-10
I-1
tp3134
a(I-11
I-1
tp3135
a(I-11
I0
tp3136
a(I-11
I1
tp3137
a(I-12
I1
tp3138
a(I-12
I2
tp3139
a(I-13
I2
tp3140
a(I-14
I2
tp3141
a(I-15
I2
tp3142
a(I-16
I2
tp3143
a(I-16
I3
tp3144
a(I-17
I3
tp3145
a(I-17
I2
tp3146
aI0
tp3147
a((lp3148
g3
a(I-1
I0
tp3149
a(I-2
I0
tp3150
a(I-2
I1
tp3151
a(I-1
I1
tp3152
a(I-1
I2
tp3153
a(I0
I2
tp3154
a(I1
I2
tp3155
a(I1
I1
tp3156
a(I2
I1
tp3157
a(I3
I1
tp3158
a(I3
I0
tp3159
a(I4
I0
tp3160
a(I5
I0
tp3161
a(I5
I-1
tp3162
a(I5
I-2
tp3163
a(I6
I-2
tp3164
a(I7
I-2
tp3165
a(I7
I-3
tp3166
a(I6
I-3
tp3167
a(I6
I-4
tp3168
a(I6
I-5
tp3169
a(I5
I-5
tp3170
a(I4
I-5
tp3171
a(I4
I-6
tp3172
a(I5
I-6
tp3173
a(I6
I-6
tp3174
a(I6
I-7
tp3175
a(I7
I-7
tp3176
a(I8
I-7
tp3177
a(I8
I-6
tp3178
a(I9
I-6
tp3179
a(I10
I-6
tp3180
a(I11
I-6
tp3181
a(I11
I-7
tp3182
a(I12
I-7
tp3183
aI0
tp3184
a((lp3185
g3
a(I1
I0
tp3186
a(I1
I1
tp3187
a(I1
I2
tp3188
a(I1
I3
tp3189
a(I0
I3
tp3190
a(I-1
I3
tp3191
a(I-1
I2
tp3192
a(I-2
I2
tp3193
a(I-2
I1
tp3194
a(I-2
I0
tp3195
a(I-2
I-1
tp3196
a(I-3
I-1
tp3197
a(I-4
I-1
tp3198
a(I-4
I-2
tp3199
a(I-5
I-2
tp3200
a(I-5
I-1
tp3201
a(I-5
I0
tp3202
a(I-6
I0
tp3203
a(I-6
I1
tp3204
a(I-7
I1
tp3205
a(I-7
I2
tp3206
a(I-8
I2
tp3207
a(I-9
I2
tp3208
a(I-10
I2
tp3209
a(I-11
I2
tp3210
a(I-12
I2
tp3211
a(I-12
I1
tp3212
a(I-11
I1
tp3213
a(I-11
I0
tp3214
a(I-10
I0
tp3215
a(I-10
I1
tp3216
a(I-9
I1
tp3217
a(I-8
I1
tp3218
a(I-8
I0
tp3219
a(I-7
I0
tp3220
aI0
tp3221
a((lp3222
g3
a(I0
I-1
tp3223
a(I-1
I-1
tp3224
a(I-1
I-2
tp3225
a(I0
I-2
tp3226
a(I0
I-3
tp3227
a(I1
I-3
tp3228
a(I1
I-2
tp3229
a(I1
I-1
tp3230
a(I2
I-1
tp3231
a(I3
I-1
tp3232
a(I3
I-2
tp3233
a(I3
I-3
tp3234
a(I2
I-3
tp3235
a(I2
I-4
tp3236
a(I3
I-4
tp3237
a(I3
I-5
tp3238
a(I2
I-5
tp3239
a(I2
I-6
tp3240
a(I2
I-7
tp3241
a(I1
I-7
tp3242
a(I0
I-7
tp3243
a(I-1
I-7
tp3244
a(I-1
I-8
tp3245
a(I0
I-8
tp3246
a(I0
I-9
tp3247
a(I-1
I-9
tp3248
a(I-1
I-10
tp3249
a(I-2
I-10
tp3250
a(I-2
I-9
tp3251
a(I-2
I-8
tp3252
a(I-3
I-8
tp3253
a(I-3
I-9
tp3254
a(I-4
I-9
tp3255
a(I-4
I-10
tp3256
a(I-4
I-11
tp3257
aI0
tp3258
a((lp3259
g3
a(I0
I-1
tp3260
a(I1
I-1
tp3261
a(I1
I0
tp3262
a(I2
I0
tp3263
a(I2
I1
tp3264
a(I3
I1
tp3265
a(I3
I0
tp3266
a(I3
I-1
tp3267
a(I4
I-1
tp3268
a(I4
I-2
tp3269
a(I4
I-3
tp3270
a(I4
I-4
tp3271
a(I5
I-4
tp3272
a(I6
I-4
tp3273
a(I7
I-4
tp3274
a(I8
I-4
tp3275
a(I9
I-4
tp3276
a(I9
I-5
tp3277
a(I10
I-5
tp3278
a(I11
I-5
tp3279
a(I11
I-6
tp3280
a(I11
I-7
tp3281
a(I12
I-7
tp3282
a(I13
I-7
tp3283
a(I14
I-7
tp3284
a(I15
I-7
tp3285
a(I15
I-8
tp3286
a(I16
I-8
tp3287
a(I17
I-8
tp3288
a(I18
I-8
tp3289
a(I18
I-7
tp3290
a(I19
I-7
tp3291
a(I19
I-6
tp3292
a(I20
I-6
tp3293
a(I20
I-5
tp3294
aI0
tp3295
a((lp3296
g3
a(I-1
I0
tp3297
a(I-2
I0
tp3298
a(I-2
I1
tp3299
a(I-2
I2
tp3300
a(I-2
I3
tp3301
a(I-1
I3
tp3302
a(I-1
I2
tp3303
a(I-1
I1
tp3304
a(I0
I1
tp3305
a(I1
I1
tp3306
a(I1
I0
tp3307
a(I2
I0
tp3308
a(I2
I-1
tp3309
a(I3
I-1
tp3310
a(I3
I0
tp3311
a(I4
I0
tp3312
a(I5
I0
tp3313
a(I5
I1
tp3314
a(I6
I1
tp3315
a(I6
I2
tp3316
a(I7
I2
tp3317
a(I7
I3
tp3318
a(I6
I3
tp3319
a(I6
I4
tp3320
a(I7
I4
tp3321
a(I7
I5
tp3322
a(I8
I5
tp3323
a(I8
I4
tp3324
a(I9
I4
tp3325
a(I9
I3
tp3326
a(I8
I3
tp3327
a(I8
I2
tp3328
a(I8
I1
tp3329
a(I8
I0
tp3330
a(I8
I-1
tp3331
aI0
tp3332
a((lp3333
g3
a(I-1
I0
tp3334
a(I-2
I0
tp3335
a(I-2
I-1
tp3336
a(I-2
I-2
tp3337
a(I-3
I-2
tp3338
a(I-4
I-2
tp3339
a(I-4
I-1
tp3340
a(I-5
I-1
tp3341
a(I-6
I-1
tp3342
a(I-7
I-1
tp3343
a(I-8
I-1
tp3344
a(I-9
I-1
tp3345
a(I-10
I-1
tp3346
a(I-10
I0
tp3347
a(I-9
I0
tp3348
a(I-9
I1
tp3349
a(I-9
I2
tp3350
a(I-8
I2
tp3351
a(I-8
I3
tp3352
a(I-9
I3
tp3353
a(I-10
I3
tp3354
a(I-11
I3
tp3355
a(I-12
I3
tp3356
a(I-13
I3
tp3357
a(I-13
I2
tp3358
a(I-13
I1
tp3359
a(I-14
I1
tp3360
a(I-14
I0
tp3361
a(I-15
I0
tp3362
a(I-16
I0
tp3363
a(I-17
I0
tp3364
a(I-17
I-1
tp3365
a(I-18
I-1
tp3366
a(I-19
I-1
tp3367
a(I-20
I-1
tp3368
aI0
tp3369
a((lp3370
g3
a(I0
I1
tp3371
a(I0
I2
tp3372
a(I-1
I2
tp3373
a(I-1
I3
tp3374
a(I0
I3
tp3375
a(I1
I3
tp3376
a(I1
I2
tp3377
a(I2
I2
tp3378
a(I2
I1
tp3379
a(I1
I1
tp3380
a(I1
I0
tp3381
a(I1
I-1
tp3382
a(I1
I-2
tp3383
a(I0
I-2
tp3384
a(I-1
I-2
tp3385
a(I-1
I-3
tp3386
a(I-1
I-4
tp3387
a(I-2
I-4
tp3388
a(I-2
I-5
tp3389
a(I-2
I-6
tp3390
a(I-2
I-7
tp3391
a(I-3
I-7
tp3392
a(I-3
I-6
tp3393
a(I-4
I-6
tp3394
a(I-4
I-7
tp3395
a(I-5
I-7
tp3396
a(I-5
I-6
tp3397
a(I-6
I-6
tp3398
a(I-7
I-6
tp3399
a(I-8
I-6
tp3400
a(I-8
I-7
tp3401
a(I-7
I-7
tp3402
a(I-7
I-8
tp3403
a(I-6
I-8
tp3404
a(I-5
I-8
tp3405
aI0
tp3406
a((lp3407
g3
a(I1
I0
tp3408
a(I1
I-1
tp3409
a(I0
I-1
tp3410
a(I0
I-2
tp3411
a(I1
I-2
tp3412
a(I1
I-3
tp3413
a(I2
I-3
tp3414
a(I2
I-2
tp3415
a(I2
I-1
tp3416
a(I3
I-1
tp3417
a(I3
I-2
tp3418
a(I3
I-3
tp3419
a(I3
I-4
tp3420
a(I3
I-5
tp3421
a(I2
I-5
tp3422
a(I2
I-6
tp3423
a(I1
I-6
tp3424
a(I1
I-7
tp3425
a(I1
I-8
tp3426
a(I1
I-9
tp3427
a(I1
I-10
tp3428
a(I0
I-10
tp3429
a(I0
I-9
tp3430
a(I0
I-8
tp3431
a(I-1
I-8
tp3432
a(I-1
I-7
tp3433
a(I-2
I-7
tp3434
a(I-2
I-6
tp3435
a(I-3
I-6
tp3436
a(I-3
I-5
tp3437
a(I-4
I-5
tp3438
a(I-4
I-4
tp3439
a(I-4
I-3
tp3440
a(I-4
I-2
tp3441
a(I-5
I-2
tp3442
aI0
tp3443
a((lp3444
g3
a(I0
I1
tp3445
a(I-1
I1
tp3446
a(I-1
I2
tp3447
a(I-2
I2
tp3448
a(I-2
I3
tp3449
a(I-1
I3
tp3450
a(I0
I3
tp3451
a(I0
I2
tp3452
a(I1
I2
tp3453
a(I2
I2
tp3454
a(I2
I1
tp3455
a(I2
I0
tp3456
a(I2
I-1
tp3457
a(I3
I-1
tp3458
a(I3
I-2
tp3459
a(I4
I-2
tp3460
a(I5
I-2
tp3461
a(I6
I-2
tp3462
a(I6
I-1
tp3463
a(I7
I-1
tp3464
a(I7
I0
tp3465
a(I8
I0
tp3466
a(I8
I1
tp3467
a(I8
I2
tp3468
a(I8
I3
tp3469
a(I9
I3
tp3470
a(I9
I2
tp3471
a(I9
I1
tp3472
a(I10
I1
tp3473
a(I10
I0
tp3474
a(I9
I0
tp3475
a(I9
I-1
tp3476
a(I8
I-1
tp3477
a(I8
I-2
tp3478
a(I8
I-3
tp3479
aI0
tp3480
a((lp3481
g3
a(I1
I0
tp3482
a(I1
I1
tp3483
a(I2
I1
tp3484
a(I2
I2
tp3485
a(I1
I2
tp3486
a(I1
I3
tp3487
a(I0
I3
tp3488
a(I0
I2
tp3489
a(I0
I1
tp3490
a(I-1
I1
tp3491
a(I-1
I2
tp3492
a(I-1
I3
tp3493
a(I-2
I3
tp3494
a(I-3
I3
tp3495
a(I-3
I4
tp3496
a(I-4
I4
tp3497
a(I-4
I3
tp3498
a(I-4
I2
tp3499
a(I-3
I2
tp3500
a(I-2
I2
tp3501
a(I-2
I1
tp3502
a(I-3
I1
tp3503
a(I-3
I0
tp3504
a(I-4
I0
tp3505
a(I-4
I-1
tp3506
a(I-5
I-1
tp3507
a(I-6
I-1
tp3508
a(I-6
I-2
tp3509
a(I-5
I-2
tp3510
a(I-4
I-2
tp3511
a(I-3
I-2
tp3512
a(I-2
I-2
tp3513
a(I-1
I-2
tp3514
a(I-1
I-3
tp3515
a(I-2
I-3
tp3516
aI0
tp3517
a((lp3518
g3
a(I-1
I0
tp3519
a(I-1
I-1
tp3520
a(I-2
I-1
tp3521
a(I-3
I-1
tp3522
a(I-3
I0
tp3523
a(I-4
I0
tp3524
a(I-5
I0
tp3525
a(I-5
I1
tp3526
a(I-6
I1
tp3527
a(I-7
I1
tp3528
a(I-7
I2
tp3529
a(I-7
I3
tp3530
a(I-8
I3
tp3531
a(I-9
I3
tp3532
a(I-9
I4
tp3533
a(I-8
I4
tp3534
a(I-8
I5
tp3535
a(I-9
I5
tp3536
a(I-10
I5
tp3537
a(I-10
I4
tp3538
a(I-10
I3
tp3539
a(I-11
I3
tp3540
a(I-11
I2
tp3541
a(I-12
I2
tp3542
a(I-13
I2
tp3543
a(I-13
I1
tp3544
a(I-12
I1
tp3545
a(I-12
I0
tp3546
a(I-11
I0
tp3547
a(I-10
I0
tp3548
a(I-10
I1
tp3549
a(I-9
I1
tp3550
a(I-9
I0
tp3551
a(I-8
I0
tp3552
a(I-7
I0
tp3553
aI0
tp3554
a((lp3555
g3
a(I-1
I0
tp3556
a(I-1
I-1
tp3557
a(I0
I-1
tp3558
a(I1
I-1
tp3559
a(I1
I0
tp3560
a(I2
I0
tp3561
a(I2
I-1
tp3562
a(I3
I-1
tp3563
a(I3
I0
tp3564
a(I4
I0
tp3565
a(I4
I-1
tp3566
a(I4
I-2
tp3567
a(I5
I-2
tp3568
a(I5
I-1
tp3569
a(I6
I-1
tp3570
a(I6
I0
tp3571
a(I7
I0
tp3572
a(I7
I-1
tp3573
a(I7
I-2
tp3574
a(I8
I-2
tp3575
a(I8
I-1
tp3576
a(I9
I-1
tp3577
a(I9
I0
tp3578
a(I10
I0
tp3579
a(I11
I0
tp3580
a(I11
I1
tp3581
a(I12
I1
tp3582
a(I13
I1
tp3583
a(I13
I0
tp3584
a(I13
I-1
tp3585
a(I14
I-1
tp3586
a(I15
I-1
tp3587
a(I16
I-1
tp3588
a(I17
I-1
tp3589
a(I17
I-2
tp3590
aI0
tp3591
a((lp3592
g3
a(I0
I1
tp3593
a(I-1
I1
tp3594
a(I-2
I1
tp3595
a(I-3
I1
tp3596
a(I-3
I0
tp3597
a(I-4
I0
tp3598
a(I-4
I1
tp3599
a(I-5
I1
tp3600
a(I-5
I2
tp3601
a(I-4
I2
tp3602
a(I-3
I2
tp3603
a(I-2
I2
tp3604
a(I-1
I2
tp3605
a(I0
I2
tp3606
a(I1
I2
tp3607
a(I2
I2
tp3608
a(I2
I3
tp3609
a(I3
I3
tp3610
a(I3
I4
tp3611
a(I3
I5
tp3612
a(I4
I5
tp3613
a(I4
I6
tp3614
a(I3
I6
tp3615
a(I3
I7
tp3616
a(I4
I7
tp3617
a(I5
I7
tp3618
a(I5
I6
tp3619
a(I6
I6
tp3620
a(I6
I5
tp3621
a(I6
I4
tp3622
a(I6
I3
tp3623
a(I5
I3
tp3624
a(I5
I4
tp3625
a(I4
I4
tp3626
a(I4
I3
tp3627
aI0
tp3628
a((lp3629
g3
a(I1
I0
tp3630
a(I1
I1
tp3631
a(I1
I2
tp3632
a(I2
I2
tp3633
a(I2
I1
tp3634
a(I3
I1
tp3635
a(I4
I1
tp3636
a(I4
I2
tp3637
a(I3
I2
tp3638
a(I3
I3
tp3639
a(I2
I3
tp3640
a(I1
I3
tp3641
a(I1
I4
tp3642
a(I1
I5
tp3643
a(I0
I5
tp3644
a(I0
I6
tp3645
a(I0
I7
tp3646
a(I0
I8
tp3647
a(I0
I9
tp3648
a(I-1
I9
tp3649
a(I-2
I9
tp3650
a(I-3
I9
tp3651
a(I-3
I10
tp3652
a(I-4
I10
tp3653
a(I-4
I11
tp3654
a(I-5
I11
tp3655
a(I-5
I10
tp3656
a(I-5
I9
tp3657
a(I-4
I9
tp3658
a(I-4
I8
tp3659
a(I-5
I8
tp3660
a(I-6
I8
tp3661
a(I-7
I8
tp3662
a(I-7
I9
tp3663
a(I-7
I10
tp3664
aI0
tp3665
a((lp3666
g3
a(I1
I0
tp3667
a(I1
I-1
tp3668
a(I0
I-1
tp3669
a(I-1
I-1
tp3670
a(I-1
I0
tp3671
a(I-1
I1
tp3672
a(I0
I1
tp3673
a(I1
I1
tp3674
a(I2
I1
tp3675
a(I3
I1
tp3676
a(I3
I0
tp3677
a(I4
I0
tp3678
a(I5
I0
tp3679
a(I5
I1
tp3680
a(I5
I2
tp3681
a(I5
I3
tp3682
a(I5
I4
tp3683
a(I4
I4
tp3684
a(I4
I5
tp3685
a(I3
I5
tp3686
a(I3
I4
tp3687
a(I3
I3
tp3688
a(I4
I3
tp3689
a(I4
I2
tp3690
a(I3
I2
tp3691
a(I2
I2
tp3692
a(I2
I3
tp3693
a(I2
I4
tp3694
a(I2
I5
tp3695
a(I1
I5
tp3696
a(I1
I4
tp3697
a(I1
I3
tp3698
a(I1
I2
tp3699
a(I0
I2
tp3700
a(I0
I3
tp3701
aI0
tp3702
a((lp3703
g3
a(I0
I-1
tp3704
a(I1
I-1
tp3705
a(I1
I-2
tp3706
a(I1
I-3
tp3707
a(I1
I-4
tp3708
a(I2
I-4
tp3709
a(I3
I-4
tp3710
a(I4
I-4
tp3711
a(I4
I-5
tp3712
a(I3
I-5
tp3713
a(I2
I-5
tp3714
a(I2
I-6
tp3715
a(I1
I-6
tp3716
a(I1
I-7
tp3717
a(I2
I-7
tp3718
a(I3
I-7
tp3719
a(I4
I-7
tp3720
a(I4
I-6
tp3721
a(I5
I-6
tp3722
a(I6
I-6
tp3723
a(I7
I-6
tp3724
a(I8
I-6
tp3725
a(I9
I-6
tp3726
a(I9
I-5
tp3727
a(I8
I-5
tp3728
a(I8
I-4
tp3729
a(I9
I-4
tp3730
a(I10
I-4
tp3731
a(I10
I-5
tp3732
a(I11
I-5
tp3733
a(I11
I-6
tp3734
a(I11
I-7
tp3735
a(I11
I-8
tp3736
a(I11
I-9
tp3737
a(I10
I-9
tp3738
aI0
tp3739
a((lp3740
g3
a(I-1
I0
tp3741
a(I-1
I-1
tp3742
a(I0
I-1
tp3743
a(I0
I-2
tp3744
a(I-1
I-2
tp3745
a(I-1
I-3
tp3746
a(I0
I-3
tp3747
a(I0
I-4
tp3748
a(I0
I-5
tp3749
a(I1
I-5
tp3750
a(I1
I-4
tp3751
a(I2
I-4
tp3752
a(I2
I-3
tp3753
a(I2
I-2
tp3754
a(I1
I-2
tp3755
a(I1
I-1
tp3756
a(I1
I0
tp3757
a(I2
I0
tp3758
a(I2
I-1
tp3759
a(I3
I-1
tp3760
a(I3
I0
tp3761
a(I3
I1
tp3762
a(I4
I1
tp3763
a(I4
I0
tp3764
a(I4
I-1
tp3765
a(I4
I-2
tp3766
a(I5
I-2
tp3767
a(I5
I-3
tp3768
a(I6
I-3
tp3769
a(I7
I-3
tp3770
a(I7
I-2
tp3771
a(I7
I-1
tp3772
a(I8
I-1
tp3773
a(I9
I-1
tp3774
a(I9
I-2
tp3775
aI0
tp3776
a((lp3777
g3
a(I0
I-1
tp3778
a(I-1
I-1
tp3779
a(I-1
I-2
tp3780
a(I0
I-2
tp3781
a(I0
I-3
tp3782
a(I-1
I-3
tp3783
a(I-2
I-3
tp3784
a(I-2
I-4
tp3785
a(I-3
I-4
tp3786
a(I-4
I-4
tp3787
a(I-5
I-4
tp3788
a(I-6
I-4
tp3789
a(I-6
I-5
tp3790
a(I-5
I-5
tp3791
a(I-4
I-5
tp3792
a(I-4
I-6
tp3793
a(I-5
I-6
tp3794
a(I-6
I-6
tp3795
a(I-6
I-7
tp3796
a(I-6
I-8
tp3797
a(I-6
I-9
tp3798
a(I-5
I-9
tp3799
a(I-4
I-9
tp3800
a(I-3
I-9
tp3801
a(I-3
I-10
tp3802
a(I-4
I-10
tp3803
a(I-4
I-11
tp3804
a(I-4
I-12
tp3805
a(I-4
I-13
tp3806
a(I-3
I-13
tp3807
a(I-3
I-12
tp3808
a(I-3
I-11
tp3809
a(I-2
I-11
tp3810
a(I-2
I-10
tp3811
a(I-2
I-9
tp3812
aI0
tp3813
a((lp3814
g3
a(I-1
I0
tp3815
a(I-1
I-1
tp3816
a(I0
I-1
tp3817
a(I1
I-1
tp3818
a(I2
I-1
tp3819
a(I2
I0
tp3820
a(I3
I0
tp3821
a(I3
I-1
tp3822
a(I4
I-1
tp3823
a(I5
I-1
tp3824
a(I6
I-1
tp3825
a(I6
I-2
tp3826
a(I5
I-2
tp3827
a(I4
I-2
tp3828
a(I4
I-3
tp3829
a(I5
I-3
tp3830
a(I6
I-3
tp3831
a(I7
I-3
tp3832
a(I7
I-2
tp3833
a(I8
I-2
tp3834
a(I8
I-3
tp3835
a(I8
I-4
tp3836
a(I8
I-5
tp3837
a(I9
I-5
tp3838
a(I9
I-6
tp3839
a(I9
I-7
tp3840
a(I10
I-7
tp3841
a(I11
I-7
tp3842
a(I12
I-7
tp3843
a(I12
I-6
tp3844
a(I12
I-5
tp3845
a(I11
I-5
tp3846
a(I11
I-4
tp3847
a(I12
I-4
tp3848
a(I12
I-3
tp3849
aI0
tp3850
a((lp3851
g3
a(I0
I-1
tp3852
a(I0
I-2
tp3853
a(I0
I-3
tp3854
a(I-1
I-3
tp3855
a(I-1
I-2
tp3856
a(I-1
I-1
tp3857
a(I-2
I-1
tp3858
a(I-2
I-2
tp3859
a(I-3
I-2
tp3860
a(I-3
I-1
tp3861
a(I-4
I-1
tp3862
a(I-5
I-1
tp3863
a(I-5
I0
tp3864
a(I-5
I1
tp3865
a(I-4
I1
tp3866
a(I-4
I0
tp3867
a(I-3
I0
tp3868
a(I-2
I0
tp3869
a(I-1
I0
tp3870
a(I-1
I1
tp3871
a(I0
I1
tp3872
a(I0
I2
tp3873
a(I1
I2
tp3874
a(I1
I1
tp3875
a(I1
I0
tp3876
a(I1
I-1
tp3877
a(I1
I-2
tp3878
a(I1
I-3
tp3879
a(I2
I-3
tp3880
a(I2
I-2
tp3881
a(I3
I-2
tp3882
a(I3
I-1
tp3883
a(I3
I0
tp3884
a(I3
I1
tp3885
a(I3
I2
tp3886
aI0
tp3887
a((lp3888
g3
a(I-1
I0
tp3889
a(I-2
I0
tp3890
a(I-2
I1
tp3891
a(I-3
I1
tp3892
a(I-4
I1
tp3893
a(I-4
I0
tp3894
a(I-4
I-1
tp3895
a(I-4
I-2
tp3896
a(I-4
I-3
tp3897
a(I-4
I-4
tp3898
a(I-4
I-5
tp3899
a(I-5
I-5
tp3900
a(I-6
I-5
tp3901
a(I-6
I-6
tp3902
a(I-7
I-6
tp3903
a(I-7
I-7
tp3904
a(I-8
I-7
tp3905
a(I-9
I-7
tp3906
a(I-10
I-7
tp3907
a(I-10
I-6
tp3908
a(I-10
I-5
tp3909
a(I-10
I-4
tp3910
a(I-11
I-4
tp3911
a(I-12
I-4
tp3912
a(I-12
I-5
tp3913
a(I-11
I-5
tp3914
a(I-11
I-6
tp3915
a(I-11
I-7
tp3916
a(I-12
I-7
tp3917
a(I-13
I-7
tp3918
a(I-13
I-8
tp3919
a(I-14
I-8
tp3920
a(I-14
I-7
tp3921
a(I-14
I-6
tp3922
a(I-13
I-6
tp3923
aI0
tp3924
a((lp3925
g3
a(I-1
I0
tp3926
a(I-1
I1
tp3927
a(I-1
I2
tp3928
a(I-2
I2
tp3929
a(I-2
I1
tp3930
a(I-2
I0
tp3931
a(I-2
I-1
tp3932
a(I-2
I-2
tp3933
a(I-1
I-2
tp3934
a(I-1
I-3
tp3935
a(I-2
I-3
tp3936
a(I-3
I-3
tp3937
a(I-3
I-4
tp3938
a(I-3
I-5
tp3939
a(I-3
I-6
tp3940
a(I-3
I-7
tp3941
a(I-4
I-7
tp3942
a(I-5
I-7
tp3943
a(I-5
I-6
tp3944
a(I-4
I-6
tp3945
a(I-4
I-5
tp3946
a(I-5
I-5
tp3947
a(I-6
I-5
tp3948
a(I-6
I-6
tp3949
a(I-7
I-6
tp3950
a(I-7
I-5
tp3951
a(I-7
I-4
tp3952
a(I-7
I-3
tp3953
a(I-6
I-3
tp3954
a(I-6
I-4
tp3955
a(I-5
I-4
tp3956
a(I-4
I-4
tp3957
a(I-4
I-3
tp3958
a(I-4
I-2
tp3959
a(I-4
I-1
tp3960
aI0
tp3961
a((lp3962
g3
a(I1
I0
tp3963
a(I2
I0
tp3964
a(I3
I0
tp3965
a(I3
I-1
tp3966
a(I2
I-1
tp3967
a(I2
I-2
tp3968
a(I1
I-2
tp3969
a(I1
I-3
tp3970
a(I2
I-3
tp3971
a(I2
I-4
tp3972
a(I3
I-4
tp3973
a(I4
I-4
tp3974
a(I5
I-4
tp3975
a(I5
I-5
tp3976
a(I5
I-6
tp3977
a(I6
I-6
tp3978
a(I6
I-5
tp3979
a(I7
I-5
tp3980
a(I7
I-4
tp3981
a(I6
I-4
tp3982
a(I6
I-3
tp3983
a(I5
I-3
tp3984
a(I4
I-3
tp3985
a(I3
I-3
tp3986
a(I3
I-2
tp3987
a(I4
I-2
tp3988
a(I4
I-1
tp3989
a(I4
I0
tp3990
a(I4
I1
tp3991
a(I4
I2
tp3992
a(I5
I2
tp3993
a(I6
I2
tp3994
a(I6
I3
tp3995
a(I6
I4
tp3996
a(I5
I4
tp3997
aI0
tp3998
a((lp3999
g3
a(I1
I0
tp4000
a(I2
I0
tp4001
a(I2
I1
tp4002
a(I3
I1
tp4003
a(I4
I1
tp4004
a(I5
I1
tp4005
a(I6
I1
tp4006
a(I7
I1
tp4007
a(I8
I1
tp4008
a(I8
I2
tp4009
a(I9
I2
tp4010
a(I10
I2
tp4011
a(I11
I2
tp4012
a(I11
I3
tp4013
a(I12
I3
tp4014
a(I12
I2
tp4015
a(I13
I2
tp4016
a(I13
I1
tp4017
a(I13
I0
tp4018
a(I14
I0
tp4019
a(I14
I1
tp4020
a(I15
I1
tp4021
a(I15
I0
tp4022
a(I15
I-1
tp4023
a(I15
I-2
tp4024
a(I14
I-2
tp4025
a(I14
I-1
tp4026
a(I13
I-1
tp4027
a(I13
I-2
tp4028
a(I12
I-2
tp4029
a(I12
I-3
tp4030
a(I13
I-3
tp4031
a(I13
I-4
tp4032
a(I13
I-5
tp4033
a(I14
I-5
tp4034
aI0
tp4035
a((lp4036
g3
a(I0
I1
tp4037
a(I-1
I1
tp4038
a(I-2
I1
tp4039
a(I-2
I0
tp4040
a(I-3
I0
tp4041
a(I-3
I-1
tp4042
a(I-4
I-1
tp4043
a(I-4
I0
tp4044
a(I-5
I0
tp4045
a(I-5
I-1
tp4046
a(I-5
I-2
tp4047
a(I-4
I-2
tp4048
a(I-4
I-3
tp4049
a(I-5
I-3
tp4050
a(I-6
I-3
tp4051
a(I-6
I-4
tp4052
a(I-6
I-5
tp4053
a(I-5
I-5
tp4054
a(I-5
I-4
tp4055
a(I-4
I-4
tp4056
a(I-3
I-4
tp4057
a(I-3
I-3
tp4058
a(I-3
I-2
tp4059
a(I-2
I-2
tp4060
a(I-1
I-2
tp4061
a(I-1
I-1
tp4062
a(I0
I-1
tp4063
a(I1
I-1
tp4064
a(I1
I-2
tp4065
a(I2
I-2
tp4066
a(I3
I-2
tp4067
a(I3
I-1
tp4068
a(I4
I-1
tp4069
a(I4
I0
tp4070
a(I3
I0
tp4071
aI0
tp4072
a((lp4073
g3
a(I1
I0
tp4074
a(I1
I1
tp4075
a(I0
I1
tp4076
a(I-1
I1
tp4077
a(I-1
I0
tp4078
a(I-2
I0
tp4079
a(I-2
I1
tp4080
a(I-2
I2
tp4081
a(I-1
I2
tp4082
a(I-1
I3
tp4083
a(I-2
I3
tp4084
a(I-2
I4
tp4085
a(I-3
I4
tp4086
a(I-3
I5
tp4087
a(I-2
I5
tp4088
a(I-2
I6
tp4089
a(I-2
I7
tp4090
a(I-2
I8
tp4091
a(I-3
I8
tp4092
a(I-4
I8
tp4093
a(I-4
I7
tp4094
a(I-5
I7
tp4095
a(I-5
I8
tp4096
a(I-5
I9
tp4097
a(I-6
I9
tp4098
a(I-6
I8
tp4099
a(I-7
I8
tp4100
a(I-7
I7
tp4101
a(I-8
I7
tp4102
a(I-8
I8
tp4103
a(I-8
I9
tp4104
a(I-7
I9
tp4105
a(I-7
I10
tp4106
a(I-8
I10
tp4107
a(I-9
I10
tp4108
aI0
tp4109
a((lp4110
g3
a(I1
I0
tp4111
a(I1
I1
tp4112
a(I2
I1
tp4113
a(I2
I2
tp4114
a(I2
I3
tp4115
a(I1
I3
tp4116
a(I1
I4
tp4117
a(I0
I4
tp4118
a(I0
I5
tp4119
a(I1
I5
tp4120
a(I2
I5
tp4121
a(I3
I5
tp4122
a(I4
I5
tp4123
a(I5
I5
tp4124
a(I5
I6
tp4125
a(I6
I6
tp4126
a(I7
I6
tp4127
a(I8
I6
tp4128
a(I9
I6
tp4129
a(I9
I7
tp4130
a(I10
I7
tp4131
a(I11
I7
tp4132
a(I11
I6
tp4133
a(I10
I6
tp4134
a(I10
I5
tp4135
a(I10
I4
tp4136
a(I10
I3
tp4137
a(I10
I2
tp4138
a(I11
I2
tp4139
a(I11
I1
tp4140
a(I10
I1
tp4141
a(I10
I0
tp4142
a(I11
I0
tp4143
a(I11
I-1
tp4144
a(I10
I-1
tp4145
aI0
tp4146
a((lp4147
g3
a(I0
I1
tp4148
a(I-1
I1
tp4149
a(I-1
I2
tp4150
a(I0
I2
tp4151
a(I0
I3
tp4152
a(I-1
I3
tp4153
a(I-1
I4
tp4154
a(I-1
I5
tp4155
a(I-1
I6
tp4156
a(I-1
I7
tp4157
a(I-1
I8
tp4158
a(I-1
I9
tp4159
a(I-2
I9
tp4160
a(I-2
I10
tp4161
a(I-3
I10
tp4162
a(I-3
I11
tp4163
a(I-4
I11
tp4164
a(I-5
I11
tp4165
a(I-5
I10
tp4166
a(I-4
I10
tp4167
a(I-4
I9
tp4168
a(I-4
I8
tp4169
a(I-4
I7
tp4170
a(I-4
I6
tp4171
a(I-5
I6
tp4172
a(I-5
I5
tp4173
a(I-6
I5
tp4174
a(I-6
I4
tp4175
a(I-7
I4
tp4176
a(I-7
I3
tp4177
a(I-8
I3
tp4178
a(I-8
I4
tp4179
a(I-9
I4
tp4180
a(I-10
I4
tp4181
a(I-10
I3
tp4182
aI0
tp4183
a((lp4184
g3
a(I1
I0
tp4185
a(I2
I0
tp4186
a(I3
I0
tp4187
a(I4
I0
tp4188
a(I4
I1
tp4189
a(I3
I1
tp4190
a(I3
I2
tp4191
a(I4
I2
tp4192
a(I5
I2
tp4193
a(I6
I2
tp4194
a(I6
I3
tp4195
a(I6
I4
tp4196
a(I6
I5
tp4197
a(I6
I6
tp4198
a(I7
I6
tp4199
a(I7
I5
tp4200
a(I7
I4
tp4201
a(I7
I3
tp4202
a(I7
I2
tp4203
a(I7
I1
tp4204
a(I6
I1
tp4205
a(I5
I1
tp4206
a(I5
I0
tp4207
a(I5
I-1
tp4208
a(I5
I-2
tp4209
a(I4
I-2
tp4210
a(I4
I-3
tp4211
a(I4
I-4
tp4212
a(I3
I-4
tp4213
a(I2
I-4
tp4214
a(I1
I-4
tp4215
a(I1
I-5
tp4216
a(I1
I-6
tp4217
a(I0
I-6
tp4218
a(I-1
I-6
tp4219
aI0
tp4220
a((lp4221
g3
a(I0
I1
tp4222
a(I-1
I1
tp4223
a(I-1
I0
tp4224
a(I-1
I-1
tp4225
a(I-1
I-2
tp4226
a(I0
I-2
tp4227
a(I0
I-3
tp4228
a(I1
I-3
tp4229
a(I2
I-3
tp4230
a(I3
I-3
tp4231
a(I3
I-4
tp4232
a(I2
I-4
tp4233
a(I1
I-4
tp4234
a(I1
I-5
tp4235
a(I1
I-6
tp4236
a(I0
I-6
tp4237
a(I0
I-7
tp4238
a(I1
I-7
tp4239
a(I1
I-8
tp4240
a(I1
I-9
tp4241
a(I2
I-9
tp4242
a(I3
I-9
tp4243
a(I4
I-9
tp4244
a(I4
I-8
tp4245
a(I3
I-8
tp4246
a(I3
I-7
tp4247
a(I3
I-6
tp4248
a(I2
I-6
tp4249
a(I2
I-5
tp4250
a(I3
I-5
tp4251
a(I4
I-5
tp4252
a(I5
I-5
tp4253
a(I6
I-5
tp4254
a(I7
I-5
tp4255
a(I7
I-4
tp4256
aI0
tp4257
a((lp4258
g3
a(I0
I1
tp4259
a(I0
I2
tp4260
a(I1
I2
tp4261
a(I1
I1
tp4262
a(I1
I0
tp4263
a(I1
I-1
tp4264
a(I0
I-1
tp4265
a(I0
I-2
tp4266
a(I-1
I-2
tp4267
a(I-1
I-3
tp4268
a(I-1
I-4
tp4269
a(I0
I-4
tp4270
a(I0
I-5
tp4271
a(I1
I-5
tp4272
a(I1
I-4
tp4273
a(I1
I-3
tp4274
a(I1
I-2
tp4275
a(I2
I-2
tp4276
a(I2
I-3
tp4277
a(I3
I-3
tp4278
a(I3
I-4
tp4279
a(I4
I-4
tp4280
a(I4
I-5
tp4281
a(I5
I-5
tp4282
a(I6
I-5
tp4283
a(I6
I-6
tp4284
a(I7
I-6
tp4285
a(I8
I-6
tp4286
a(I8
I-5
tp4287
a(I9
I-5
tp4288
a(I9
I-4
tp4289
a(I10
I-4
tp4290
a(I11
I-4
tp4291
a(I11
I-5
tp4292
a(I10
I-5
tp4293
aI0
tp4294
a((lp4295
g3
a(I0
I1
tp4296
a(I1
I1
tp4297
a(I1
I0
tp4298
a(I2
I0
tp4299
a(I2
I-1
tp4300
a(I1
I-1
tp4301
a(I1
I-2
tp4302
a(I1
I-3
tp4303
a(I1
I-4
tp4304
a(I1
I-5
tp4305
a(I2
I-5
tp4306
a(I2
I-6
tp4307
a(I2
I-7
tp4308
a(I3
I-7
tp4309
a(I3
I-8
tp4310
a(I2
I-8
tp4311
a(I2
I-9
tp4312
a(I1
I-9
tp4313
a(I0
I-9
tp4314
a(I0
I-10
tp4315
a(I1
I-10
tp4316
a(I1
I-11
tp4317
a(I1
I-12
tp4318
a(I0
I-12
tp4319
a(I0
I-11
tp4320
a(I-1
I-11
tp4321
a(I-1
I-12
tp4322
a(I-1
I-13
tp4323
a(I-2
I-13
tp4324
a(I-3
I-13
tp4325
a(I-4
I-13
tp4326
a(I-4
I-12
tp4327
a(I-5
I-12
tp4328
a(I-6
I-12
tp4329
a(I-6
I-13
tp4330
aI0
tp4331
a((lp4332
g3
a(I0
I-1
tp4333
a(I0
I-2
tp4334
a(I1
I-2
tp4335
a(I1
I-3
tp4336
a(I2
I-3
tp4337
a(I2
I-2
tp4338
a(I2
I-1
tp4339
a(I1
I-1
tp4340
a(I1
I0
tp4341
a(I1
I1
tp4342
a(I0
I1
tp4343
a(I-1
I1
tp4344
a(I-1
I0
tp4345
a(I-1
I-1
tp4346
a(I-1
I-2
tp4347
a(I-2
I-2
tp4348
a(I-2
I-1
tp4349
a(I-2
I0
tp4350
a(I-2
I1
tp4351
a(I-3
I1
tp4352
a(I-3
I0
tp4353
a(I-3
I-1
tp4354
a(I-4
I-1
tp4355
a(I-5
I-1
tp4356
a(I-5
I0
tp4357
a(I-6
I0
tp4358
a(I-6
I1
tp4359
a(I-6
I2
tp4360
a(I-5
I2
tp4361
a(I-5
I1
tp4362
a(I-4
I1
tp4363
a(I-4
I2
tp4364
a(I-3
I2
tp4365
a(I-2
I2
tp4366
a(I-1
I2
tp4367
aI0
tp4368
a((lp4369
g3
a(I1
I0
tp4370
a(I1
I1
tp4371
a(I2
I1
tp4372
a(I2
I2
tp4373
a(I2
I3
tp4374
a(I3
I3
tp4375
a(I3
I2
tp4376
a(I4
I2
tp4377
a(I5
I2
tp4378
a(I5
I3
tp4379
a(I6
I3
tp4380
a(I7
I3
tp4381
a(I7
I2
tp4382
a(I6
I2
tp4383
a(I6
I1
tp4384
a(I5
I1
tp4385
a(I4
I1
tp4386
a(I4
I0
tp4387
a(I5
I0
tp4388
a(I5
I-1
tp4389
a(I5
I-2
tp4390
a(I4
I-2
tp4391
a(I4
I-1
tp4392
a(I3
I-1
tp4393
a(I3
I-2
tp4394
a(I2
I-2
tp4395
a(I1
I-2
tp4396
a(I1
I-3
tp4397
a(I1
I-4
tp4398
a(I1
I-5
tp4399
a(I1
I-6
tp4400
a(I1
I-7
tp4401
a(I2
I-7
tp4402
a(I2
I-6
tp4403
a(I3
I-6
tp4404
aI0
tp4405
a((lp4406
g3
a(I0
I-1
tp4407
a(I1
I-1
tp4408
a(I2
I-1
tp4409
a(I2
I-2
tp4410
a(I2
I-3
tp4411
a(I2
I-4
tp4412
a(I3
I-4
tp4413
a(I3
I-5
tp4414
a(I2
I-5
tp4415
a(I1
I-5
tp4416
a(I1
I-4
tp4417
a(I0
I-4
tp4418
a(I0
I-5
tp4419
a(I-1
I-5
tp4420
a(I-1
I-4
tp4421
a(I-2
I-4
tp4422
a(I-2
I-5
tp4423
a(I-3
I-5
tp4424
a(I-3
I-4
tp4425
a(I-4
I-4
tp4426
a(I-5
I-4
tp4427
a(I-6
I-4
tp4428
a(I-6
I-3
tp4429
a(I-6
I-2
tp4430
a(I-7
I-2
tp4431
a(I-7
I-3
tp4432
a(I-8
I-3
tp4433
a(I-8
I-4
tp4434
a(I-7
I-4
tp4435
a(I-7
I-5
tp4436
a(I-7
I-6
tp4437
a(I-7
I-7
tp4438
a(I-8
I-7
tp4439
a(I-8
I-8
tp4440
a(I-7
I-8
tp4441
aI0
tp4442
a((lp4443
g3
a(I-1
I0
tp4444
a(I-1
I1
tp4445
a(I-1
I2
tp4446
a(I-2
I2
tp4447
a(I-2
I3
tp4448
a(I-3
I3
tp4449
a(I-4
I3
tp4450
a(I-5
I3
tp4451
a(I-5
I2
tp4452
a(I-6
I2
tp4453
a(I-7
I2
tp4454
a(I-7
I1
tp4455
a(I-6
I1
tp4456
a(I-6
I0
tp4457
a(I-6
I-1
tp4458
a(I-5
I-1
tp4459
a(I-5
I0
tp4460
a(I-5
I1
tp4461
a(I-4
I1
tp4462
a(I-4
I0
tp4463
a(I-4
I-1
tp4464
a(I-4
I-2
tp4465
a(I-4
I-3
tp4466
a(I-5
I-3
tp4467
a(I-5
I-4
tp4468
a(I-5
I-5
tp4469
a(I-6
I-5
tp4470
a(I-7
I-5
tp4471
a(I-7
I-6
tp4472
a(I-7
I-7
tp4473
a(I-7
I-8
tp4474
a(I-8
I-8
tp4475
a(I-9
I-8
tp4476
a(I-9
I-7
tp4477
a(I-8
I-7
tp4478
aI0
tp4479
a((lp4480
g3
a(I1
I0
tp4481
a(I1
I1
tp4482
a(I0
I1
tp4483
a(I-1
I1
tp4484
a(I-2
I1
tp4485
a(I-2
I2
tp4486
a(I-1
I2
tp4487
a(I0
I2
tp4488
a(I0
I3
tp4489
a(I1
I3
tp4490
a(I1
I2
tp4491
a(I2
I2
tp4492
a(I2
I1
tp4493
a(I3
I1
tp4494
a(I3
I2
tp4495
a(I3
I3
tp4496
a(I4
I3
tp4497
a(I4
I2
tp4498
a(I5
I2
tp4499
a(I5
I3
tp4500
a(I5
I4
tp4501
a(I5
I5
tp4502
a(I6
I5
tp4503
a(I6
I4
tp4504
a(I6
I3
tp4505
a(I6
I2
tp4506
a(I7
I2
tp4507
a(I8
I2
tp4508
a(I9
I2
tp4509
a(I10
I2
tp4510
a(I10
I3
tp4511
a(I11
I3
tp4512
a(I11
I4
tp4513
a(I12
I4
tp4514
a(I12
I5
tp4515
aI0
tp4516
a((lp4517
g3
a(I0
I-1
tp4518
a(I0
I-2
tp4519
a(I1
I-2
tp4520
a(I1
I-1
tp4521
a(I2
I-1
tp4522
a(I2
I0
tp4523
a(I2
I1
tp4524
a(I3
I1
tp4525
a(I3
I0
tp4526
a(I3
I-1
tp4527
a(I3
I-2
tp4528
a(I3
I-3
tp4529
a(I2
I-3
tp4530
a(I1
I-3
tp4531
a(I1
I-4
tp4532
a(I0
I-4
tp4533
a(I-1
I-4
tp4534
a(I-1
I-5
tp4535
a(I0
I-5
tp4536
a(I1
I-5
tp4537
a(I1
I-6
tp4538
a(I0
I-6
tp4539
a(I0
I-7
tp4540
a(I-1
I-7
tp4541
a(I-2
I-7
tp4542
a(I-2
I-6
tp4543
a(I-3
I-6
tp4544
a(I-4
I-6
tp4545
a(I-4
I-5
tp4546
a(I-4
I-4
tp4547
a(I-3
I-4
tp4548
a(I-2
I-4
tp4549
a(I-2
I-3
tp4550
a(I-2
I-2
tp4551
a(I-1
I-2
tp4552
aI0
tp4553
a((lp4554
g3
a(I0
I-1
tp4555
a(I0
I-2
tp4556
a(I-1
I-2
tp4557
a(I-1
I-3
tp4558
a(I-1
I-4
tp4559
a(I-1
I-5
tp4560
a(I-2
I-5
tp4561
a(I-3
I-5
tp4562
a(I-4
I-5
tp4563
a(I-5
I-5
tp4564
a(I-5
I-4
tp4565
a(I-6
I-4
tp4566
a(I-6
I-3
tp4567
a(I-5
I-3
tp4568
a(I-5
I-2
tp4569
a(I-5
I-1
tp4570
a(I-4
I-1
tp4571
a(I-4
I-2
tp4572
a(I-3
I-2
tp4573
a(I-2
I-2
tp4574
a(I-2
I-1
tp4575
a(I-2
I0
tp4576
a(I-2
I1
tp4577
a(I-1
I1
tp4578
a(I-1
I2
tp4579
a(I-2
I2
tp4580
a(I-3
I2
tp4581
a(I-4
I2
tp4582
a(I-4
I1
tp4583
a(I-4
I0
tp4584
a(I-5
I0
tp4585
a(I-5
I1
tp4586
a(I-5
I2
tp4587
a(I-5
I3
tp4588
a(I-4
I3
tp4589
aI0
tp4590
a((lp4591
g3
a(I0
I1
tp4592
a(I1
I1
tp4593
a(I1
I0
tp4594
a(I2
I0
tp4595
a(I2
I-1
tp4596
a(I3
I-1
tp4597
a(I3
I0
tp4598
a(I3
I1
tp4599
a(I3
I2
tp4600
a(I4
I2
tp4601
a(I4
I1
tp4602
a(I5
I1
tp4603
a(I5
I2
tp4604
a(I6
I2
tp4605
a(I7
I2
tp4606
a(I7
I3
tp4607
a(I7
I4
tp4608
a(I7
I5
tp4609
a(I7
I6
tp4610
a(I6
I6
tp4611
a(I5
I6
tp4612
a(I5
I7
tp4613
a(I6
I7
tp4614
a(I7
I7
tp4615
a(I7
I8
tp4616
a(I6
I8
tp4617
a(I6
I9
tp4618
a(I7
I9
tp4619
a(I8
I9
tp4620
a(I8
I8
tp4621
a(I8
I7
tp4622
a(I8
I6
tp4623
a(I8
I5
tp4624
a(I9
I5
tp4625
a(I9
I6
tp4626
aI0
tp4627
a((lp4628
g3
a(I0
I1
tp4629
a(I-1
I1
tp4630
a(I-1
I2
tp4631
a(I-1
I3
tp4632
a(I-2
I3
tp4633
a(I-2
I4
tp4634
a(I-3
I4
tp4635
a(I-3
I3
tp4636
a(I-3
I2
tp4637
a(I-3
I1
tp4638
a(I-4
I1
tp4639
a(I-4
I0
tp4640
a(I-3
I0
tp4641
a(I-3
I-1
tp4642
a(I-2
I-1
tp4643
a(I-2
I-2
tp4644
a(I-2
I-3
tp4645
a(I-2
I-4
tp4646
a(I-1
I-4
tp4647
a(I-1
I-3
tp4648
a(I0
I-3
tp4649
a(I0
I-2
tp4650
a(I-1
I-2
tp4651
a(I-1
I-1
tp4652
a(I0
I-1
tp4653
a(I1
I-1
tp4654
a(I1
I0
tp4655
a(I1
I1
tp4656
a(I2
I1
tp4657
a(I3
I1
tp4658
a(I3
I2
tp4659
a(I2
I2
tp4660
a(I2
I3
tp4661
a(I3
I3
tp4662
a(I3
I4
tp4663
aI0
tp4664
a((lp4665
g3
a(I0
I1
tp4666
a(I1
I1
tp4667
a(I2
I1
tp4668
a(I2
I2
tp4669
a(I3
I2
tp4670
a(I3
I3
tp4671
a(I2
I3
tp4672
a(I2
I4
tp4673
a(I2
I5
tp4674
a(I2
I6
tp4675
a(I1
I6
tp4676
a(I0
I6
tp4677
a(I-1
I6
tp4678
a(I-1
I5
tp4679
a(I-2
I5
tp4680
a(I-3
I5
tp4681
a(I-4
I5
tp4682
a(I-4
I6
tp4683
a(I-3
I6
tp4684
a(I-3
I7
tp4685
a(I-4
I7
tp4686
a(I-4
I8
tp4687
a(I-3
I8
tp4688
a(I-2
I8
tp4689
a(I-2
I9
tp4690
a(I-2
I10
tp4691
a(I-3
I10
tp4692
a(I-3
I11
tp4693
a(I-4
I11
tp4694
a(I-5
I11
tp4695
a(I-5
I10
tp4696
a(I-6
I10
tp4697
a(I-7
I10
tp4698
a(I-7
I11
tp4699
a(I-6
I11
tp4700
aI0
tp4701
a((lp4702
g3
a(I0
I1
tp4703
a(I0
I2
tp4704
a(I1
I2
tp4705
a(I1
I1
tp4706
a(I1
I0
tp4707
a(I2
I0
tp4708
a(I2
I-1
tp4709
a(I2
I-2
tp4710
a(I1
I-2
tp4711
a(I1
I-1
tp4712
a(I0
I-1
tp4713
a(I-1
I-1
tp4714
a(I-2
I-1
tp4715
a(I-2
I-2
tp4716
a(I-3
I-2
tp4717
a(I-3
I-3
tp4718
a(I-4
I-3
tp4719
a(I-4
I-2
tp4720
a(I-5
I-2
tp4721
a(I-6
I-2
tp4722
a(I-7
I-2
tp4723
a(I-7
I-1
tp4724
a(I-6
I-1
tp4725
a(I-5
I-1
tp4726
a(I-5
I0
tp4727
a(I-5
I1
tp4728
a(I-5
I2
tp4729
a(I-4
I2
tp4730
a(I-4
I3
tp4731
a(I-5
I3
tp4732
a(I-6
I3
tp4733
a(I-6
I4
tp4734
a(I-5
I4
tp4735
a(I-4
I4
tp4736
a(I-4
I5
tp4737
aI0
tp4738
a((lp4739
g3
a(I-1
I0
tp4740
a(I-2
I0
tp4741
a(I-2
I-1
tp4742
a(I-3
I-1
tp4743
a(I-3
I-2
tp4744
a(I-2
I-2
tp4745
a(I-1
I-2
tp4746
a(I0
I-2
tp4747
a(I0
I-1
tp4748
a(I1
I-1
tp4749
a(I1
I-2
tp4750
a(I1
I-3
tp4751
a(I2
I-3
tp4752
a(I3
I-3
tp4753
a(I4
I-3
tp4754
a(I4
I-2
tp4755
a(I5
I-2
tp4756
a(I5
I-3
tp4757
a(I6
I-3
tp4758
a(I6
I-2
tp4759
a(I6
I-1
tp4760
a(I6
I0
tp4761
a(I5
I0
tp4762
a(I5
I-1
tp4763
a(I4
I-1
tp4764
a(I4
I0
tp4765
a(I4
I1
tp4766
a(I3
I1
tp4767
a(I3
I2
tp4768
a(I4
I2
tp4769
a(I5
I2
tp4770
a(I5
I1
tp4771
a(I6
I1
tp4772
a(I7
I1
tp4773
a(I7
I0
tp4774
aI0
tp4775
a((lp4776
g3
a(I0
I1
tp4777
a(I-1
I1
tp4778
a(I-1
I0
tp4779
a(I-2
I0
tp4780
a(I-3
I0
tp4781
a(I-4
I0
tp4782
a(I-4
I-1
tp4783
a(I-5
I-1
tp4784
a(I-6
I-1
tp4785
a(I-7
I-1
tp4786
a(I-7
I0
tp4787
a(I-7
I1
tp4788
a(I-8
I1
tp4789
a(I-8
I0
tp4790
a(I-8
I-1
tp4791
a(I-9
I-1
tp4792
a(I-10
I-1
tp4793
a(I-10
I0
tp4794
a(I-9
I0
tp4795
a(I-9
I1
tp4796
a(I-9
I2
tp4797
a(I-8
I2
tp4798
a(I-8
I3
tp4799
a(I-8
I4
tp4800
a(I-9
I4
tp4801
a(I-10
I4
tp4802
a(I-11
I4
tp4803
a(I-12
I4
tp4804
a(I-12
I5
tp4805
a(I-12
I6
tp4806
a(I-12
I7
tp4807
a(I-12
I8
tp4808
a(I-11
I8
tp4809
a(I-11
I7
tp4810
a(I-11
I6
tp4811
aI0
tp4812
a((lp4813
g3
a(I1
I0
tp4814
a(I2
I0
tp4815
a(I3
I0
tp4816
a(I4
I0
tp4817
a(I4
I1
tp4818
a(I5
I1
tp4819
a(I5
I0
tp4820
a(I6
I0
tp4821
a(I6
I1
tp4822
a(I7
I1
tp4823
a(I7
I0
tp4824
a(I8
I0
tp4825
a(I8
I1
tp4826
a(I8
I2
tp4827
a(I8
I3
tp4828
a(I8
I4
tp4829
a(I9
I4
tp4830
a(I10
I4
tp4831
a(I11
I4
tp4832
a(I11
I5
tp4833
a(I11
I6
tp4834
a(I10
I6
tp4835
a(I10
I5
tp4836
a(I9
I5
tp4837
a(I8
I5
tp4838
a(I8
I6
tp4839
a(I8
I7
tp4840
a(I7
I7
tp4841
a(I7
I8
tp4842
a(I6
I8
tp4843
a(I6
I7
tp4844
a(I5
I7
tp4845
a(I4
I7
tp4846
a(I3
I7
tp4847
a(I3
I6
tp4848
aI0
tp4849
a((lp4850
g3
a(I0
I1
tp4851
a(I-1
I1
tp4852
a(I-2
I1
tp4853
a(I-2
I0
tp4854
a(I-3
I0
tp4855
a(I-4
I0
tp4856
a(I-4
I1
tp4857
a(I-5
I1
tp4858
a(I-6
I1
tp4859
a(I-7
I1
tp4860
a(I-7
I0
tp4861
a(I-6
I0
tp4862
a(I-6
I-1
tp4863
a(I-6
I-2
tp4864
a(I-7
I-2
tp4865
a(I-8
I-2
tp4866
a(I-8
I-1
tp4867
a(I-8
I0
tp4868
a(I-9
I0
tp4869
a(I-9
I1
tp4870
a(I-10
I1
tp4871
a(I-11
I1
tp4872
a(I-11
I2
tp4873
a(I-10
I2
tp4874
a(I-9
I2
tp4875
a(I-9
I3
tp4876
a(I-9
I4
tp4877
a(I-8
I4
tp4878
a(I-8
I5
tp4879
a(I-8
I6
tp4880
a(I-7
I6
tp4881
a(I-6
I6
tp4882
a(I-6
I5
tp4883
a(I-7
I5
tp4884
a(I-7
I4
tp4885
aI0
tp4886
a((lp4887
g3
a(I0
I1
tp4888
a(I1
I1
tp4889
a(I1
I2
tp4890
a(I2
I2
tp4891
a(I3
I2
tp4892
a(I4
I2
tp4893
a(I4
I3
tp4894
a(I5
I3
tp4895
a(I6
I3
tp4896
a(I7
I3
tp4897
a(I7
I4
tp4898
a(I8
I4
tp4899
a(I8
I5
tp4900
a(I7
I5
tp4901
a(I6
I5
tp4902
a(I6
I6
tp4903
a(I6
I7
tp4904
a(I6
I8
tp4905
a(I7
I8
tp4906
a(I8
I8
tp4907
a(I8
I9
tp4908
a(I9
I9
tp4909
a(I10
I9
tp4910
a(I10
I10
tp4911
a(I11
I10
tp4912
a(I12
I10
tp4913
a(I12
I11
tp4914
a(I13
I11
tp4915
a(I13
I12
tp4916
a(I12
I12
tp4917
a(I12
I13
tp4918
a(I11
I13
tp4919
a(I11
I14
tp4920
a(I10
I14
tp4921
a(I10
I13
tp4922
aI0
tp4923
a((lp4924
g3
a(I1
I0
tp4925
a(I2
I0
tp4926
a(I3
I0
tp4927
a(I3
I-1
tp4928
a(I3
I-2
tp4929
a(I4
I-2
tp4930
a(I5
I-2
tp4931
a(I5
I-1
tp4932
a(I6
I-1
tp4933
a(I6
I0
tp4934
a(I5
I0
tp4935
a(I5
I1
tp4936
a(I6
I1
tp4937
a(I6
I2
tp4938
a(I6
I3
tp4939
a(I5
I3
tp4940
a(I5
I2
tp4941
a(I4
I2
tp4942
a(I3
I2
tp4943
a(I3
I3
tp4944
a(I2
I3
tp4945
a(I1
I3
tp4946
a(I0
I3
tp4947
a(I-1
I3
tp4948
a(I-2
I3
tp4949
a(I-3
I3
tp4950
a(I-4
I3
tp4951
a(I-4
I4
tp4952
a(I-3
I4
tp4953
a(I-2
I4
tp4954
a(I-2
I5
tp4955
a(I-1
I5
tp4956
a(I0
I5
tp4957
a(I0
I6
tp4958
a(I-1
I6
tp4959
aI0
tp4960
a((lp4961
g3
a(I-1
I0
tp4962
a(I-1
I1
tp4963
a(I-1
I2
tp4964
a(I-2
I2
tp4965
a(I-2
I3
tp4966
a(I-3
I3
tp4967
a(I-3
I4
tp4968
a(I-3
I5
tp4969
a(I-3
I6
tp4970
a(I-3
I7
tp4971
a(I-4
I7
tp4972
a(I-4
I6
tp4973
a(I-5
I6
tp4974
a(I-6
I6
tp4975
a(I-6
I5
tp4976
a(I-6
I4
tp4977
a(I-6
I3
tp4978
a(I-7
I3
tp4979
a(I-8
I3
tp4980
a(I-9
I3
tp4981
a(I-9
I4
tp4982
a(I-10
I4
tp4983
a(I-10
I5
tp4984
a(I-9
I5
tp4985
a(I-8
I5
tp4986
a(I-7
I5
tp4987
a(I-7
I6
tp4988
a(I-8
I6
tp4989
a(I-9
I6
tp4990
a(I-10
I6
tp4991
a(I-10
I7
tp4992
a(I-10
I8
tp4993
a(I-10
I9
tp4994
a(I-11
I9
tp4995
a(I-11
I8
tp4996
aI0
tp4997
a((lp4998
g3
a(I0
I-1
tp4999
a(I1
I-1
tp5000
a(I2
I-1
tp5001
a(I3
I-1
tp5002
a(I3
I0
tp5003
a(I2
I0
tp5004
a(I2
I1
tp5005
a(I3
I1
tp5006
a(I3
I2
tp5007
a(I4
I2
tp5008
a(I5
I2
tp5009
a(I5
I3
tp5010
a(I6
I3
tp5011
a(I6
I4
tp5012
a(I7
I4
tp5013
a(I7
I5
tp5014
a(I7
I6
tp5015
a(I7
I7
tp5016
a(I7
I8
tp5017
a(I8
I8
tp5018
a(I8
I9
tp5019
a(I9
I9
tp5020
a(I9
I10
tp5021
a(I9
I11
tp5022
a(I9
I12
tp5023
a(I8
I12
tp5024
a(I8
I13
tp5025
a(I7
I13
tp5026
a(I7
I12
tp5027
a(I7
I11
tp5028
a(I7
I10
tp5029
a(I6
I10
tp5030
a(I6
I11
tp5031
a(I6
I12
tp5032
a(I5
I12
tp5033
aI0
tp5034
a((lp5035
g3
a(I1
I0
tp5036
a(I1
I1
tp5037
a(I1
I2
tp5038
a(I2
I2
tp5039
a(I2
I3
tp5040
a(I2
I4
tp5041
a(I2
I5
tp5042
a(I2
I6
tp5043
a(I2
I7
tp5044
a(I1
I7
tp5045
a(I1
I6
tp5046
a(I0
I6
tp5047
a(I-1
I6
tp5048
a(I-2
I6
tp5049
a(I-2
I7
tp5050
a(I-1
I7
tp5051
a(I0
I7
tp5052
a(I0
I8
tp5053
a(I1
I8
tp5054
a(I1
I9
tp5055
a(I0
I9
tp5056
a(I-1
I9
tp5057
a(I-1
I10
tp5058
a(I-2
I10
tp5059
a(I-2
I11
tp5060
a(I-3
I11
tp5061
a(I-3
I12
tp5062
a(I-3
I13
tp5063
a(I-3
I14
tp5064
a(I-4
I14
tp5065
a(I-4
I13
tp5066
a(I-5
I13
tp5067
a(I-6
I13
tp5068
a(I-6
I14
tp5069
a(I-7
I14
tp5070
aI0
tp5071
a((lp5072
g3
a(I1
I0
tp5073
a(I1
I1
tp5074
a(I1
I2
tp5075
a(I0
I2
tp5076
a(I-1
I2
tp5077
a(I-2
I2
tp5078
a(I-3
I2
tp5079
a(I-3
I3
tp5080
a(I-2
I3
tp5081
a(I-1
I3
tp5082
a(I0
I3
tp5083
a(I1
I3
tp5084
a(I2
I3
tp5085
a(I2
I2
tp5086
a(I3
I2
tp5087
a(I4
I2
tp5088
a(I5
I2
tp5089
a(I5
I3
tp5090
a(I4
I3
tp5091
a(I4
I4
tp5092
a(I4
I5
tp5093
a(I4
I6
tp5094
a(I4
I7
tp5095
a(I5
I7
tp5096
a(I6
I7
tp5097
a(I6
I6
tp5098
a(I5
I6
tp5099
a(I5
I5
tp5100
a(I5
I4
tp5101
a(I6
I4
tp5102
a(I7
I4
tp5103
a(I7
I3
tp5104
a(I8
I3
tp5105
a(I9
I3
tp5106
a(I9
I4
tp5107
aI0
tp5108
a((lp5109
g3
a(I0
I1
tp5110
a(I-1
I1
tp5111
a(I-1
I2
tp5112
a(I0
I2
tp5113
a(I0
I3
tp5114
a(I0
I4
tp5115
a(I0
I5
tp5116
a(I0
I6
tp5117
a(I0
I7
tp5118
a(I-1
I7
tp5119
a(I-1
I6
tp5120
a(I-2
I6
tp5121
a(I-2
I7
tp5122
a(I-3
I7
tp5123
a(I-4
I7
tp5124
a(I-5
I7
tp5125
a(I-5
I8
tp5126
a(I-6
I8
tp5127
a(I-6
I9
tp5128
a(I-7
I9
tp5129
a(I-7
I8
tp5130
a(I-8
I8
tp5131
a(I-8
I9
tp5132
a(I-9
I9
tp5133
a(I-10
I9
tp5134
a(I-10
I10
tp5135
a(I-11
I10
tp5136
a(I-11
I11
tp5137
a(I-11
I12
tp5138
a(I-12
I12
tp5139
a(I-13
I12
tp5140
a(I-13
I13
tp5141
a(I-14
I13
tp5142
a(I-14
I14
tp5143
a(I-15
I14
tp5144
aI0
tp5145
a((lp5146
g3
a(I1
I0
tp5147
a(I2
I0
tp5148
a(I2
I1
tp5149
a(I1
I1
tp5150
a(I0
I1
tp5151
a(I0
I2
tp5152
a(I1
I2
tp5153
a(I2
I2
tp5154
a(I3
I2
tp5155
a(I3
I3
tp5156
a(I3
I4
tp5157
a(I4
I4
tp5158
a(I4
I5
tp5159
a(I5
I5
tp5160
a(I6
I5
tp5161
a(I6
I4
tp5162
a(I7
I4
tp5163
a(I8
I4
tp5164
a(I9
I4
tp5165
a(I10
I4
tp5166
a(I10
I5
tp5167
a(I10
I6
tp5168
a(I9
I6
tp5169
a(I9
I7
tp5170
a(I8
I7
tp5171
a(I8
I6
tp5172
a(I8
I5
tp5173
a(I7
I5
tp5174
a(I7
I6
tp5175
a(I6
I6
tp5176
a(I6
I7
tp5177
a(I5
I7
tp5178
a(I5
I6
tp5179
a(I4
I6
tp5180
a(I3
I6
tp5181
aI0
tp5182
a((lp5183
g3
a(I-1
I0
tp5184
a(I-2
I0
tp5185
a(I-2
I1
tp5186
a(I-2
I2
tp5187
a(I-3
I2
tp5188
a(I-3
I1
tp5189
a(I-4
I1
tp5190
a(I-5
I1
tp5191
a(I-5
I0
tp5192
a(I-4
I0
tp5193
a(I-4
I-1
tp5194
a(I-4
I-2
tp5195
a(I-4
I-3
tp5196
a(I-4
I-4
tp5197
a(I-3
I-4
tp5198
a(I-3
I-5
tp5199
a(I-2
I-5
tp5200
a(I-1
I-5
tp5201
a(I0
I-5
tp5202
a(I1
I-5
tp5203
a(I1
I-6
tp5204
a(I1
I-7
tp5205
a(I2
I-7
tp5206
a(I2
I-8
tp5207
a(I3
I-8
tp5208
a(I3
I-7
tp5209
a(I4
I-7
tp5210
a(I5
I-7
tp5211
a(I6
I-7
tp5212
a(I6
I-6
tp5213
a(I7
I-6
tp5214
a(I8
I-6
tp5215
a(I9
I-6
tp5216
a(I10
I-6
tp5217
a(I11
I-6
tp5218
aI0
tp5219
a((lp5220
g3
a(I0
I1
tp5221
a(I1
I1
tp5222
a(I1
I2
tp5223
a(I1
I3
tp5224
a(I0
I3
tp5225
a(I0
I2
tp5226
a(I-1
I2
tp5227
a(I-1
I3
tp5228
a(I-1
I4
tp5229
a(I-1
I5
tp5230
a(I-1
I6
tp5231
a(I-1
I7
tp5232
a(I-2
I7
tp5233
a(I-2
I8
tp5234
a(I-2
I9
tp5235
a(I-1
I9
tp5236
a(I-1
I10
tp5237
a(I-2
I10
tp5238
a(I-2
I11
tp5239
a(I-3
I11
tp5240
a(I-4
I11
tp5241
a(I-4
I10
tp5242
a(I-4
I9
tp5243
a(I-3
I9
tp5244
a(I-3
I8
tp5245
a(I-4
I8
tp5246
a(I-4
I7
tp5247
a(I-5
I7
tp5248
a(I-6
I7
tp5249
a(I-7
I7
tp5250
a(I-7
I8
tp5251
a(I-8
I8
tp5252
a(I-8
I7
tp5253
a(I-9
I7
tp5254
a(I-9
I6
tp5255
aI0
tp5256
a((lp5257
g3
a(I1
I0
tp5258
a(I1
I-1
tp5259
a(I2
I-1
tp5260
a(I3
I-1
tp5261
a(I4
I-1
tp5262
a(I4
I-2
tp5263
a(I5
I-2
tp5264
a(I6
I-2
tp5265
a(I6
I-1
tp5266
a(I5
I-1
tp5267
a(I5
I0
tp5268
a(I5
I1
tp5269
a(I4
I1
tp5270
a(I4
I0
tp5271
a(I3
I0
tp5272
a(I3
I1
tp5273
a(I2
I1
tp5274
a(I2
I2
tp5275
a(I3
I2
tp5276
a(I3
I3
tp5277
a(I3
I4
tp5278
a(I2
I4
tp5279
a(I2
I3
tp5280
a(I1
I3
tp5281
a(I1
I4
tp5282
a(I1
I5
tp5283
a(I2
I5
tp5284
a(I3
I5
tp5285
a(I4
I5
tp5286
a(I5
I5
tp5287
a(I5
I4
tp5288
a(I5
I3
tp5289
a(I5
I2
tp5290
a(I4
I2
tp5291
a(I4
I3
tp5292
aI0
tp5293
a((lp5294
g3
a(I1
I0
tp5295
a(I1
I-1
tp5296
a(I2
I-1
tp5297
a(I2
I-2
tp5298
a(I3
I-2
tp5299
a(I3
I-3
tp5300
a(I4
I-3
tp5301
a(I4
I-4
tp5302
a(I3
I-4
tp5303
a(I3
I-5
tp5304
a(I2
I-5
tp5305
a(I2
I-6
tp5306
a(I2
I-7
tp5307
a(I3
I-7
tp5308
a(I3
I-8
tp5309
a(I4
I-8
tp5310
a(I4
I-9
tp5311
a(I4
I-10
tp5312
a(I3
I-10
tp5313
a(I3
I-11
tp5314
a(I3
I-12
tp5315
a(I3
I-13
tp5316
a(I3
I-14
tp5317
a(I4
I-14
tp5318
a(I4
I-15
tp5319
a(I4
I-16
tp5320
a(I3
I-16
tp5321
a(I3
I-15
tp5322
a(I2
I-15
tp5323
a(I2
I-14
tp5324
a(I2
I-13
tp5325
a(I1
I-13
tp5326
a(I0
I-13
tp5327
a(I-1
I-13
tp5328
a(I-1
I-14
tp5329
aI0
tp5330
a((lp5331
g3
a(I-1
I0
tp5332
a(I-1
I-1
tp5333
a(I-1
I-2
tp5334
a(I-2
I-2
tp5335
a(I-2
I-1
tp5336
a(I-2
I0
tp5337
a(I-3
I0
tp5338
a(I-3
I-1
tp5339
a(I-4
I-1
tp5340
a(I-4
I-2
tp5341
a(I-3
I-2
tp5342
a(I-3
I-3
tp5343
a(I-3
I-4
tp5344
a(I-4
I-4
tp5345
a(I-5
I-4
tp5346
a(I-5
I-5
tp5347
a(I-6
I-5
tp5348
a(I-6
I-4
tp5349
a(I-6
I-3
tp5350
a(I-7
I-3
tp5351
a(I-7
I-4
tp5352
a(I-8
I-4
tp5353
a(I-9
I-4
tp5354
a(I-9
I-3
tp5355
a(I-10
I-3
tp5356
a(I-10
I-4
tp5357
a(I-11
I-4
tp5358
a(I-11
I-3
tp5359
a(I-12
I-3
tp5360
a(I-13
I-3
tp5361
a(I-13
I-4
tp5362
a(I-14
I-4
tp5363
a(I-14
I-5
tp5364
a(I-13
I-5
tp5365
a(I-13
I-6
tp5366
aI0
tp5367
a((lp5368
g3
a(I-1
I0
tp5369
a(I-2
I0
tp5370
a(I-2
I-1
tp5371
a(I-3
I-1
tp5372
a(I-3
I-2
tp5373
a(I-3
I-3
tp5374
a(I-4
I-3
tp5375
a(I-4
I-4
tp5376
a(I-4
I-5
tp5377
a(I-4
I-6
tp5378
a(I-4
I-7
tp5379
a(I-5
I-7
tp5380
a(I-5
I-6
tp5381
a(I-6
I-6
tp5382
a(I-6
I-5
tp5383
a(I-7
I-5
tp5384
a(I-7
I-4
tp5385
a(I-7
I-3
tp5386
a(I-6
I-3
tp5387
a(I-5
I-3
tp5388
a(I-5
I-2
tp5389
a(I-6
I-2
tp5390
a(I-7
I-2
tp5391
a(I-7
I-1
tp5392
a(I-6
I-1
tp5393
a(I-6
I0
tp5394
a(I-6
I1
tp5395
a(I-6
I2
tp5396
a(I-7
I2
tp5397
a(I-7
I3
tp5398
a(I-8
I3
tp5399
a(I-8
I4
tp5400
a(I-9
I4
tp5401
a(I-9
I5
tp5402
a(I-10
I5
tp5403
aI0
tp5404
a((lp5405
g3
a(I1
I0
tp5406
a(I2
I0
tp5407
a(I2
I-1
tp5408
a(I3
I-1
tp5409
a(I3
I-2
tp5410
a(I4
I-2
tp5411
a(I4
I-1
tp5412
a(I4
I0
tp5413
a(I4
I1
tp5414
a(I4
I2
tp5415
a(I5
I2
tp5416
a(I6
I2
tp5417
a(I6
I3
tp5418
a(I6
I4
tp5419
a(I6
I5
tp5420
a(I6
I6
tp5421
a(I5
I6
tp5422
a(I5
I5
tp5423
a(I5
I4
tp5424
a(I5
I3
tp5425
a(I4
I3
tp5426
a(I3
I3
tp5427
a(I2
I3
tp5428
a(I1
I3
tp5429
a(I0
I3
tp5430
a(I0
I4
tp5431
a(I-1
I4
tp5432
a(I-1
I3
tp5433
a(I-1
I2
tp5434
a(I0
I2
tp5435
a(I1
I2
tp5436
a(I2
I2
tp5437
a(I3
I2
tp5438
a(I3
I1
tp5439
a(I3
I0
tp5440
aI0
tp5441
a((lp5442
g3
a(I0
I1
tp5443
a(I0
I2
tp5444
a(I0
I3
tp5445
a(I1
I3
tp5446
a(I1
I4
tp5447
a(I0
I4
tp5448
a(I-1
I4
tp5449
a(I-2
I4
tp5450
a(I-2
I5
tp5451
a(I-3
I5
tp5452
a(I-3
I6
tp5453
a(I-3
I7
tp5454
a(I-3
I8
tp5455
a(I-3
I9
tp5456
a(I-2
I9
tp5457
a(I-2
I10
tp5458
a(I-3
I10
tp5459
a(I-4
I10
tp5460
a(I-5
I10
tp5461
a(I-5
I11
tp5462
a(I-5
I12
tp5463
a(I-5
I13
tp5464
a(I-6
I13
tp5465
a(I-6
I12
tp5466
a(I-6
I11
tp5467
a(I-6
I10
tp5468
a(I-6
I9
tp5469
a(I-6
I8
tp5470
a(I-7
I8
tp5471
a(I-7
I7
tp5472
a(I-8
I7
tp5473
a(I-8
I6
tp5474
a(I-7
I6
tp5475
a(I-6
I6
tp5476
a(I-5
I6
tp5477
aI0
tp5478
a((lp5479
g3
a(I-1
I0
tp5480
a(I-1
I-1
tp5481
a(I0
I-1
tp5482
a(I0
I-2
tp5483
a(I0
I-3
tp5484
a(I0
I-4
tp5485
a(I0
I-5
tp5486
a(I1
I-5
tp5487
a(I1
I-6
tp5488
a(I0
I-6
tp5489
a(I0
I-7
tp5490
a(I0
I-8
tp5491
a(I1
I-8
tp5492
a(I1
I-7
tp5493
a(I2
I-7
tp5494
a(I2
I-6
tp5495
a(I2
I-5
tp5496
a(I3
I-5
tp5497
a(I3
I-6
tp5498
a(I4
I-6
tp5499
a(I4
I-5
tp5500
a(I4
I-4
tp5501
a(I3
I-4
tp5502
a(I2
I-4
tp5503
a(I1
I-4
tp5504
a(I1
I-3
tp5505
a(I2
I-3
tp5506
a(I2
I-2
tp5507
a(I2
I-1
tp5508
a(I2
I0
tp5509
a(I3
I0
tp5510
a(I3
I-1
tp5511
a(I4
I-1
tp5512
a(I4
I-2
tp5513
a(I4
I-3
tp5514
aI0
tp5515
a((lp5516
g3
a(I0
I1
tp5517
a(I-1
I1
tp5518
a(I-2
I1
tp5519
a(I-2
I0
tp5520
a(I-1
I0
tp5521
a(I-1
I-1
tp5522
a(I-1
I-2
tp5523
a(I-1
I-3
tp5524
a(I-2
I-3
tp5525
a(I-2
I-4
tp5526
a(I-3
I-4
tp5527
a(I-4
I-4
tp5528
a(I-5
I-4
tp5529
a(I-5
I-3
tp5530
a(I-6
I-3
tp5531
a(I-7
I-3
tp5532
a(I-8
I-3
tp5533
a(I-9
I-3
tp5534
a(I-10
I-3
tp5535
a(I-10
I-2
tp5536
a(I-9
I-2
tp5537
a(I-8
I-2
tp5538
a(I-7
I-2
tp5539
a(I-6
I-2
tp5540
a(I-6
I-1
tp5541
a(I-7
I-1
tp5542
a(I-8
I-1
tp5543
a(I-8
I0
tp5544
a(I-9
I0
tp5545
a(I-9
I-1
tp5546
a(I-10
I-1
tp5547
a(I-10
I0
tp5548
a(I-10
I1
tp5549
a(I-9
I1
tp5550
a(I-8
I1
tp5551
aI0
tp5552
a((lp5553
g3
a(I0
I-1
tp5554
a(I-1
I-1
tp5555
a(I-1
I0
tp5556
a(I-1
I1
tp5557
a(I-1
I2
tp5558
a(I0
I2
tp5559
a(I0
I3
tp5560
a(I0
I4
tp5561
a(I-1
I4
tp5562
a(I-1
I5
tp5563
a(I0
I5
tp5564
a(I0
I6
tp5565
a(I1
I6
tp5566
a(I1
I7
tp5567
a(I2
I7
tp5568
a(I3
I7
tp5569
a(I4
I7
tp5570
a(I4
I8
tp5571
a(I3
I8
tp5572
a(I2
I8
tp5573
a(I1
I8
tp5574
a(I0
I8
tp5575
a(I-1
I8
tp5576
a(I-2
I8
tp5577
a(I-2
I7
tp5578
a(I-2
I6
tp5579
a(I-2
I5
tp5580
a(I-3
I5
tp5581
a(I-3
I6
tp5582
a(I-3
I7
tp5583
a(I-4
I7
tp5584
a(I-4
I8
tp5585
a(I-3
I8
tp5586
a(I-3
I9
tp5587
a(I-2
I9
tp5588
aI0
tp5589
a((lp5590
g3
a(I0
I-1
tp5591
a(I1
I-1
tp5592
a(I1
I-2
tp5593
a(I2
I-2
tp5594
a(I2
I-3
tp5595
a(I1
I-3
tp5596
a(I1
I-4
tp5597
a(I0
I-4
tp5598
a(I0
I-3
tp5599
a(I-1
I-3
tp5600
a(I-1
I-4
tp5601
a(I-2
I-4
tp5602
a(I-2
I-3
tp5603
a(I-2
I-2
tp5604
a(I-2
I-1
tp5605
a(I-1
I-1
tp5606
a(I-1
I0
tp5607
a(I-2
I0
tp5608
a(I-3
I0
tp5609
a(I-4
I0
tp5610
a(I-5
I0
tp5611
a(I-6
I0
tp5612
a(I-6
I-1
tp5613
a(I-6
I-2
tp5614
a(I-6
I-3
tp5615
a(I-7
I-3
tp5616
a(I-7
I-2
tp5617
a(I-7
I-1
tp5618
a(I-7
I0
tp5619
a(I-7
I1
tp5620
a(I-6
I1
tp5621
a(I-6
I2
tp5622
a(I-5
I2
tp5623
a(I-4
I2
tp5624
a(I-4
I1
tp5625
aI0
tp5626
a((lp5627
g3
a(I-1
I0
tp5628
a(I-1
I-1
tp5629
a(I-2
I-1
tp5630
a(I-2
I-2
tp5631
a(I-3
I-2
tp5632
a(I-3
I-1
tp5633
a(I-3
I0
tp5634
a(I-3
I1
tp5635
a(I-4
I1
tp5636
a(I-4
I2
tp5637
a(I-5
I2
tp5638
a(I-5
I1
tp5639
a(I-6
I1
tp5640
a(I-6
I0
tp5641
a(I-7
I0
tp5642
a(I-8
I0
tp5643
a(I-8
I-1
tp5644
a(I-9
I-1
tp5645
a(I-9
I-2
tp5646
a(I-8
I-2
tp5647
a(I-8
I-3
tp5648
a(I-7
I-3
tp5649
a(I-7
I-4
tp5650
a(I-6
I-4
tp5651
a(I-6
I-3
tp5652
a(I-5
I-3
tp5653
a(I-4
I-3
tp5654
a(I-4
I-2
tp5655
a(I-4
I-1
tp5656
a(I-4
I0
tp5657
a(I-5
I0
tp5658
a(I-5
I-1
tp5659
a(I-5
I-2
tp5660
a(I-6
I-2
tp5661
a(I-7
I-2
tp5662
aI0
tp5663
a((lp5664
g3
a(I1
I0
tp5665
a(I1
I-1
tp5666
a(I2
I-1
tp5667
a(I2
I-2
tp5668
a(I2
I-3
tp5669
a(I2
I-4
tp5670
a(I1
I-4
tp5671
a(I1
I-5
tp5672
a(I1
I-6
tp5673
a(I1
I-7
tp5674
a(I1
I-8
tp5675
a(I2
I-8
tp5676
a(I3
I-8
tp5677
a(I3
I-7
tp5678
a(I2
I-7
tp5679
a(I2
I-6
tp5680
a(I3
I-6
tp5681
a(I3
I-5
tp5682
a(I3
I-4
tp5683
a(I4
I-4
tp5684
a(I4
I-3
tp5685
a(I5
I-3
tp5686
a(I6
I-3
tp5687
a(I6
I-2
tp5688
a(I5
I-2
tp5689
a(I5
I-1
tp5690
a(I4
I-1
tp5691
a(I3
I-1
tp5692
a(I3
I0
tp5693
a(I2
I0
tp5694
a(I2
I1
tp5695
a(I1
I1
tp5696
a(I0
I1
tp5697
a(I-1
I1
tp5698
a(I-1
I2
tp5699
aI0
tp5700
a((lp5701
g3
a(I0
I1
tp5702
a(I0
I2
tp5703
a(I0
I3
tp5704
a(I-1
I3
tp5705
a(I-1
I4
tp5706
a(I0
I4
tp5707
a(I1
I4
tp5708
a(I1
I5
tp5709
a(I2
I5
tp5710
a(I2
I4
tp5711
a(I2
I3
tp5712
a(I2
I2
tp5713
a(I3
I2
tp5714
a(I4
I2
tp5715
a(I5
I2
tp5716
a(I5
I3
tp5717
a(I4
I3
tp5718
a(I3
I3
tp5719
a(I3
I4
tp5720
a(I3
I5
tp5721
a(I3
I6
tp5722
a(I3
I7
tp5723
a(I2
I7
tp5724
a(I2
I8
tp5725
a(I3
I8
tp5726
a(I4
I8
tp5727
a(I4
I9
tp5728
a(I5
I9
tp5729
a(I5
I10
tp5730
a(I4
I10
tp5731
a(I3
I10
tp5732
a(I2
I10
tp5733
a(I1
I10
tp5734
a(I1
I11
tp5735
a(I1
I12
tp5736
aI0
tp5737
a((lp5738
g3
a(I1
I0
tp5739
a(I2
I0
tp5740
a(I2
I-1
tp5741
a(I1
I-1
tp5742
a(I1
I-2
tp5743
a(I0
I-2
tp5744
a(I0
I-1
tp5745
a(I-1
I-1
tp5746
a(I-2
I-1
tp5747
a(I-2
I-2
tp5748
a(I-3
I-2
tp5749
a(I-3
I-1
tp5750
a(I-3
I0
tp5751
a(I-4
I0
tp5752
a(I-4
I1
tp5753
a(I-5
I1
tp5754
a(I-6
I1
tp5755
a(I-6
I0
tp5756
a(I-7
I0
tp5757
a(I-7
I-1
tp5758
a(I-8
I-1
tp5759
a(I-9
I-1
tp5760
a(I-9
I-2
tp5761
a(I-9
I-3
tp5762
a(I-9
I-4
tp5763
a(I-8
I-4
tp5764
a(I-7
I-4
tp5765
a(I-6
I-4
tp5766
a(I-5
I-4
tp5767
a(I-4
I-4
tp5768
a(I-4
I-3
tp5769
a(I-3
I-3
tp5770
a(I-2
I-3
tp5771
a(I-2
I-4
tp5772
a(I-2
I-5
tp5773
aI0
tp5774
a((lp5775
g3
a(I0
I1
tp5776
a(I1
I1
tp5777
a(I1
I0
tp5778
a(I1
I-1
tp5779
a(I2
I-1
tp5780
a(I2
I-2
tp5781
a(I2
I-3
tp5782
a(I3
I-3
tp5783
a(I3
I-4
tp5784
a(I4
I-4
tp5785
a(I5
I-4
tp5786
a(I5
I-3
tp5787
a(I6
I-3
tp5788
a(I6
I-4
tp5789
a(I6
I-5
tp5790
a(I6
I-6
tp5791
a(I5
I-6
tp5792
a(I5
I-5
tp5793
a(I4
I-5
tp5794
a(I4
I-6
tp5795
a(I3
I-6
tp5796
a(I3
I-7
tp5797
a(I4
I-7
tp5798
a(I4
I-8
tp5799
a(I3
I-8
tp5800
a(I3
I-9
tp5801
a(I2
I-9
tp5802
a(I1
I-9
tp5803
a(I0
I-9
tp5804
a(I0
I-8
tp5805
a(I-1
I-8
tp5806
a(I-2
I-8
tp5807
a(I-2
I-7
tp5808
a(I-1
I-7
tp5809
a(I0
I-7
tp5810
aI0
tp5811
a((lp5812
g3
a(I-1
I0
tp5813
a(I-1
I-1
tp5814
a(I-2
I-1
tp5815
a(I-3
I-1
tp5816
a(I-3
I-2
tp5817
a(I-2
I-2
tp5818
a(I-2
I-3
tp5819
a(I-3
I-3
tp5820
a(I-4
I-3
tp5821
a(I-5
I-3
tp5822
a(I-5
I-4
tp5823
a(I-5
I-5
tp5824
a(I-4
I-5
tp5825
a(I-4
I-4
tp5826
a(I-3
I-4
tp5827
a(I-3
I-5
tp5828
a(I-3
I-6
tp5829
a(I-3
I-7
tp5830
a(I-4
I-7
tp5831
a(I-4
I-8
tp5832
a(I-4
I-9
tp5833
a(I-4
I-10
tp5834
a(I-5
I-10
tp5835
a(I-6
I-10
tp5836
a(I-7
I-10
tp5837
a(I-7
I-9
tp5838
a(I-7
I-8
tp5839
a(I-8
I-8
tp5840
a(I-8
I-9
tp5841
a(I-9
I-9
tp5842
a(I-9
I-10
tp5843
a(I-8
I-10
tp5844
a(I-8
I-11
tp5845
a(I-7
I-11
tp5846
a(I-6
I-11
tp5847
aI0
tp5848
a((lp5849
g3
a(I-1
I0
tp5850
a(I-1
I-1
tp5851
a(I0
I-1
tp5852
a(I1
I-1
tp5853
a(I1
I-2
tp5854
a(I1
I-3
tp5855
a(I0
I-3
tp5856
a(I0
I-2
tp5857
a(I-1
I-2
tp5858
a(I-1
I-3
tp5859
a(I-2
I-3
tp5860
a(I-2
I-2
tp5861
a(I-2
I-1
tp5862
a(I-3
I-1
tp5863
a(I-3
I-2
tp5864
a(I-3
I-3
tp5865
a(I-3
I-4
tp5866
a(I-4
I-4
tp5867
a(I-4
I-5
tp5868
a(I-4
I-6
tp5869
a(I-4
I-7
tp5870
a(I-4
I-8
tp5871
a(I-3
I-8
tp5872
a(I-2
I-8
tp5873
a(I-1
I-8
tp5874
a(I-1
I-9
tp5875
a(I-1
I-10
tp5876
a(I-2
I-10
tp5877
a(I-3
I-10
tp5878
a(I-3
I-9
tp5879
a(I-4
I-9
tp5880
a(I-4
I-10
tp5881
a(I-5
I-10
tp5882
a(I-5
I-9
tp5883
a(I-6
I-9
tp5884
aI0
tp5885
a((lp5886
g3
a(I-1
I0
tp5887
a(I-1
I1
tp5888
a(I-1
I2
tp5889
a(I-1
I3
tp5890
a(I-1
I4
tp5891
a(I-2
I4
tp5892
a(I-3
I4
tp5893
a(I-3
I5
tp5894
a(I-4
I5
tp5895
a(I-4
I6
tp5896
a(I-3
I6
tp5897
a(I-3
I7
tp5898
a(I-2
I7
tp5899
a(I-2
I6
tp5900
a(I-1
I6
tp5901
a(I-1
I5
tp5902
a(I0
I5
tp5903
a(I1
I5
tp5904
a(I1
I4
tp5905
a(I1
I3
tp5906
a(I1
I2
tp5907
a(I1
I1
tp5908
a(I2
I1
tp5909
a(I2
I2
tp5910
a(I3
I2
tp5911
a(I3
I1
tp5912
a(I3
I0
tp5913
a(I4
I0
tp5914
a(I4
I-1
tp5915
a(I3
I-1
tp5916
a(I2
I-1
tp5917
a(I2
I0
tp5918
a(I1
I0
tp5919
a(I1
I-1
tp5920
a(I0
I-1
tp5921
aI0
tp5922
a((lp5923
g3
a(I0
I-1
tp5924
a(I-1
I-1
tp5925
a(I-2
I-1
tp5926
a(I-2
I0
tp5927
a(I-1
I0
tp5928
a(I-1
I1
tp5929
a(I0
I1
tp5930
a(I0
I2
tp5931
a(I1
I2
tp5932
a(I1
I1
tp5933
a(I2
I1
tp5934
a(I2
I0
tp5935
a(I3
I0
tp5936
a(I3
I-1
tp5937
a(I2
I-1
tp5938
a(I2
I-2
tp5939
a(I1
I-2
tp5940
a(I0
I-2
tp5941
a(I-1
I-2
tp5942
a(I-1
I-3
tp5943
a(I-2
I-3
tp5944
a(I-3
I-3
tp5945
a(I-4
I-3
tp5946
a(I-4
I-2
tp5947
a(I-4
I-1
tp5948
a(I-3
I-1
tp5949
a(I-3
I0
tp5950
a(I-3
I1
tp5951
a(I-4
I1
tp5952
a(I-4
I2
tp5953
a(I-4
I3
tp5954
a(I-4
I4
tp5955
a(I-4
I5
tp5956
a(I-4
I6
tp5957
a(I-3
I6
tp5958
aI0
tp5959
a((lp5960
g3
a(I-1
I0
tp5961
a(I-1
I1
tp5962
a(I0
I1
tp5963
a(I1
I1
tp5964
a(I1
I0
tp5965
a(I2
I0
tp5966
a(I2
I1
tp5967
a(I2
I2
tp5968
a(I1
I2
tp5969
a(I1
I3
tp5970
a(I2
I3
tp5971
a(I2
I4
tp5972
a(I1
I4
tp5973
a(I0
I4
tp5974
a(I-1
I4
tp5975
a(I-2
I4
tp5976
a(I-2
I5
tp5977
a(I-1
I5
tp5978
a(I-1
I6
tp5979
a(I-1
I7
tp5980
a(I-1
I8
tp5981
a(I-1
I9
tp5982
a(I-1
I10
tp5983
a(I0
I10
tp5984
a(I0
I9
tp5985
a(I0
I8
tp5986
a(I1
I8
tp5987
a(I1
I7
tp5988
a(I2
I7
tp5989
a(I3
I7
tp5990
a(I4
I7
tp5991
a(I4
I8
tp5992
a(I4
I9
tp5993
a(I3
I9
tp5994
a(I3
I10
tp5995
aI0
tp5996
a((lp5997
g3
a(I1
I0
tp5998
a(I2
I0
tp5999
a(I2
I-1
tp6000
a(I3
I-1
tp6001
a(I3
I0
tp6002
a(I4
I0
tp6003
a(I5
I0
tp6004
a(I6
I0
tp6005
a(I6
I-1
tp6006
a(I6
I-2
tp6007
a(I5
I-2
tp6008
a(I4
I-2
tp6009
a(I4
I-3
tp6010
a(I5
I-3
tp6011
a(I6
I-3
tp6012
a(I7
I-3
tp6013
a(I7
I-4
tp6014
a(I7
I-5
tp6015
a(I6
I-5
tp6016
a(I6
I-6
tp6017
a(I7
I-6
tp6018
a(I7
I-7
tp6019
a(I6
I-7
tp6020
a(I6
I-8
tp6021
a(I5
I-8
tp6022
a(I5
I-9
tp6023
a(I5
I-10
tp6024
a(I4
I-10
tp6025
a(I4
I-9
tp6026
a(I3
I-9
tp6027
a(I3
I-10
tp6028
a(I3
I-11
tp6029
a(I4
I-11
tp6030
a(I4
I-12
tp6031
a(I5
I-12
tp6032
aI0
tp6033
a((lp6034
g3
a(I1
I0
tp6035
a(I1
I-1
tp6036
a(I0
I-1
tp6037
a(I-1
I-1
tp6038
a(I-2
I-1
tp6039
a(I-2
I-2
tp6040
a(I-2
I-3
tp6041
a(I-1
I-3
tp6042
a(I-1
I-2
tp6043
a(I0
I-2
tp6044
a(I0
I-3
tp6045
a(I1
I-3
tp6046
a(I2
I-3
tp6047
a(I3
I-3
tp6048
a(I4
I-3
tp6049
a(I4
I-2
tp6050
a(I5
I-2
tp6051
a(I6
I-2
tp6052
a(I6
I-3
tp6053
a(I7
I-3
tp6054
a(I7
I-2
tp6055
a(I8
I-2
tp6056
a(I9
I-2
tp6057
a(I9
I-1
tp6058
a(I9
I0
tp6059
a(I10
I0
tp6060
a(I10
I-1
tp6061
a(I10
I-2
tp6062
a(I11
I-2
tp6063
a(I11
I-3
tp6064
a(I12
I-3
tp6065
a(I12
I-2
tp6066
a(I12
I-1
tp6067
a(I13
I-1
tp6068
a(I13
I-2
tp6069
aI0
tp6070
a((lp6071
g3
a(I-1
I0
tp6072
a(I-2
I0
tp6073
a(I-2
I-1
tp6074
a(I-3
I-1
tp6075
a(I-3
I-2
tp6076
a(I-4
I-2
tp6077
a(I-4
I-3
tp6078
a(I-5
I-3
tp6079
a(I-5
I-2
tp6080
a(I-6
I-2
tp6081
a(I-6
I-3
tp6082
a(I-6
I-4
tp6083
a(I-6
I-5
tp6084
a(I-7
I-5
tp6085
a(I-7
I-6
tp6086
a(I-8
I-6
tp6087
a(I-9
I-6
tp6088
a(I-10
I-6
tp6089
a(I-11
I-6
tp6090
a(I-11
I-7
tp6091
a(I-10
I-7
tp6092
a(I-10
I-8
tp6093
a(I-11
I-8
tp6094
a(I-12
I-8
tp6095
a(I-13
I-8
tp6096
a(I-13
I-7
tp6097
a(I-14
I-7
tp6098
a(I-15
I-7
tp6099
a(I-15
I-6
tp6100
a(I-14
I-6
tp6101
a(I-14
I-5
tp6102
a(I-13
I-5
tp6103
a(I-12
I-5
tp6104
a(I-12
I-4
tp6105
a(I-13
I-4
tp6106
aI0
tp6107
a((lp6108
g3
a(I0
I-1
tp6109
a(I-1
I-1
tp6110
a(I-1
I0
tp6111
a(I-1
I1
tp6112
a(I-1
I2
tp6113
a(I-2
I2
tp6114
a(I-3
I2
tp6115
a(I-4
I2
tp6116
a(I-5
I2
tp6117
a(I-6
I2
tp6118
a(I-6
I1
tp6119
a(I-7
I1
tp6120
a(I-7
I0
tp6121
a(I-6
I0
tp6122
a(I-5
I0
tp6123
a(I-4
I0
tp6124
a(I-4
I1
tp6125
a(I-3
I1
tp6126
a(I-2
I1
tp6127
a(I-2
I0
tp6128
a(I-2
I-1
tp6129
a(I-2
I-2
tp6130
a(I-3
I-2
tp6131
a(I-3
I-3
tp6132
a(I-4
I-3
tp6133
a(I-4
I-4
tp6134
a(I-4
I-5
tp6135
a(I-3
I-5
tp6136
a(I-3
I-6
tp6137
a(I-4
I-6
tp6138
a(I-5
I-6
tp6139
a(I-5
I-7
tp6140
a(I-5
I-8
tp6141
a(I-5
I-9
tp6142
a(I-6
I-9
tp6143
aI0
tp6144
a((lp6145
g3
a(I0
I1
tp6146
a(I1
I1
tp6147
a(I1
I2
tp6148
a(I2
I2
tp6149
a(I2
I1
tp6150
a(I2
I0
tp6151
a(I2
I-1
tp6152
a(I1
I-1
tp6153
a(I0
I-1
tp6154
a(I0
I-2
tp6155
a(I1
I-2
tp6156
a(I1
I-3
tp6157
a(I0
I-3
tp6158
a(I-1
I-3
tp6159
a(I-1
I-2
tp6160
a(I-1
I-1
tp6161
a(I-2
I-1
tp6162
a(I-3
I-1
tp6163
a(I-4
I-1
tp6164
a(I-4
I-2
tp6165
a(I-4
I-3
tp6166
a(I-4
I-4
tp6167
a(I-4
I-5
tp6168
a(I-5
I-5
tp6169
a(I-5
I-6
tp6170
a(I-6
I-6
tp6171
a(I-6
I-7
tp6172
a(I-5
I-7
tp6173
a(I-5
I-8
tp6174
a(I-4
I-8
tp6175
a(I-4
I-7
tp6176
a(I-3
I-7
tp6177
a(I-3
I-6
tp6178
a(I-3
I-5
tp6179
a(I-2
I-5
tp6180
aI0
tp6181
a((lp6182
g3
a(I0
I1
tp6183
a(I-1
I1
tp6184
a(I-1
I0
tp6185
a(I-1
I-1
tp6186
a(I-2
I-1
tp6187
a(I-2
I0
tp6188
a(I-2
I1
tp6189
a(I-3
I1
tp6190
a(I-3
I2
tp6191
a(I-3
I3
tp6192
a(I-4
I3
tp6193
a(I-4
I4
tp6194
a(I-5
I4
tp6195
a(I-5
I5
tp6196
a(I-4
I5
tp6197
a(I-4
I6
tp6198
a(I-4
I7
tp6199
a(I-5
I7
tp6200
a(I-5
I8
tp6201
a(I-6
I8
tp6202
a(I-7
I8
tp6203
a(I-8
I8
tp6204
a(I-9
I8
tp6205
a(I-10
I8
tp6206
a(I-11
I8
tp6207
a(I-12
I8
tp6208
a(I-12
I9
tp6209
a(I-12
I10
tp6210
a(I-12
I11
tp6211
a(I-13
I11
tp6212
a(I-13
I12
tp6213
a(I-13
I13
tp6214
a(I-13
I14
tp6215
a(I-13
I15
tp6216
a(I-13
I16
tp6217
aI0
tp6218
a((lp6219
g3
a(I0
I1
tp6220
a(I1
I1
tp6221
a(I2
I1
tp6222
a(I3
I1
tp6223
a(I3
I2
tp6224
a(I3
I3
tp6225
a(I4
I3
tp6226
a(I4
I4
tp6227
a(I5
I4
tp6228
a(I5
I3
tp6229
a(I6
I3
tp6230
a(I7
I3
tp6231
a(I8
I3
tp6232
a(I8
I2
tp6233
a(I7
I2
tp6234
a(I7
I1
tp6235
a(I8
I1
tp6236
a(I9
I1
tp6237
a(I10
I1
tp6238
a(I10
I0
tp6239
a(I11
I0
tp6240
a(I11
I-1
tp6241
a(I11
I-2
tp6242
a(I12
I-2
tp6243
a(I12
I-3
tp6244
a(I12
I-4
tp6245
a(I13
I-4
tp6246
a(I13
I-3
tp6247
a(I13
I-2
tp6248
a(I13
I-1
tp6249
a(I12
I-1
tp6250
a(I12
I0
tp6251
a(I13
I0
tp6252
a(I13
I1
tp6253
a(I13
I2
tp6254
aI0
tp6255
a((lp6256
g3
a(I0
I-1
tp6257
a(I1
I-1
tp6258
a(I1
I0
tp6259
a(I1
I1
tp6260
a(I2
I1
tp6261
a(I3
I1
tp6262
a(I3
I0
tp6263
a(I3
I-1
tp6264
a(I3
I-2
tp6265
a(I4
I-2
tp6266
a(I4
I-3
tp6267
a(I5
I-3
tp6268
a(I6
I-3
tp6269
a(I7
I-3
tp6270
a(I8
I-3
tp6271
a(I8
I-4
tp6272
a(I8
I-5
tp6273
a(I7
I-5
tp6274
a(I7
I-4
tp6275
a(I6
I-4
tp6276
a(I5
I-4
tp6277
a(I5
I-5
tp6278
a(I6
I-5
tp6279
a(I6
I-6
tp6280
a(I5
I-6
tp6281
a(I4
I-6
tp6282
a(I4
I-5
tp6283
a(I4
I-4
tp6284
a(I3
I-4
tp6285
a(I2
I-4
tp6286
a(I1
I-4
tp6287
a(I1
I-5
tp6288
a(I0
I-5
tp6289
a(I0
I-4
tp6290
a(I0
I-3
tp6291
aI0
tp6292
a((lp6293
g3
a(I0
I-1
tp6294
a(I1
I-1
tp6295
a(I1
I0
tp6296
a(I1
I1
tp6297
a(I1
I2
tp6298
a(I2
I2
tp6299
a(I2
I3
tp6300
a(I2
I4
tp6301
a(I1
I4
tp6302
a(I1
I5
tp6303
a(I0
I5
tp6304
a(I0
I6
tp6305
a(I-1
I6
tp6306
a(I-1
I5
tp6307
a(I-2
I5
tp6308
a(I-2
I6
tp6309
a(I-3
I6
tp6310
a(I-4
I6
tp6311
a(I-5
I6
tp6312
a(I-5
I7
tp6313
a(I-4
I7
tp6314
a(I-4
I8
tp6315
a(I-4
I9
tp6316
a(I-4
I10
tp6317
a(I-3
I10
tp6318
a(I-3
I11
tp6319
a(I-3
I12
tp6320
a(I-4
I12
tp6321
a(I-4
I11
tp6322
a(I-5
I11
tp6323
a(I-6
I11
tp6324
a(I-6
I12
tp6325
a(I-6
I13
tp6326
a(I-7
I13
tp6327
a(I-7
I12
tp6328
aI0
tp6329
a((lp6330
g3
a(I0
I-1
tp6331
a(I1
I-1
tp6332
a(I2
I-1
tp6333
a(I3
I-1
tp6334
a(I3
I0
tp6335
a(I4
I0
tp6336
a(I4
I1
tp6337
a(I4
I2
tp6338
a(I4
I3
tp6339
a(I3
I3
tp6340
a(I3
I4
tp6341
a(I2
I4
tp6342
a(I2
I5
tp6343
a(I2
I6
tp6344
a(I3
I6
tp6345
a(I4
I6
tp6346
a(I5
I6
tp6347
a(I6
I6
tp6348
a(I6
I5
tp6349
a(I5
I5
tp6350
a(I4
I5
tp6351
a(I4
I4
tp6352
a(I5
I4
tp6353
a(I6
I4
tp6354
a(I7
I4
tp6355
a(I8
I4
tp6356
a(I8
I3
tp6357
a(I7
I3
tp6358
a(I7
I2
tp6359
a(I6
I2
tp6360
a(I6
I3
tp6361
a(I5
I3
tp6362
a(I5
I2
tp6363
a(I5
I1
tp6364
a(I6
I1
tp6365
aI0
tp6366
a((lp6367
g3
a(I1
I0
tp6368
a(I1
I-1
tp6369
a(I0
I-1
tp6370
a(I0
I-2
tp6371
a(I-1
I-2
tp6372
a(I-1
I-1
tp6373
a(I-2
I-1
tp6374
a(I-2
I-2
tp6375
a(I-2
I-3
tp6376
a(I-3
I-3
tp6377
a(I-4
I-3
tp6378
a(I-4
I-2
tp6379
a(I-5
I-2
tp6380
a(I-6
I-2
tp6381
a(I-6
I-3
tp6382
a(I-7
I-3
tp6383
a(I-7
I-2
tp6384
a(I-8
I-2
tp6385
a(I-8
I-3
tp6386
a(I-9
I-3
tp6387
a(I-9
I-4
tp6388
a(I-8
I-4
tp6389
a(I-8
I-5
tp6390
a(I-8
I-6
tp6391
a(I-8
I-7
tp6392
a(I-8
I-8
tp6393
a(I-7
I-8
tp6394
a(I-6
I-8
tp6395
a(I-6
I-9
tp6396
a(I-7
I-9
tp6397
a(I-7
I-10
tp6398
a(I-6
I-10
tp6399
a(I-5
I-10
tp6400
a(I-5
I-11
tp6401
a(I-4
I-11
tp6402
aI0
tp6403
a((lp6404
g3
a(I0
I-1
tp6405
a(I0
I-2
tp6406
a(I-1
I-2
tp6407
a(I-1
I-3
tp6408
a(I-1
I-4
tp6409
a(I-1
I-5
tp6410
a(I-2
I-5
tp6411
a(I-3
I-5
tp6412
a(I-3
I-6
tp6413
a(I-4
I-6
tp6414
a(I-5
I-6
tp6415
a(I-5
I-5
tp6416
a(I-4
I-5
tp6417
a(I-4
I-4
tp6418
a(I-5
I-4
tp6419
a(I-6
I-4
tp6420
a(I-6
I-5
tp6421
a(I-6
I-6
tp6422
a(I-6
I-7
tp6423
a(I-5
I-7
tp6424
a(I-5
I-8
tp6425
a(I-4
I-8
tp6426
a(I-4
I-9
tp6427
a(I-3
I-9
tp6428
a(I-3
I-10
tp6429
a(I-4
I-10
tp6430
a(I-4
I-11
tp6431
a(I-4
I-12
tp6432
a(I-5
I-12
tp6433
a(I-5
I-13
tp6434
a(I-4
I-13
tp6435
a(I-3
I-13
tp6436
a(I-3
I-14
tp6437
a(I-2
I-14
tp6438
a(I-2
I-13
tp6439
aI0
tp6440
a((lp6441
g3
a(I1
I0
tp6442
a(I1
I1
tp6443
a(I2
I1
tp6444
a(I2
I0
tp6445
a(I2
I-1
tp6446
a(I2
I-2
tp6447
a(I1
I-2
tp6448
a(I1
I-1
tp6449
a(I0
I-1
tp6450
a(I-1
I-1
tp6451
a(I-1
I0
tp6452
a(I-2
I0
tp6453
a(I-2
I-1
tp6454
a(I-3
I-1
tp6455
a(I-3
I0
tp6456
a(I-3
I1
tp6457
a(I-3
I2
tp6458
a(I-2
I2
tp6459
a(I-2
I3
tp6460
a(I-2
I4
tp6461
a(I-3
I4
tp6462
a(I-4
I4
tp6463
a(I-5
I4
tp6464
a(I-5
I5
tp6465
a(I-5
I6
tp6466
a(I-6
I6
tp6467
a(I-7
I6
tp6468
a(I-7
I7
tp6469
a(I-6
I7
tp6470
a(I-6
I8
tp6471
a(I-5
I8
tp6472
a(I-4
I8
tp6473
a(I-3
I8
tp6474
a(I-2
I8
tp6475
a(I-2
I7
tp6476
aI0
tp6477
a((lp6478
g3
a(I-1
I0
tp6479
a(I-1
I1
tp6480
a(I-2
I1
tp6481
a(I-2
I2
tp6482
a(I-1
I2
tp6483
a(I0
I2
tp6484
a(I0
I1
tp6485
a(I1
I1
tp6486
a(I2
I1
tp6487
a(I3
I1
tp6488
a(I4
I1
tp6489
a(I4
I2
tp6490
a(I3
I2
tp6491
a(I3
I3
tp6492
a(I3
I4
tp6493
a(I4
I4
tp6494
a(I4
I5
tp6495
a(I3
I5
tp6496
a(I2
I5
tp6497
a(I1
I5
tp6498
a(I1
I6
tp6499
a(I2
I6
tp6500
a(I3
I6
tp6501
a(I3
I7
tp6502
a(I3
I8
tp6503
a(I4
I8
tp6504
a(I5
I8
tp6505
a(I5
I7
tp6506
a(I4
I7
tp6507
a(I4
I6
tp6508
a(I5
I6
tp6509
a(I5
I5
tp6510
a(I5
I4
tp6511
a(I5
I3
tp6512
a(I5
I2
tp6513
aI0
tp6514
a((lp6515
g3
a(I0
I-1
tp6516
a(I-1
I-1
tp6517
a(I-1
I0
tp6518
a(I-2
I0
tp6519
a(I-3
I0
tp6520
a(I-3
I1
tp6521
a(I-2
I1
tp6522
a(I-2
I2
tp6523
a(I-1
I2
tp6524
a(I-1
I3
tp6525
a(I-2
I3
tp6526
a(I-3
I3
tp6527
a(I-3
I2
tp6528
a(I-4
I2
tp6529
a(I-5
I2
tp6530
a(I-5
I1
tp6531
a(I-6
I1
tp6532
a(I-7
I1
tp6533
a(I-7
I0
tp6534
a(I-7
I-1
tp6535
a(I-6
I-1
tp6536
a(I-6
I0
tp6537
a(I-5
I0
tp6538
a(I-5
I-1
tp6539
a(I-4
I-1
tp6540
a(I-4
I-2
tp6541
a(I-4
I-3
tp6542
a(I-4
I-4
tp6543
a(I-3
I-4
tp6544
a(I-3
I-3
tp6545
a(I-3
I-2
tp6546
a(I-2
I-2
tp6547
a(I-1
I-2
tp6548
a(I-1
I-3
tp6549
a(I0
I-3
tp6550
aI0
tp6551
a((lp6552
g3
a(I-1
I0
tp6553
a(I-2
I0
tp6554
a(I-2
I1
tp6555
a(I-1
I1
tp6556
a(I-1
I2
tp6557
a(I-1
I3
tp6558
a(I-2
I3
tp6559
a(I-2
I4
tp6560
a(I-2
I5
tp6561
a(I-1
I5
tp6562
a(I0
I5
tp6563
a(I1
I5
tp6564
a(I2
I5
tp6565
a(I2
I4
tp6566
a(I1
I4
tp6567
a(I0
I4
tp6568
a(I0
I3
tp6569
a(I1
I3
tp6570
a(I2
I3
tp6571
a(I2
I2
tp6572
a(I2
I1
tp6573
a(I3
I1
tp6574
a(I4
I1
tp6575
a(I4
I2
tp6576
a(I5
I2
tp6577
a(I5
I3
tp6578
a(I5
I4
tp6579
a(I5
I5
tp6580
a(I6
I5
tp6581
a(I7
I5
tp6582
a(I7
I6
tp6583
a(I8
I6
tp6584
a(I8
I5
tp6585
a(I8
I4
tp6586
a(I9
I4
tp6587
aI0
tp6588
a((lp6589
g3
a(I-1
I0
tp6590
a(I-1
I-1
tp6591
a(I-1
I-2
tp6592
a(I0
I-2
tp6593
a(I1
I-2
tp6594
a(I1
I-1
tp6595
a(I1
I0
tp6596
a(I1
I1
tp6597
a(I0
I1
tp6598
a(I-1
I1
tp6599
a(I-1
I2
tp6600
a(I0
I2
tp6601
a(I1
I2
tp6602
a(I1
I3
tp6603
a(I1
I4
tp6604
a(I2
I4
tp6605
a(I2
I5
tp6606
a(I2
I6
tp6607
a(I1
I6
tp6608
a(I0
I6
tp6609
a(I0
I5
tp6610
a(I-1
I5
tp6611
a(I-1
I4
tp6612
a(I-2
I4
tp6613
a(I-3
I4
tp6614
a(I-4
I4
tp6615
a(I-4
I5
tp6616
a(I-4
I6
tp6617
a(I-5
I6
tp6618
a(I-5
I7
tp6619
a(I-6
I7
tp6620
a(I-6
I8
tp6621
a(I-7
I8
tp6622
a(I-8
I8
tp6623
a(I-8
I7
tp6624
aI0
tp6625
a((lp6626
g3
a(I0
I-1
tp6627
a(I1
I-1
tp6628
a(I2
I-1
tp6629
a(I3
I-1
tp6630
a(I3
I-2
tp6631
a(I2
I-2
tp6632
a(I1
I-2
tp6633
a(I0
I-2
tp6634
a(I0
I-3
tp6635
a(I0
I-4
tp6636
a(I-1
I-4
tp6637
a(I-1
I-3
tp6638
a(I-2
I-3
tp6639
a(I-2
I-4
tp6640
a(I-2
I-5
tp6641
a(I-2
I-6
tp6642
a(I-2
I-7
tp6643
a(I-2
I-8
tp6644
a(I-3
I-8
tp6645
a(I-3
I-7
tp6646
a(I-4
I-7
tp6647
a(I-4
I-8
tp6648
a(I-4
I-9
tp6649
a(I-4
I-10
tp6650
a(I-5
I-10
tp6651
a(I-5
I-9
tp6652
a(I-5
I-8
tp6653
a(I-5
I-7
tp6654
a(I-5
I-6
tp6655
a(I-6
I-6
tp6656
a(I-7
I-6
tp6657
a(I-7
I-5
tp6658
a(I-8
I-5
tp6659
a(I-8
I-6
tp6660
a(I-9
I-6
tp6661
aI0
tp6662
a((lp6663
g3
a(I-1
I0
tp6664
a(I-1
I-1
tp6665
a(I-2
I-1
tp6666
a(I-2
I-2
tp6667
a(I-3
I-2
tp6668
a(I-3
I-1
tp6669
a(I-3
I0
tp6670
a(I-4
I0
tp6671
a(I-4
I-1
tp6672
a(I-4
I-2
tp6673
a(I-4
I-3
tp6674
a(I-4
I-4
tp6675
a(I-4
I-5
tp6676
a(I-5
I-5
tp6677
a(I-5
I-6
tp6678
a(I-5
I-7
tp6679
a(I-4
I-7
tp6680
a(I-4
I-8
tp6681
a(I-4
I-9
tp6682
a(I-5
I-9
tp6683
a(I-5
I-8
tp6684
a(I-6
I-8
tp6685
a(I-7
I-8
tp6686
a(I-7
I-9
tp6687
a(I-8
I-9
tp6688
a(I-8
I-8
tp6689
a(I-8
I-7
tp6690
a(I-8
I-6
tp6691
a(I-7
I-6
tp6692
a(I-7
I-7
tp6693
a(I-6
I-7
tp6694
a(I-6
I-6
tp6695
a(I-6
I-5
tp6696
a(I-6
I-4
tp6697
a(I-6
I-3
tp6698
aI0
tp6699
a((lp6700
g3
a(I1
I0
tp6701
a(I1
I1
tp6702
a(I2
I1
tp6703
a(I2
I0
tp6704
a(I2
I-1
tp6705
a(I2
I-2
tp6706
a(I2
I-3
tp6707
a(I1
I-3
tp6708
a(I1
I-2
tp6709
a(I1
I-1
tp6710
a(I0
I-1
tp6711
a(I0
I-2
tp6712
a(I-1
I-2
tp6713
a(I-2
I-2
tp6714
a(I-2
I-1
tp6715
a(I-2
I0
tp6716
a(I-1
I0
tp6717
a(I-1
I1
tp6718
a(I-1
I2
tp6719
a(I-2
I2
tp6720
a(I-3
I2
tp6721
a(I-3
I1
tp6722
a(I-3
I0
tp6723
a(I-3
I-1
tp6724
a(I-4
I-1
tp6725
a(I-5
I-1
tp6726
a(I-5
I0
tp6727
a(I-5
I1
tp6728
a(I-6
I1
tp6729
a(I-7
I1
tp6730
a(I-7
I2
tp6731
a(I-8
I2
tp6732
a(I-8
I1
tp6733
a(I-8
I0
tp6734
a(I-9
I0
tp6735
aI0
tp6736
a((lp6737
g3
a(I-1
I0
tp6738
a(I-2
I0
tp6739
a(I-2
I1
tp6740
a(I-3
I1
tp6741
a(I-3
I0
tp6742
a(I-3
I-1
tp6743
a(I-3
I-2
tp6744
a(I-4
I-2
tp6745
a(I-5
I-2
tp6746
a(I-6
I-2
tp6747
a(I-6
I-3
tp6748
a(I-5
I-3
tp6749
a(I-4
I-3
tp6750
a(I-3
I-3
tp6751
a(I-3
I-4
tp6752
a(I-4
I-4
tp6753
a(I-4
I-5
tp6754
a(I-5
I-5
tp6755
a(I-5
I-4
tp6756
a(I-6
I-4
tp6757
a(I-7
I-4
tp6758
a(I-8
I-4
tp6759
a(I-9
I-4
tp6760
a(I-9
I-5
tp6761
a(I-8
I-5
tp6762
a(I-7
I-5
tp6763
a(I-7
I-6
tp6764
a(I-8
I-6
tp6765
a(I-9
I-6
tp6766
a(I-9
I-7
tp6767
a(I-10
I-7
tp6768
a(I-10
I-6
tp6769
a(I-11
I-6
tp6770
a(I-11
I-5
tp6771
a(I-10
I-5
tp6772
aI0
tp6773
a((lp6774
g3
a(I0
I-1
tp6775
a(I0
I-2
tp6776
a(I1
I-2
tp6777
a(I1
I-1
tp6778
a(I2
I-1
tp6779
a(I3
I-1
tp6780
a(I3
I0
tp6781
a(I4
I0
tp6782
a(I4
I-1
tp6783
a(I4
I-2
tp6784
a(I5
I-2
tp6785
a(I5
I-3
tp6786
a(I4
I-3
tp6787
a(I4
I-4
tp6788
a(I4
I-5
tp6789
a(I5
I-5
tp6790
a(I6
I-5
tp6791
a(I7
I-5
tp6792
a(I8
I-5
tp6793
a(I8
I-6
tp6794
a(I7
I-6
tp6795
a(I7
I-7
tp6796
a(I8
I-7
tp6797
a(I8
I-8
tp6798
a(I7
I-8
tp6799
a(I7
I-9
tp6800
a(I8
I-9
tp6801
a(I8
I-10
tp6802
a(I9
I-10
tp6803
a(I10
I-10
tp6804
a(I10
I-11
tp6805
a(I10
I-12
tp6806
a(I11
I-12
tp6807
a(I11
I-11
tp6808
a(I11
I-10
tp6809
aI0
tp6810
a((lp6811
g3
a(I1
I0
tp6812
a(I2
I0
tp6813
a(I3
I0
tp6814
a(I3
I-1
tp6815
a(I4
I-1
tp6816
a(I5
I-1
tp6817
a(I5
I0
tp6818
a(I5
I1
tp6819
a(I5
I2
tp6820
a(I6
I2
tp6821
a(I7
I2
tp6822
a(I7
I3
tp6823
a(I8
I3
tp6824
a(I8
I2
tp6825
a(I9
I2
tp6826
a(I9
I1
tp6827
a(I8
I1
tp6828
a(I7
I1
tp6829
a(I6
I1
tp6830
a(I6
I0
tp6831
a(I6
I-1
tp6832
a(I6
I-2
tp6833
a(I7
I-2
tp6834
a(I7
I-1
tp6835
a(I8
I-1
tp6836
a(I9
I-1
tp6837
a(I9
I0
tp6838
a(I10
I0
tp6839
a(I11
I0
tp6840
a(I11
I1
tp6841
a(I12
I1
tp6842
a(I13
I1
tp6843
a(I14
I1
tp6844
a(I14
I2
tp6845
a(I13
I2
tp6846
aI0
tp6847
a((lp6848
g3
a(I0
I-1
tp6849
a(I1
I-1
tp6850
a(I1
I-2
tp6851
a(I0
I-2
tp6852
a(I-1
I-2
tp6853
a(I-2
I-2
tp6854
a(I-2
I-1
tp6855
a(I-2
I0
tp6856
a(I-3
I0
tp6857
a(I-3
I1
tp6858
a(I-4
I1
tp6859
a(I-5
I1
tp6860
a(I-5
I2
tp6861
a(I-4
I2
tp6862
a(I-3
I2
tp6863
a(I-2
I2
tp6864
a(I-1
I2
tp6865
a(I0
I2
tp6866
a(I1
I2
tp6867
a(I2
I2
tp6868
a(I3
I2
tp6869
a(I3
I3
tp6870
a(I3
I4
tp6871
a(I2
I4
tp6872
a(I2
I3
tp6873
a(I1
I3
tp6874
a(I1
I4
tp6875
a(I0
I4
tp6876
a(I0
I5
tp6877
a(I1
I5
tp6878
a(I2
I5
tp6879
a(I2
I6
tp6880
a(I2
I7
tp6881
a(I3
I7
tp6882
a(I4
I7
tp6883
aI0
tp6884
a((lp6885
g3
a(I1
I0
tp6886
a(I2
I0
tp6887
a(I2
I-1
tp6888
a(I2
I-2
tp6889
a(I1
I-2
tp6890
a(I0
I-2
tp6891
a(I0
I-1
tp6892
a(I-1
I-1
tp6893
a(I-1
I0
tp6894
a(I-2
I0
tp6895
a(I-2
I-1
tp6896
a(I-2
I-2
tp6897
a(I-3
I-2
tp6898
a(I-4
I-2
tp6899
a(I-5
I-2
tp6900
a(I-5
I-3
tp6901
a(I-6
I-3
tp6902
a(I-7
I-3
tp6903
a(I-7
I-4
tp6904
a(I-7
I-5
tp6905
a(I-7
I-6
tp6906
a(I-6
I-6
tp6907
a(I-6
I-5
tp6908
a(I-5
I-5
tp6909
a(I-4
I-5
tp6910
a(I-3
I-5
tp6911
a(I-3
I-6
tp6912
a(I-2
I-6
tp6913
a(I-2
I-7
tp6914
a(I-2
I-8
tp6915
a(I-2
I-9
tp6916
a(I-1
I-9
tp6917
a(I-1
I-8
tp6918
a(I0
I-8
tp6919
a(I0
I-7
tp6920
aI0
tp6921
a((lp6922
g3
a(I-1
I0
tp6923
a(I-1
I1
tp6924
a(I-1
I2
tp6925
a(I-1
I3
tp6926
a(I0
I3
tp6927
a(I1
I3
tp6928
a(I1
I4
tp6929
a(I0
I4
tp6930
a(I-1
I4
tp6931
a(I-2
I4
tp6932
a(I-3
I4
tp6933
a(I-3
I3
tp6934
a(I-4
I3
tp6935
a(I-4
I4
tp6936
a(I-5
I4
tp6937
a(I-5
I5
tp6938
a(I-5
I6
tp6939
a(I-4
I6
tp6940
a(I-4
I7
tp6941
a(I-5
I7
tp6942
a(I-6
I7
tp6943
a(I-6
I6
tp6944
a(I-7
I6
tp6945
a(I-8
I6
tp6946
a(I-8
I5
tp6947
a(I-7
I5
tp6948
a(I-6
I5
tp6949
a(I-6
I4
tp6950
a(I-7
I4
tp6951
a(I-8
I4
tp6952
a(I-9
I4
tp6953
a(I-10
I4
tp6954
a(I-10
I5
tp6955
a(I-10
I6
tp6956
a(I-11
I6
tp6957
aI0
tp6958
a((lp6959
g3
a(I-1
I0
tp6960
a(I-1
I1
tp6961
a(I-1
I2
tp6962
a(I0
I2
tp6963
a(I0
I1
tp6964
a(I1
I1
tp6965
a(I1
I0
tp6966
a(I2
I0
tp6967
a(I2
I1
tp6968
a(I3
I1
tp6969
a(I4
I1
tp6970
a(I4
I0
tp6971
a(I4
I-1
tp6972
a(I5
I-1
tp6973
a(I5
I-2
tp6974
a(I4
I-2
tp6975
a(I4
I-3
tp6976
a(I3
I-3
tp6977
a(I3
I-2
tp6978
a(I3
I-1
tp6979
a(I2
I-1
tp6980
a(I1
I-1
tp6981
a(I1
I-2
tp6982
a(I0
I-2
tp6983
a(I0
I-3
tp6984
a(I0
I-4
tp6985
a(I-1
I-4
tp6986
a(I-2
I-4
tp6987
a(I-2
I-3
tp6988
a(I-3
I-3
tp6989
a(I-3
I-2
tp6990
a(I-2
I-2
tp6991
a(I-1
I-2
tp6992
a(I-1
I-1
tp6993
a(I0
I-1
tp6994
aI0
tp6995
a((lp6996
g3
a(I1
I0
tp6997
a(I1
I-1
tp6998
a(I1
I-2
tp6999
a(I1
I-3
tp7000
a(I2
I-3
tp7001
a(I3
I-3
tp7002
a(I3
I-4
tp7003
a(I4
I-4
tp7004
a(I5
I-4
tp7005
a(I6
I-4
tp7006
a(I6
I-3
tp7007
a(I7
I-3
tp7008
a(I7
I-2
tp7009
a(I8
I-2
tp7010
a(I9
I-2
tp7011
a(I9
I-3
tp7012
a(I8
I-3
tp7013
a(I8
I-4
tp7014
a(I8
I-5
tp7015
a(I9
I-5
tp7016
a(I10
I-5
tp7017
a(I11
I-5
tp7018
a(I12
I-5
tp7019
a(I13
I-5
tp7020
a(I13
I-4
tp7021
a(I14
I-4
tp7022
a(I14
I-5
tp7023
a(I14
I-6
tp7024
a(I15
I-6
tp7025
a(I15
I-5
tp7026
a(I16
I-5
tp7027
a(I17
I-5
tp7028
a(I17
I-6
tp7029
a(I18
I-6
tp7030
a(I18
I-5
tp7031
aI0
tp7032
a((lp7033
g3
a(I0
I-1
tp7034
a(I0
I-2
tp7035
a(I0
I-3
tp7036
a(I0
I-4
tp7037
a(I-1
I-4
tp7038
a(I-1
I-3
tp7039
a(I-1
I-2
tp7040
a(I-1
I-1
tp7041
a(I-2
I-1
tp7042
a(I-2
I0
tp7043
a(I-2
I1
tp7044
a(I-3
I1
tp7045
a(I-4
I1
tp7046
a(I-4
I2
tp7047
a(I-3
I2
tp7048
a(I-3
I3
tp7049
a(I-2
I3
tp7050
a(I-2
I2
tp7051
a(I-1
I2
tp7052
a(I-1
I3
tp7053
a(I-1
I4
tp7054
a(I0
I4
tp7055
a(I0
I3
tp7056
a(I0
I2
tp7057
a(I1
I2
tp7058
a(I2
I2
tp7059
a(I2
I3
tp7060
a(I2
I4
tp7061
a(I1
I4
tp7062
a(I1
I5
tp7063
a(I1
I6
tp7064
a(I2
I6
tp7065
a(I3
I6
tp7066
a(I4
I6
tp7067
a(I4
I7
tp7068
aI0
tp7069
a((lp7070
g3
a(I0
I1
tp7071
a(I1
I1
tp7072
a(I2
I1
tp7073
a(I2
I0
tp7074
a(I2
I-1
tp7075
a(I2
I-2
tp7076
a(I2
I-3
tp7077
a(I2
I-4
tp7078
a(I3
I-4
tp7079
a(I3
I-3
tp7080
a(I4
I-3
tp7081
a(I5
I-3
tp7082
a(I6
I-3
tp7083
a(I6
I-4
tp7084
a(I5
I-4
tp7085
a(I5
I-5
tp7086
a(I4
I-5
tp7087
a(I3
I-5
tp7088
a(I2
I-5
tp7089
a(I2
I-6
tp7090
a(I2
I-7
tp7091
a(I3
I-7
tp7092
a(I3
I-8
tp7093
a(I4
I-8
tp7094
a(I4
I-9
tp7095
a(I4
I-10
tp7096
a(I5
I-10
tp7097
a(I5
I-11
tp7098
a(I5
I-12
tp7099
a(I5
I-13
tp7100
a(I4
I-13
tp7101
a(I4
I-14
tp7102
a(I4
I-15
tp7103
a(I5
I-15
tp7104
a(I5
I-16
tp7105
aI0
tp7106
a((lp7107
g3
a(I-1
I0
tp7108
a(I-1
I-1
tp7109
a(I0
I-1
tp7110
a(I0
I-2
tp7111
a(I0
I-3
tp7112
a(I1
I-3
tp7113
a(I2
I-3
tp7114
a(I2
I-2
tp7115
a(I2
I-1
tp7116
a(I2
I0
tp7117
a(I1
I0
tp7118
a(I1
I1
tp7119
a(I2
I1
tp7120
a(I2
I2
tp7121
a(I2
I3
tp7122
a(I2
I4
tp7123
a(I2
I5
tp7124
a(I3
I5
tp7125
a(I4
I5
tp7126
a(I4
I6
tp7127
a(I4
I7
tp7128
a(I4
I8
tp7129
a(I4
I9
tp7130
a(I4
I10
tp7131
a(I3
I10
tp7132
a(I3
I9
tp7133
a(I3
I8
tp7134
a(I3
I7
tp7135
a(I3
I6
tp7136
a(I2
I6
tp7137
a(I1
I6
tp7138
a(I1
I7
tp7139
a(I1
I8
tp7140
a(I0
I8
tp7141
a(I0
I7
tp7142
aI0
tp7143
a((lp7144
g3
a(I0
I-1
tp7145
a(I-1
I-1
tp7146
a(I-2
I-1
tp7147
a(I-3
I-1
tp7148
a(I-3
I-2
tp7149
a(I-3
I-3
tp7150
a(I-2
I-3
tp7151
a(I-2
I-2
tp7152
a(I-1
I-2
tp7153
a(I0
I-2
tp7154
a(I0
I-3
tp7155
a(I0
I-4
tp7156
a(I1
I-4
tp7157
a(I1
I-3
tp7158
a(I2
I-3
tp7159
a(I2
I-2
tp7160
a(I2
I-1
tp7161
a(I3
I-1
tp7162
a(I3
I-2
tp7163
a(I3
I-3
tp7164
a(I3
I-4
tp7165
a(I4
I-4
tp7166
a(I5
I-4
tp7167
a(I6
I-4
tp7168
a(I6
I-3
tp7169
a(I7
I-3
tp7170
a(I8
I-3
tp7171
a(I9
I-3
tp7172
a(I10
I-3
tp7173
a(I11
I-3
tp7174
a(I11
I-2
tp7175
a(I11
I-1
tp7176
a(I12
I-1
tp7177
a(I12
I-2
tp7178
a(I12
I-3
tp7179
aI0
tp7180
a((lp7181
g3
a(I-1
I0
tp7182
a(I-1
I-1
tp7183
a(I-1
I-2
tp7184
a(I0
I-2
tp7185
a(I1
I-2
tp7186
a(I1
I-3
tp7187
a(I1
I-4
tp7188
a(I0
I-4
tp7189
a(I0
I-3
tp7190
a(I-1
I-3
tp7191
a(I-1
I-4
tp7192
a(I-2
I-4
tp7193
a(I-2
I-3
tp7194
a(I-3
I-3
tp7195
a(I-3
I-2
tp7196
a(I-3
I-1
tp7197
a(I-4
I-1
tp7198
a(I-4
I0
tp7199
a(I-3
I0
tp7200
a(I-2
I0
tp7201
a(I-2
I1
tp7202
a(I-1
I1
tp7203
a(I0
I1
tp7204
a(I0
I2
tp7205
a(I-1
I2
tp7206
a(I-2
I2
tp7207
a(I-2
I3
tp7208
a(I-3
I3
tp7209
a(I-4
I3
tp7210
a(I-5
I3
tp7211
a(I-6
I3
tp7212
a(I-6
I2
tp7213
a(I-6
I1
tp7214
a(I-7
I1
tp7215
a(I-7
I0
tp7216
aI0
tp7217
a((lp7218
g3
a(I1
I0
tp7219
a(I1
I1
tp7220
a(I0
I1
tp7221
a(I-1
I1
tp7222
a(I-1
I2
tp7223
a(I0
I2
tp7224
a(I0
I3
tp7225
a(I-1
I3
tp7226
a(I-2
I3
tp7227
a(I-3
I3
tp7228
a(I-3
I4
tp7229
a(I-3
I5
tp7230
a(I-4
I5
tp7231
a(I-4
I4
tp7232
a(I-4
I3
tp7233
a(I-5
I3
tp7234
a(I-6
I3
tp7235
a(I-6
I4
tp7236
a(I-7
I4
tp7237
a(I-7
I3
tp7238
a(I-7
I2
tp7239
a(I-6
I2
tp7240
a(I-6
I1
tp7241
a(I-5
I1
tp7242
a(I-5
I0
tp7243
a(I-5
I-1
tp7244
a(I-5
I-2
tp7245
a(I-6
I-2
tp7246
a(I-6
I-1
tp7247
a(I-6
I0
tp7248
a(I-7
I0
tp7249
a(I-8
I0
tp7250
a(I-9
I0
tp7251
a(I-9
I-1
tp7252
a(I-9
I-2
tp7253
aI0
tp7254
a((lp7255
g3
a(I0
I-1
tp7256
a(I0
I-2
tp7257
a(I-1
I-2
tp7258
a(I-1
I-1
tp7259
a(I-1
I0
tp7260
a(I-1
I1
tp7261
a(I0
I1
tp7262
a(I0
I2
tp7263
a(I0
I3
tp7264
a(I1
I3
tp7265
a(I2
I3
tp7266
a(I2
I2
tp7267
a(I3
I2
tp7268
a(I4
I2
tp7269
a(I5
I2
tp7270
a(I6
I2
tp7271
a(I7
I2
tp7272
a(I7
I1
tp7273
a(I8
I1
tp7274
a(I9
I1
tp7275
a(I9
I2
tp7276
a(I8
I2
tp7277
a(I8
I3
tp7278
a(I8
I4
tp7279
a(I9
I4
tp7280
a(I9
I3
tp7281
a(I10
I3
tp7282
a(I11
I3
tp7283
a(I12
I3
tp7284
a(I12
I2
tp7285
a(I11
I2
tp7286
a(I11
I1
tp7287
a(I10
I1
tp7288
a(I10
I0
tp7289
a(I11
I0
tp7290
aI0
tp7291
a((lp7292
g3
a(I1
I0
tp7293
a(I1
I-1
tp7294
a(I2
I-1
tp7295
a(I2
I0
tp7296
a(I2
I1
tp7297
a(I3
I1
tp7298
a(I3
I2
tp7299
a(I4
I2
tp7300
a(I5
I2
tp7301
a(I6
I2
tp7302
a(I6
I1
tp7303
a(I6
I0
tp7304
a(I5
I0
tp7305
a(I5
I1
tp7306
a(I4
I1
tp7307
a(I4
I0
tp7308
a(I4
I-1
tp7309
a(I3
I-1
tp7310
a(I3
I-2
tp7311
a(I3
I-3
tp7312
a(I3
I-4
tp7313
a(I2
I-4
tp7314
a(I2
I-5
tp7315
a(I2
I-6
tp7316
a(I3
I-6
tp7317
a(I3
I-7
tp7318
a(I4
I-7
tp7319
a(I4
I-6
tp7320
a(I5
I-6
tp7321
a(I5
I-7
tp7322
a(I5
I-8
tp7323
a(I4
I-8
tp7324
a(I3
I-8
tp7325
a(I3
I-9
tp7326
a(I2
I-9
tp7327
aI0
tp7328
a((lp7329
g3
a(I0
I1
tp7330
a(I-1
I1
tp7331
a(I-1
I2
tp7332
a(I-1
I3
tp7333
a(I-1
I4
tp7334
a(I0
I4
tp7335
a(I0
I5
tp7336
a(I1
I5
tp7337
a(I1
I4
tp7338
a(I1
I3
tp7339
a(I2
I3
tp7340
a(I2
I4
tp7341
a(I2
I5
tp7342
a(I2
I6
tp7343
a(I1
I6
tp7344
a(I1
I7
tp7345
a(I0
I7
tp7346
a(I0
I6
tp7347
a(I-1
I6
tp7348
a(I-1
I7
tp7349
a(I-2
I7
tp7350
a(I-2
I6
tp7351
a(I-3
I6
tp7352
a(I-3
I7
tp7353
a(I-3
I8
tp7354
a(I-2
I8
tp7355
a(I-1
I8
tp7356
a(I-1
I9
tp7357
a(I-2
I9
tp7358
a(I-3
I9
tp7359
a(I-3
I10
tp7360
a(I-3
I11
tp7361
a(I-3
I12
tp7362
a(I-3
I13
tp7363
a(I-3
I14
tp7364
aI0
tp7365
a((lp7366
g3
a(I1
I0
tp7367
a(I1
I1
tp7368
a(I1
I2
tp7369
a(I1
I3
tp7370
a(I1
I4
tp7371
a(I2
I4
tp7372
a(I3
I4
tp7373
a(I4
I4
tp7374
a(I4
I5
tp7375
a(I4
I6
tp7376
a(I4
I7
tp7377
a(I3
I7
tp7378
a(I3
I6
tp7379
a(I3
I5
tp7380
a(I2
I5
tp7381
a(I1
I5
tp7382
a(I1
I6
tp7383
a(I1
I7
tp7384
a(I2
I7
tp7385
a(I2
I8
tp7386
a(I1
I8
tp7387
a(I0
I8
tp7388
a(I-1
I8
tp7389
a(I-2
I8
tp7390
a(I-3
I8
tp7391
a(I-3
I7
tp7392
a(I-3
I6
tp7393
a(I-2
I6
tp7394
a(I-2
I5
tp7395
a(I-2
I4
tp7396
a(I-1
I4
tp7397
a(I0
I4
tp7398
a(I0
I3
tp7399
a(I-1
I3
tp7400
a(I-1
I2
tp7401
aI0
tp7402
a.